; Listing generated by Microsoft (R) Optimizing Compiler Version 15.00.21022.08 

include listing.inc

INCLUDELIB MSVCRTD
INCLUDELIB OLDNAMES

PUBLIC	?collate@?$_Locbase@H@std@@2HB			; std::_Locbase<int>::collate
PUBLIC	?ctype@?$_Locbase@H@std@@2HB			; std::_Locbase<int>::ctype
PUBLIC	?monetary@?$_Locbase@H@std@@2HB			; std::_Locbase<int>::monetary
PUBLIC	?numeric@?$_Locbase@H@std@@2HB			; std::_Locbase<int>::numeric
PUBLIC	?time@?$_Locbase@H@std@@2HB			; std::_Locbase<int>::time
PUBLIC	?messages@?$_Locbase@H@std@@2HB			; std::_Locbase<int>::messages
PUBLIC	?all@?$_Locbase@H@std@@2HB			; std::_Locbase<int>::all
PUBLIC	?none@?$_Locbase@H@std@@2HB			; std::_Locbase<int>::none
PUBLIC	?skipws@?$_Iosb@H@std@@2W4_Fmtflags@12@B	; std::_Iosb<int>::skipws
PUBLIC	?unitbuf@?$_Iosb@H@std@@2W4_Fmtflags@12@B	; std::_Iosb<int>::unitbuf
PUBLIC	?uppercase@?$_Iosb@H@std@@2W4_Fmtflags@12@B	; std::_Iosb<int>::uppercase
PUBLIC	?showbase@?$_Iosb@H@std@@2W4_Fmtflags@12@B	; std::_Iosb<int>::showbase
PUBLIC	?showpoint@?$_Iosb@H@std@@2W4_Fmtflags@12@B	; std::_Iosb<int>::showpoint
PUBLIC	?showpos@?$_Iosb@H@std@@2W4_Fmtflags@12@B	; std::_Iosb<int>::showpos
PUBLIC	?left@?$_Iosb@H@std@@2W4_Fmtflags@12@B		; std::_Iosb<int>::left
PUBLIC	?right@?$_Iosb@H@std@@2W4_Fmtflags@12@B		; std::_Iosb<int>::right
PUBLIC	?internal@?$_Iosb@H@std@@2W4_Fmtflags@12@B	; std::_Iosb<int>::internal
PUBLIC	?dec@?$_Iosb@H@std@@2W4_Fmtflags@12@B		; std::_Iosb<int>::dec
PUBLIC	?oct@?$_Iosb@H@std@@2W4_Fmtflags@12@B		; std::_Iosb<int>::oct
PUBLIC	?hex@?$_Iosb@H@std@@2W4_Fmtflags@12@B		; std::_Iosb<int>::hex
PUBLIC	?scientific@?$_Iosb@H@std@@2W4_Fmtflags@12@B	; std::_Iosb<int>::scientific
PUBLIC	?fixed@?$_Iosb@H@std@@2W4_Fmtflags@12@B		; std::_Iosb<int>::fixed
PUBLIC	?hexfloat@?$_Iosb@H@std@@2W4_Fmtflags@12@B	; std::_Iosb<int>::hexfloat
PUBLIC	?boolalpha@?$_Iosb@H@std@@2W4_Fmtflags@12@B	; std::_Iosb<int>::boolalpha
PUBLIC	?_Stdio@?$_Iosb@H@std@@2W4_Fmtflags@12@B	; std::_Iosb<int>::_Stdio
PUBLIC	?adjustfield@?$_Iosb@H@std@@2W4_Fmtflags@12@B	; std::_Iosb<int>::adjustfield
PUBLIC	?basefield@?$_Iosb@H@std@@2W4_Fmtflags@12@B	; std::_Iosb<int>::basefield
PUBLIC	?floatfield@?$_Iosb@H@std@@2W4_Fmtflags@12@B	; std::_Iosb<int>::floatfield
PUBLIC	?goodbit@?$_Iosb@H@std@@2W4_Iostate@12@B	; std::_Iosb<int>::goodbit
PUBLIC	?eofbit@?$_Iosb@H@std@@2W4_Iostate@12@B		; std::_Iosb<int>::eofbit
PUBLIC	?failbit@?$_Iosb@H@std@@2W4_Iostate@12@B	; std::_Iosb<int>::failbit
PUBLIC	?badbit@?$_Iosb@H@std@@2W4_Iostate@12@B		; std::_Iosb<int>::badbit
PUBLIC	?_Hardfail@?$_Iosb@H@std@@2W4_Iostate@12@B	; std::_Iosb<int>::_Hardfail
PUBLIC	?in@?$_Iosb@H@std@@2W4_Openmode@12@B		; std::_Iosb<int>::in
PUBLIC	?out@?$_Iosb@H@std@@2W4_Openmode@12@B		; std::_Iosb<int>::out
PUBLIC	?ate@?$_Iosb@H@std@@2W4_Openmode@12@B		; std::_Iosb<int>::ate
PUBLIC	?app@?$_Iosb@H@std@@2W4_Openmode@12@B		; std::_Iosb<int>::app
PUBLIC	?trunc@?$_Iosb@H@std@@2W4_Openmode@12@B		; std::_Iosb<int>::trunc
PUBLIC	?_Nocreate@?$_Iosb@H@std@@2W4_Openmode@12@B	; std::_Iosb<int>::_Nocreate
PUBLIC	?_Noreplace@?$_Iosb@H@std@@2W4_Openmode@12@B	; std::_Iosb<int>::_Noreplace
PUBLIC	?binary@?$_Iosb@H@std@@2W4_Openmode@12@B	; std::_Iosb<int>::binary
PUBLIC	?beg@?$_Iosb@H@std@@2W4_Seekdir@12@B		; std::_Iosb<int>::beg
PUBLIC	?cur@?$_Iosb@H@std@@2W4_Seekdir@12@B		; std::_Iosb<int>::cur
PUBLIC	?end@?$_Iosb@H@std@@2W4_Seekdir@12@B		; std::_Iosb<int>::end
;	COMDAT ?end@?$_Iosb@H@std@@2W4_Seekdir@12@B
CONST	SEGMENT
?end@?$_Iosb@H@std@@2W4_Seekdir@12@B DD 02H		; std::_Iosb<int>::end
CONST	ENDS
;	COMDAT ?cur@?$_Iosb@H@std@@2W4_Seekdir@12@B
CONST	SEGMENT
?cur@?$_Iosb@H@std@@2W4_Seekdir@12@B DD 01H		; std::_Iosb<int>::cur
CONST	ENDS
;	COMDAT ?beg@?$_Iosb@H@std@@2W4_Seekdir@12@B
CONST	SEGMENT
?beg@?$_Iosb@H@std@@2W4_Seekdir@12@B DD 00H		; std::_Iosb<int>::beg
CONST	ENDS
;	COMDAT ?binary@?$_Iosb@H@std@@2W4_Openmode@12@B
CONST	SEGMENT
?binary@?$_Iosb@H@std@@2W4_Openmode@12@B DD 020H	; std::_Iosb<int>::binary
CONST	ENDS
;	COMDAT ?_Noreplace@?$_Iosb@H@std@@2W4_Openmode@12@B
CONST	SEGMENT
?_Noreplace@?$_Iosb@H@std@@2W4_Openmode@12@B DD 080H	; std::_Iosb<int>::_Noreplace
CONST	ENDS
;	COMDAT ?_Nocreate@?$_Iosb@H@std@@2W4_Openmode@12@B
CONST	SEGMENT
?_Nocreate@?$_Iosb@H@std@@2W4_Openmode@12@B DD 040H	; std::_Iosb<int>::_Nocreate
CONST	ENDS
;	COMDAT ?trunc@?$_Iosb@H@std@@2W4_Openmode@12@B
CONST	SEGMENT
?trunc@?$_Iosb@H@std@@2W4_Openmode@12@B DD 010H		; std::_Iosb<int>::trunc
CONST	ENDS
;	COMDAT ?app@?$_Iosb@H@std@@2W4_Openmode@12@B
CONST	SEGMENT
?app@?$_Iosb@H@std@@2W4_Openmode@12@B DD 08H		; std::_Iosb<int>::app
CONST	ENDS
;	COMDAT ?ate@?$_Iosb@H@std@@2W4_Openmode@12@B
CONST	SEGMENT
?ate@?$_Iosb@H@std@@2W4_Openmode@12@B DD 04H		; std::_Iosb<int>::ate
CONST	ENDS
;	COMDAT ?out@?$_Iosb@H@std@@2W4_Openmode@12@B
CONST	SEGMENT
?out@?$_Iosb@H@std@@2W4_Openmode@12@B DD 02H		; std::_Iosb<int>::out
CONST	ENDS
;	COMDAT ?in@?$_Iosb@H@std@@2W4_Openmode@12@B
CONST	SEGMENT
?in@?$_Iosb@H@std@@2W4_Openmode@12@B DD 01H		; std::_Iosb<int>::in
CONST	ENDS
;	COMDAT ?_Hardfail@?$_Iosb@H@std@@2W4_Iostate@12@B
CONST	SEGMENT
?_Hardfail@?$_Iosb@H@std@@2W4_Iostate@12@B DD 010H	; std::_Iosb<int>::_Hardfail
CONST	ENDS
;	COMDAT ?badbit@?$_Iosb@H@std@@2W4_Iostate@12@B
CONST	SEGMENT
?badbit@?$_Iosb@H@std@@2W4_Iostate@12@B DD 04H		; std::_Iosb<int>::badbit
CONST	ENDS
;	COMDAT ?failbit@?$_Iosb@H@std@@2W4_Iostate@12@B
CONST	SEGMENT
?failbit@?$_Iosb@H@std@@2W4_Iostate@12@B DD 02H		; std::_Iosb<int>::failbit
CONST	ENDS
;	COMDAT ?eofbit@?$_Iosb@H@std@@2W4_Iostate@12@B
CONST	SEGMENT
?eofbit@?$_Iosb@H@std@@2W4_Iostate@12@B DD 01H		; std::_Iosb<int>::eofbit
CONST	ENDS
;	COMDAT ?goodbit@?$_Iosb@H@std@@2W4_Iostate@12@B
CONST	SEGMENT
?goodbit@?$_Iosb@H@std@@2W4_Iostate@12@B DD 00H		; std::_Iosb<int>::goodbit
CONST	ENDS
;	COMDAT ?floatfield@?$_Iosb@H@std@@2W4_Fmtflags@12@B
CONST	SEGMENT
?floatfield@?$_Iosb@H@std@@2W4_Fmtflags@12@B DD 03000H	; std::_Iosb<int>::floatfield
CONST	ENDS
;	COMDAT ?basefield@?$_Iosb@H@std@@2W4_Fmtflags@12@B
CONST	SEGMENT
?basefield@?$_Iosb@H@std@@2W4_Fmtflags@12@B DD 0e00H	; std::_Iosb<int>::basefield
CONST	ENDS
;	COMDAT ?adjustfield@?$_Iosb@H@std@@2W4_Fmtflags@12@B
CONST	SEGMENT
?adjustfield@?$_Iosb@H@std@@2W4_Fmtflags@12@B DD 01c0H	; std::_Iosb<int>::adjustfield
CONST	ENDS
;	COMDAT ?_Stdio@?$_Iosb@H@std@@2W4_Fmtflags@12@B
CONST	SEGMENT
?_Stdio@?$_Iosb@H@std@@2W4_Fmtflags@12@B DD 08000H	; std::_Iosb<int>::_Stdio
CONST	ENDS
;	COMDAT ?boolalpha@?$_Iosb@H@std@@2W4_Fmtflags@12@B
CONST	SEGMENT
?boolalpha@?$_Iosb@H@std@@2W4_Fmtflags@12@B DD 04000H	; std::_Iosb<int>::boolalpha
CONST	ENDS
;	COMDAT ?hexfloat@?$_Iosb@H@std@@2W4_Fmtflags@12@B
CONST	SEGMENT
?hexfloat@?$_Iosb@H@std@@2W4_Fmtflags@12@B DD 03000H	; std::_Iosb<int>::hexfloat
CONST	ENDS
;	COMDAT ?fixed@?$_Iosb@H@std@@2W4_Fmtflags@12@B
CONST	SEGMENT
?fixed@?$_Iosb@H@std@@2W4_Fmtflags@12@B DD 02000H	; std::_Iosb<int>::fixed
CONST	ENDS
;	COMDAT ?scientific@?$_Iosb@H@std@@2W4_Fmtflags@12@B
CONST	SEGMENT
?scientific@?$_Iosb@H@std@@2W4_Fmtflags@12@B DD 01000H	; std::_Iosb<int>::scientific
CONST	ENDS
;	COMDAT ?hex@?$_Iosb@H@std@@2W4_Fmtflags@12@B
CONST	SEGMENT
?hex@?$_Iosb@H@std@@2W4_Fmtflags@12@B DD 0800H		; std::_Iosb<int>::hex
CONST	ENDS
;	COMDAT ?oct@?$_Iosb@H@std@@2W4_Fmtflags@12@B
CONST	SEGMENT
?oct@?$_Iosb@H@std@@2W4_Fmtflags@12@B DD 0400H		; std::_Iosb<int>::oct
CONST	ENDS
;	COMDAT ?dec@?$_Iosb@H@std@@2W4_Fmtflags@12@B
CONST	SEGMENT
?dec@?$_Iosb@H@std@@2W4_Fmtflags@12@B DD 0200H		; std::_Iosb<int>::dec
CONST	ENDS
;	COMDAT ?internal@?$_Iosb@H@std@@2W4_Fmtflags@12@B
CONST	SEGMENT
?internal@?$_Iosb@H@std@@2W4_Fmtflags@12@B DD 0100H	; std::_Iosb<int>::internal
CONST	ENDS
;	COMDAT ?right@?$_Iosb@H@std@@2W4_Fmtflags@12@B
CONST	SEGMENT
?right@?$_Iosb@H@std@@2W4_Fmtflags@12@B DD 080H		; std::_Iosb<int>::right
CONST	ENDS
;	COMDAT ?left@?$_Iosb@H@std@@2W4_Fmtflags@12@B
CONST	SEGMENT
?left@?$_Iosb@H@std@@2W4_Fmtflags@12@B DD 040H		; std::_Iosb<int>::left
CONST	ENDS
;	COMDAT ?showpos@?$_Iosb@H@std@@2W4_Fmtflags@12@B
CONST	SEGMENT
?showpos@?$_Iosb@H@std@@2W4_Fmtflags@12@B DD 020H	; std::_Iosb<int>::showpos
CONST	ENDS
;	COMDAT ?showpoint@?$_Iosb@H@std@@2W4_Fmtflags@12@B
CONST	SEGMENT
?showpoint@?$_Iosb@H@std@@2W4_Fmtflags@12@B DD 010H	; std::_Iosb<int>::showpoint
CONST	ENDS
;	COMDAT ?showbase@?$_Iosb@H@std@@2W4_Fmtflags@12@B
CONST	SEGMENT
?showbase@?$_Iosb@H@std@@2W4_Fmtflags@12@B DD 08H	; std::_Iosb<int>::showbase
CONST	ENDS
;	COMDAT ?uppercase@?$_Iosb@H@std@@2W4_Fmtflags@12@B
CONST	SEGMENT
?uppercase@?$_Iosb@H@std@@2W4_Fmtflags@12@B DD 04H	; std::_Iosb<int>::uppercase
CONST	ENDS
;	COMDAT ?unitbuf@?$_Iosb@H@std@@2W4_Fmtflags@12@B
CONST	SEGMENT
?unitbuf@?$_Iosb@H@std@@2W4_Fmtflags@12@B DD 02H	; std::_Iosb<int>::unitbuf
CONST	ENDS
;	COMDAT ?skipws@?$_Iosb@H@std@@2W4_Fmtflags@12@B
CONST	SEGMENT
?skipws@?$_Iosb@H@std@@2W4_Fmtflags@12@B DD 01H		; std::_Iosb<int>::skipws
CONST	ENDS
;	COMDAT ?none@?$_Locbase@H@std@@2HB
CONST	SEGMENT
?none@?$_Locbase@H@std@@2HB DD 00H			; std::_Locbase<int>::none
CONST	ENDS
;	COMDAT ?all@?$_Locbase@H@std@@2HB
CONST	SEGMENT
?all@?$_Locbase@H@std@@2HB DD 03fH			; std::_Locbase<int>::all
CONST	ENDS
;	COMDAT ?messages@?$_Locbase@H@std@@2HB
CONST	SEGMENT
?messages@?$_Locbase@H@std@@2HB DD 020H			; std::_Locbase<int>::messages
CONST	ENDS
;	COMDAT ?time@?$_Locbase@H@std@@2HB
CONST	SEGMENT
?time@?$_Locbase@H@std@@2HB DD 010H			; std::_Locbase<int>::time
CONST	ENDS
;	COMDAT ?numeric@?$_Locbase@H@std@@2HB
CONST	SEGMENT
?numeric@?$_Locbase@H@std@@2HB DD 08H			; std::_Locbase<int>::numeric
CONST	ENDS
;	COMDAT ?monetary@?$_Locbase@H@std@@2HB
CONST	SEGMENT
?monetary@?$_Locbase@H@std@@2HB DD 04H			; std::_Locbase<int>::monetary
CONST	ENDS
;	COMDAT ?ctype@?$_Locbase@H@std@@2HB
CONST	SEGMENT
?ctype@?$_Locbase@H@std@@2HB DD 02H			; std::_Locbase<int>::ctype
CONST	ENDS
;	COMDAT ?collate@?$_Locbase@H@std@@2HB
CONST	SEGMENT
?collate@?$_Locbase@H@std@@2HB DD 01H			; std::_Locbase<int>::collate
CONST	ENDS
_DATA	SEGMENT
_bad_alloc_Message DQ FLAT:$SG20598
_DATA	ENDS
CONST	SEGMENT
$SG20598 DB	'bad allocation', 00H
	ORG $+1
$SG126613 DB	'Layer:', 00H
	ORG $+1
$SG126614 DB	'Selection:', 00H
	ORG $+5
$SG126615 DB	'Manifest:', 00H
	ORG $+14
$SG127195 DB	'.', 00H, '.', 00H, '\', 00H, '.', 00H, '.', 00H, '\', 00H
	DB	's', 00H, 'r', 00H, 'c', 00H, '\', 00H, 'a', 00H, 'f', 00H, 't'
	DB	00H, 'e', 00H, 'r', 00H, 'e', 00H, 'f', 00H, 'f', 00H, 'e', 00H
	DB	'c', 00H, 't', 00H, 's', 00H, '\', 00H, 'C', 00H, 'r', 00H, 'y'
	DB	00H, 'p', 00H, 't', 00H, 'o', 00H, 'm', 00H, 'a', 00H, 't', 00H
	DB	't', 00H, 'e', 00H, '_', 00H, 'A', 00H, 'E', 00H, '_', 00H, 'U'
	DB	00H, 'I', 00H, '.', 00H, 'c', 00H, 'p', 00H, 'p', 00H, 00H, 00H
	ORG $+6
$SG127196 DB	'f', 00H, 'o', 00H, 'r', 00H, 'm', 00H, 'a', 00H, 't', 00H
	DB	' ', 00H, '=', 00H, '=', 00H, ' ', 00H, 'P', 00H, 'F', 00H, '_'
	DB	00H, 'P', 00H, 'i', 00H, 'x', 00H, 'e', 00H, 'l', 00H, 'F', 00H
	DB	'o', 00H, 'r', 00H, 'm', 00H, 'a', 00H, 't', 00H, '_', 00H, 'A'
	DB	00H, 'R', 00H, 'G', 00H, 'B', 00H, '1', 00H, '2', 00H, '8', 00H
	DB	00H, 00H
	ORG $+6
$SG127218 DB	'Cryptomatte selection set to ', 00H
	ORG $+2
$SG127220 DB	'Cryptomatte selection emptied.', 00H
	ORG $+1
$SG127353 DB	', ', 00H
	ORG $+1
$SG127356 DB	' ', 00H
	ORG $+2
$SG127357 DB	',', 00H
	ORG $+2
$SG127360 DB	'"', 00H
	ORG $+2
$SG127361 DB	'"', 00H
	ORG $+2
$SG127635 DB	', ', 00H
	ORG $+1
$SG127818 DB	'Cryptomatte selection added ', 00H
	ORG $+3
$SG127820 DB	'Cryptomatte selection added nothing.', 00H
	ORG $+3
$SG127840 DB	', ', 00H
	ORG $+1
$SG127843 DB	' ', 00H
	ORG $+2
$SG127844 DB	',', 00H
	ORG $+2
$SG127847 DB	'"', 00H
	ORG $+2
$SG127848 DB	'"', 00H
	ORG $+6
$SG127852 DB	'Cryptomatte selection removed ', 00H
	ORG $+1
$SG127854 DB	'Cryptomatte selection removed nothing.', 00H
	ORG $+1
$SG127895 DB	', ', 00H
	ORG $+1
$SG127914 DB	', ', 00H
CONST	ENDS
PUBLIC	HandleEvent
EXTRN	DoDialog:PROC
pdata	SEGMENT
$pdata$HandleEvent DD imagerel $LN19
	DD	imagerel $LN19+425
	DD	imagerel $unwind$HandleEvent
pdata	ENDS
xdata	SEGMENT
$unwind$HandleEvent DD 011801H
	DD	08218H
; Function compile flags: /Odtp
; File c:\users\brendan bolles\documents\development\proexr\src\aftereffects\cryptomatte_ae_ui.cpp
xdata	ENDS
_TEXT	SEGMENT
err$ = 48
tv66 = 52
in_data$ = 80
out_data$ = 88
params$ = 96
output$ = 104
extra$ = 112
HandleEvent PROC

; 376  : {

$LN19:
	mov	QWORD PTR [rsp+32], r9
	mov	QWORD PTR [rsp+24], r8
	mov	QWORD PTR [rsp+16], rdx
	mov	QWORD PTR [rsp+8], rcx
	sub	rsp, 72					; 00000048H

; 377  : 	PF_Err		err		= PF_Err_NONE;

	mov	DWORD PTR err$[rsp], 0

; 378  : 	
; 379  : 	if (!err) 

	cmp	DWORD PTR err$[rsp], 0
	jne	$LN16@HandleEven

; 380  : 	{
; 381  : 		switch(extra->e_type) 

	mov	rax, QWORD PTR extra$[rsp]
	mov	eax, DWORD PTR [rax+8]
	mov	DWORD PTR tv66[rsp], eax
	cmp	DWORD PTR tv66[rsp], 2
	jl	$LN14@HandleEven
	cmp	DWORD PTR tv66[rsp], 3
	jle	SHORT $LN12@HandleEven
	cmp	DWORD PTR tv66[rsp], 4
	je	SHORT $LN13@HandleEven
	cmp	DWORD PTR tv66[rsp], 9
	je	$LN8@HandleEven
	jmp	$LN14@HandleEven
$LN13@HandleEven:

; 382  : 		{
; 383  : 			case PF_Event_DRAW:
; 384  : 				err = DrawEvent(in_data, out_data, params, output, extra);

	mov	rax, QWORD PTR extra$[rsp]
	mov	QWORD PTR [rsp+32], rax
	mov	r9, QWORD PTR output$[rsp]
	mov	r8, QWORD PTR params$[rsp]
	mov	rdx, QWORD PTR out_data$[rsp]
	mov	rcx, QWORD PTR in_data$[rsp]
	call	?DrawEvent@@YAJPEAUPF_InData@@PEAUPF_OutData@@QEAPEAUPF_ParamDef@@PEAUPF_LayerDef@@PEAUPF_EventExtra@@@Z ; DrawEvent
	mov	DWORD PTR err$[rsp], eax

; 385  : 				break;

	jmp	$LN14@HandleEven
$LN12@HandleEven:

; 386  : 			
; 387  : 			case PF_Event_DO_CLICK:
; 388  : 			case PF_Event_DRAG:
; 389  : 				if((*extra->contextH)->w_type == PF_Window_EFFECT)

	mov	rax, QWORD PTR extra$[rsp]
	mov	rax, QWORD PTR [rax]
	mov	rax, QWORD PTR [rax]
	cmp	DWORD PTR [rax+4], 2
	jne	SHORT $LN11@HandleEven

; 390  : 				{
; 391  : 					err = DoDialog(in_data, out_data, params, output);

	mov	r9, QWORD PTR output$[rsp]
	mov	r8, QWORD PTR params$[rsp]
	mov	rdx, QWORD PTR out_data$[rsp]
	mov	rcx, QWORD PTR in_data$[rsp]
	call	DoDialog
	mov	DWORD PTR err$[rsp], eax

; 392  : 					extra->evt_out_flags = PF_EO_HANDLED_EVENT;

	mov	rax, QWORD PTR extra$[rsp]
	mov	DWORD PTR [rax+204], 1
	jmp	SHORT $LN10@HandleEven
$LN11@HandleEven:

; 393  : 				}
; 394  : 				else if((*extra->contextH)->w_type != PF_Window_NONE)

	mov	rax, QWORD PTR extra$[rsp]
	mov	rax, QWORD PTR [rax]
	mov	rax, QWORD PTR [rax]
	cmp	DWORD PTR [rax+4], -1
	je	SHORT $LN9@HandleEven

; 395  : 				{
; 396  : 					err = DoClick(in_data, out_data, params, output, extra);

	mov	rax, QWORD PTR extra$[rsp]
	mov	QWORD PTR [rsp+32], rax
	mov	r9, QWORD PTR output$[rsp]
	mov	r8, QWORD PTR params$[rsp]
	mov	rdx, QWORD PTR out_data$[rsp]
	mov	rcx, QWORD PTR in_data$[rsp]
	call	?DoClick@@YAJPEAUPF_InData@@PEAUPF_OutData@@QEAPEAUPF_ParamDef@@PEAUPF_LayerDef@@PEAUPF_EventExtra@@@Z ; DoClick
	mov	DWORD PTR err$[rsp], eax

; 397  : 					extra->evt_out_flags = PF_EO_HANDLED_EVENT;

	mov	rax, QWORD PTR extra$[rsp]
	mov	DWORD PTR [rax+204], 1
$LN9@HandleEven:
$LN10@HandleEven:

; 398  : 				}
; 399  : 				break;

	jmp	$LN14@HandleEven
$LN8@HandleEven:

; 400  : 				
; 401  : 			case PF_Event_ADJUST_CURSOR:
; 402  : 				if((*extra->contextH)->w_type == PF_Window_EFFECT)

	mov	rax, QWORD PTR extra$[rsp]
	mov	rax, QWORD PTR [rax]
	mov	rax, QWORD PTR [rax]
	cmp	DWORD PTR [rax+4], 2
	jne	SHORT $LN7@HandleEven

; 403  : 				{
; 404  : 				#if defined(MAC_ENV)
; 405  : 					#if PF_AE_PLUG_IN_VERSION >= PF_AE100_PLUG_IN_VERSION
; 406  : 					SetMickeyCursor(); // the cute mickey mouse hand
; 407  : 					#else
; 408  : 					SetThemeCursor(kThemePointingHandCursor);
; 409  : 					#endif
; 410  : 					extra->u.adjust_cursor.set_cursor = PF_Cursor_CUSTOM;
; 411  : 				#else
; 412  : 					extra->u.adjust_cursor.set_cursor = PF_Cursor_FINGER_POINTER;

	mov	rax, QWORD PTR extra$[rsp]
	mov	DWORD PTR [rax+28], 23
	jmp	SHORT $LN6@HandleEven
$LN7@HandleEven:

; 413  : 				#endif
; 414  : 				}
; 415  : 				else if((*extra->contextH)->w_type != PF_Window_NONE)

	mov	rax, QWORD PTR extra$[rsp]
	mov	rax, QWORD PTR [rax]
	mov	rax, QWORD PTR [rax]
	cmp	DWORD PTR [rax+4], -1
	je	SHORT $LN5@HandleEven

; 416  : 				{
; 417  : 					if((extra->u.adjust_cursor.modifiers & ALL_MODIFIERS) == 0)

	mov	rax, QWORD PTR extra$[rsp]
	mov	eax, DWORD PTR [rax+24]
	and	eax, 6912				; 00001b00H
	test	eax, eax
	jne	SHORT $LN4@HandleEven

; 418  : 						extra->u.adjust_cursor.set_cursor = PF_Cursor_HOLLOW_ARROW;

	mov	rax, QWORD PTR extra$[rsp]
	mov	DWORD PTR [rax+28], 3
	jmp	SHORT $LN3@HandleEven
$LN4@HandleEven:

; 419  : 					else if(extra->u.adjust_cursor.modifiers & PF_Mod_SHIFT_KEY)

	mov	rax, QWORD PTR extra$[rsp]
	mov	eax, DWORD PTR [rax+24]
	and	eax, 512				; 00000200H
	test	eax, eax
	je	SHORT $LN2@HandleEven

; 420  : 						extra->u.adjust_cursor.set_cursor = PF_Cursor_HOLLOW_ARROW_PLUS;

	mov	rax, QWORD PTR extra$[rsp]
	mov	DWORD PTR [rax+28], 79			; 0000004fH

; 421  : 					else

	jmp	SHORT $LN1@HandleEven
$LN2@HandleEven:

; 422  : 						extra->u.adjust_cursor.set_cursor = PF_Cursor_SCISSORS;

	mov	rax, QWORD PTR extra$[rsp]
	mov	DWORD PTR [rax+28], 50			; 00000032H
$LN1@HandleEven:
$LN3@HandleEven:
$LN5@HandleEven:
$LN6@HandleEven:

; 423  : 				}
; 424  : 				
; 425  : 				extra->evt_out_flags = PF_EO_HANDLED_EVENT;

	mov	rax, QWORD PTR extra$[rsp]
	mov	DWORD PTR [rax+204], 1
$LN14@HandleEven:
$LN16@HandleEven:

; 426  : 				break;
; 427  : 		}
; 428  : 	}
; 429  : 	
; 430  : 	return err;

	mov	eax, DWORD PTR err$[rsp]

; 431  : }

	add	rsp, 72					; 00000048H
	ret	0
HandleEvent ENDP
_TEXT	ENDS
PUBLIC	__real@40c00000
PUBLIC	?Move@DrawbotBot@@QEAAXMM@Z			; DrawbotBot::Move
PUBLIC	?MoveTo@DrawbotBot@@QEAAXMM@Z			; DrawbotBot::MoveTo
PUBLIC	__real@3f800000
PUBLIC	__real@4000000000000000
PUBLIC	__real@3ff6666666666666
PUBLIC	?FontSize@DrawbotBot@@QEBAMXZ			; DrawbotBot::FontSize
EXTRN	__CxxFrameHandler3:PROC
EXTRN	??1AEGP_SuiteHandler@@QEAA@XZ:PROC		; AEGP_SuiteHandler::~AEGP_SuiteHandler
EXTRN	??1DrawbotBot@@QEAA@XZ:PROC			; DrawbotBot::~DrawbotBot
EXTRN	GetManifest:PROC
EXTRN	GetSelection:PROC
EXTRN	GetLayer:PROC
EXTRN	?DrawString@DrawbotBot@@QEBAXPEBDHHM@Z:PROC	; DrawbotBot::DrawString
EXTRN	?SetColor@DrawbotBot@@QEAAXFM@Z:PROC		; DrawbotBot::SetColor
EXTRN	??0DrawbotBot@@QEAA@PEAUSPBasicSuite@@PEAPEAUPF_Context@@J@Z:PROC ; DrawbotBot::DrawbotBot
EXTRN	??0AEGP_SuiteHandler@@QEAA@PEBUSPBasicSuite@@@Z:PROC ; AEGP_SuiteHandler::AEGP_SuiteHandler
EXTRN	_fltused:DWORD
pdata	SEGMENT
$pdata$?DrawEvent@@YAJPEAUPF_InData@@PEAUPF_OutData@@QEAPEAUPF_ParamDef@@PEAUPF_LayerDef@@PEAUPF_EventExtra@@@Z DD imagerel ?DrawEvent@@YAJPEAUPF_InData@@PEAUPF_OutData@@QEAPEAUPF_ParamDef@@PEAUPF_LayerDef@@PEAUPF_EventExtra@@@Z
	DD	imagerel ?DrawEvent@@YAJPEAUPF_InData@@PEAUPF_OutData@@QEAPEAUPF_ParamDef@@PEAUPF_LayerDef@@PEAUPF_EventExtra@@@Z+1227
	DD	imagerel $unwind$?DrawEvent@@YAJPEAUPF_InData@@PEAUPF_OutData@@QEAPEAUPF_ParamDef@@PEAUPF_LayerDef@@PEAUPF_EventExtra@@@Z
pdata	ENDS
pdata	SEGMENT
$pdata$?dtor$0@?0??DrawEvent@@YAJPEAUPF_InData@@PEAUPF_OutData@@QEAPEAUPF_ParamDef@@PEAUPF_LayerDef@@PEAUPF_EventExtra@@@Z@4HA DD imagerel ?dtor$0@?0??DrawEvent@@YAJPEAUPF_InData@@PEAUPF_OutData@@QEAPEAUPF_ParamDef@@PEAUPF_LayerDef@@PEAUPF_EventExtra@@@Z@4HA
	DD	imagerel ?dtor$0@?0??DrawEvent@@YAJPEAUPF_InData@@PEAUPF_OutData@@QEAPEAUPF_ParamDef@@PEAUPF_LayerDef@@PEAUPF_EventExtra@@@Z@4HA+24
	DD	imagerel $unwind$?dtor$0@?0??DrawEvent@@YAJPEAUPF_InData@@PEAUPF_OutData@@QEAPEAUPF_ParamDef@@PEAUPF_LayerDef@@PEAUPF_EventExtra@@@Z@4HA
$pdata$?dtor$1@?0??DrawEvent@@YAJPEAUPF_InData@@PEAUPF_OutData@@QEAPEAUPF_ParamDef@@PEAUPF_LayerDef@@PEAUPF_EventExtra@@@Z@4HA DD imagerel ?dtor$1@?0??DrawEvent@@YAJPEAUPF_InData@@PEAUPF_OutData@@QEAPEAUPF_ParamDef@@PEAUPF_LayerDef@@PEAUPF_EventExtra@@@Z@4HA
	DD	imagerel ?dtor$1@?0??DrawEvent@@YAJPEAUPF_InData@@PEAUPF_OutData@@QEAPEAUPF_ParamDef@@PEAUPF_LayerDef@@PEAUPF_EventExtra@@@Z@4HA+27
	DD	imagerel $unwind$?dtor$1@?0??DrawEvent@@YAJPEAUPF_InData@@PEAUPF_OutData@@QEAPEAUPF_ParamDef@@PEAUPF_LayerDef@@PEAUPF_EventExtra@@@Z@4HA
pdata	ENDS
CONST	SEGMENT
	ORG $+1
$cppxdata$?DrawEvent@@YAJPEAUPF_InData@@PEAUPF_OutData@@QEAPEAUPF_ParamDef@@PEAUPF_LayerDef@@PEAUPF_EventExtra@@@Z DD 019930522H
	DD	02H
	DD	imagerel $stateUnwindMap$?DrawEvent@@YAJPEAUPF_InData@@PEAUPF_OutData@@QEAPEAUPF_ParamDef@@PEAUPF_LayerDef@@PEAUPF_EventExtra@@@Z
	DD	00H
	DD	00H
	DD	05H
	DD	imagerel $ip2state$?DrawEvent@@YAJPEAUPF_InData@@PEAUPF_OutData@@QEAPEAUPF_ParamDef@@PEAUPF_LayerDef@@PEAUPF_EventExtra@@@Z
	DD	03f0H
	DD	00H
	DD	01H
CONST	ENDS
xdata	SEGMENT
$stateUnwindMap$?DrawEvent@@YAJPEAUPF_InData@@PEAUPF_OutData@@QEAPEAUPF_ParamDef@@PEAUPF_LayerDef@@PEAUPF_EventExtra@@@Z DD 0ffffffffH
	DD	imagerel ?dtor$0@?0??DrawEvent@@YAJPEAUPF_InData@@PEAUPF_OutData@@QEAPEAUPF_ParamDef@@PEAUPF_LayerDef@@PEAUPF_EventExtra@@@Z@4HA
	DD	00H
	DD	imagerel ?dtor$1@?0??DrawEvent@@YAJPEAUPF_InData@@PEAUPF_OutData@@QEAPEAUPF_ParamDef@@PEAUPF_LayerDef@@PEAUPF_EventExtra@@@Z@4HA
$unwind$?DrawEvent@@YAJPEAUPF_InData@@PEAUPF_OutData@@QEAPEAUPF_ParamDef@@PEAUPF_LayerDef@@PEAUPF_EventExtra@@@Z DD 042f11H
	DD	040682fH
	DD	083011bH
	DD	imagerel __CxxFrameHandler3
	DD	imagerel $cppxdata$?DrawEvent@@YAJPEAUPF_InData@@PEAUPF_OutData@@QEAPEAUPF_ParamDef@@PEAUPF_LayerDef@@PEAUPF_EventExtra@@@Z
$unwind$?dtor$0@?0??DrawEvent@@YAJPEAUPF_InData@@PEAUPF_OutData@@QEAPEAUPF_ParamDef@@PEAUPF_LayerDef@@PEAUPF_EventExtra@@@Z@4HA DD 020601H
	DD	050023206H
$unwind$?dtor$1@?0??DrawEvent@@YAJPEAUPF_InData@@PEAUPF_OutData@@QEAPEAUPF_ParamDef@@PEAUPF_LayerDef@@PEAUPF_EventExtra@@@Z@4HA DD 020601H
	DD	050023206H
$ip2state$?DrawEvent@@YAJPEAUPF_InData@@PEAUPF_OutData@@QEAPEAUPF_ParamDef@@PEAUPF_LayerDef@@PEAUPF_EventExtra@@@Z DD imagerel ?DrawEvent@@YAJPEAUPF_InData@@PEAUPF_OutData@@QEAPEAUPF_ParamDef@@PEAUPF_LayerDef@@PEAUPF_EventExtra@@@Z
	DD	0ffffffffH
	DD	imagerel ?DrawEvent@@YAJPEAUPF_InData@@PEAUPF_OutData@@QEAPEAUPF_ParamDef@@PEAUPF_LayerDef@@PEAUPF_EventExtra@@@Z+84
	DD	00H
	DD	imagerel ?DrawEvent@@YAJPEAUPF_InData@@PEAUPF_OutData@@QEAPEAUPF_ParamDef@@PEAUPF_LayerDef@@PEAUPF_EventExtra@@@Z+268
	DD	01H
	DD	imagerel ?DrawEvent@@YAJPEAUPF_InData@@PEAUPF_OutData@@QEAPEAUPF_ParamDef@@PEAUPF_LayerDef@@PEAUPF_EventExtra@@@Z+1167
	DD	00H
	DD	imagerel ?DrawEvent@@YAJPEAUPF_InData@@PEAUPF_OutData@@QEAPEAUPF_ParamDef@@PEAUPF_LayerDef@@PEAUPF_EventExtra@@@Z+1194
	DD	0ffffffffH
xdata	ENDS
;	COMDAT __real@40c00000
CONST	SEGMENT
__real@40c00000 DD 040c00000r			; 6
CONST	ENDS
;	COMDAT __real@3f800000
CONST	SEGMENT
__real@3f800000 DD 03f800000r			; 1
CONST	ENDS
;	COMDAT __real@4000000000000000
CONST	SEGMENT
__real@4000000000000000 DQ 04000000000000000r	; 2
CONST	ENDS
;	COMDAT __real@3ff6666666666666
CONST	SEGMENT
__real@3ff6666666666666 DQ 03ff6666666666666r	; 1.4
; Function compile flags: /Odtp
CONST	ENDS
_TEXT	SEGMENT
suites$ = 48
err$ = 464
valueSpace$126617 = 468
labelSpace$126611 = 472
panel_left$126607 = 476
valuePos$126616 = 480
panel_width$126609 = 484
arb_data$126603 = 488
panel_top$126608 = 496
bot$126606 = 512
panel_height$126610 = 992
itemSpace$126612 = 996
$T135265 = 1000
$T135284 = 1008
in_data$ = 1056
out_data$ = 1064
params$ = 1072
output$ = 1080
event_extra$ = 1088
?DrawEvent@@YAJPEAUPF_InData@@PEAUPF_OutData@@QEAPEAUPF_ParamDef@@PEAUPF_LayerDef@@PEAUPF_EventExtra@@@Z PROC ; DrawEvent

; 30   : {

	mov	QWORD PTR [rsp+32], r9
	mov	QWORD PTR [rsp+24], r8
	mov	QWORD PTR [rsp+16], rdx
	mov	QWORD PTR [rsp+8], rcx
	sub	rsp, 1048				; 00000418H
	mov	QWORD PTR $T135284[rsp], -2
	movaps	XMMWORD PTR [rsp+1024], xmm6

; 31   : 	PF_Err			err		=	PF_Err_NONE;

	mov	DWORD PTR err$[rsp], 0

; 32   : 	
; 33   : 	AEGP_SuiteHandler suites(in_data->pica_basicP);

	mov	rdx, QWORD PTR in_data$[rsp]
	mov	rdx, QWORD PTR [rdx+384]
	lea	rcx, QWORD PTR suites$[rsp]
	call	??0AEGP_SuiteHandler@@QEAA@PEBUSPBasicSuite@@@Z ; AEGP_SuiteHandler::AEGP_SuiteHandler
	npad	1

; 34   : 	
; 35   : 	event_extra->evt_out_flags = 0;

	mov	rax, QWORD PTR event_extra$[rsp]
	mov	DWORD PTR [rax+204], 0

; 36   : 
; 37   : 	if(!(event_extra->evt_in_flags & PF_EI_DONT_DRAW) && params[CRYPTO_DATA]->u.arb_d.value != NULL)

	mov	rax, QWORD PTR event_extra$[rsp]
	mov	eax, DWORD PTR [rax+200]
	and	eax, 1
	test	eax, eax
	jne	$LN2@DrawEvent
	mov	rax, QWORD PTR params$[rsp]
	mov	rax, QWORD PTR [rax+8]
	cmp	QWORD PTR [rax+72], 0
	je	$LN2@DrawEvent

; 38   : 	{
; 39   : 		if(PF_EA_CONTROL == event_extra->effect_win.area)

	mov	rax, QWORD PTR event_extra$[rsp]
	cmp	DWORD PTR [rax+84], 2
	jne	$LN2@DrawEvent

; 40   : 		{
; 41   : 			CryptomatteArbitraryData *arb_data = (CryptomatteArbitraryData *)PF_LOCK_HANDLE(params[CRYPTO_DATA]->u.arb_d.value);

	mov	rcx, QWORD PTR params$[rsp]
	mov	rcx, QWORD PTR [rcx+8]
	mov	rax, QWORD PTR in_data$[rsp]
	mov	rax, QWORD PTR [rax+176]
	mov	rcx, QWORD PTR [rcx+72]
	call	QWORD PTR [rax+168]
	mov	QWORD PTR arb_data$126603[rsp], rax

; 42   : 			
; 43   : 			DrawbotBot bot(in_data->pica_basicP, event_extra->contextH, in_data->appl_id);

	mov	rax, QWORD PTR in_data$[rsp]
	mov	r9d, DWORD PTR [rax+204]
	mov	r8, QWORD PTR event_extra$[rsp]
	mov	r8, QWORD PTR [r8]
	mov	rdx, QWORD PTR in_data$[rsp]
	mov	rdx, QWORD PTR [rdx+384]
	lea	rcx, QWORD PTR bot$126606[rsp]
	call	??0DrawbotBot@@QEAA@PEAUSPBasicSuite@@PEAPEAUPF_Context@@J@Z ; DrawbotBot::DrawbotBot
	npad	1

; 44   : 			
; 45   :             const int panel_left = event_extra->effect_win.current_frame.left;

	mov	rax, QWORD PTR event_extra$[rsp]
	mov	eax, DWORD PTR [rax+88]
	mov	DWORD PTR panel_left$126607[rsp], eax

; 46   :             const int panel_top = event_extra->effect_win.current_frame.top;

	mov	rax, QWORD PTR event_extra$[rsp]
	mov	eax, DWORD PTR [rax+92]
	mov	DWORD PTR panel_top$126608[rsp], eax

; 47   :             const int panel_width = event_extra->effect_win.current_frame.right - panel_left;

	mov	rax, QWORD PTR event_extra$[rsp]
	mov	ecx, DWORD PTR panel_left$126607[rsp]
	mov	eax, DWORD PTR [rax+96]
	sub	eax, ecx
	mov	DWORD PTR panel_width$126609[rsp], eax

; 48   :             const int panel_height = event_extra->effect_win.current_frame.bottom - panel_top;

	mov	rax, QWORD PTR event_extra$[rsp]
	mov	ecx, DWORD PTR panel_top$126608[rsp]
	mov	eax, DWORD PTR [rax+100]
	sub	eax, ecx
	mov	DWORD PTR panel_height$126610[rsp], eax

; 49   : 			
; 50   : 			const float labelSpace = bot.FontSize() * 1.4;

	lea	rcx, QWORD PTR bot$126606[rsp]
	call	?FontSize@DrawbotBot@@QEBAMXZ		; DrawbotBot::FontSize
	unpcklps xmm0, xmm0
	cvtps2pd xmm0, xmm0
	mulsd	xmm0, QWORD PTR __real@3ff6666666666666
	cvtsd2ss xmm0, xmm0
	movss	DWORD PTR labelSpace$126611[rsp], xmm0

; 51   : 			const float itemSpace = bot.FontSize() * 2.0;

	lea	rcx, QWORD PTR bot$126606[rsp]
	call	?FontSize@DrawbotBot@@QEBAMXZ		; DrawbotBot::FontSize
	unpcklps xmm0, xmm0
	cvtps2pd xmm0, xmm0
	mulsd	xmm0, QWORD PTR __real@4000000000000000
	cvtsd2ss xmm0, xmm0
	movss	DWORD PTR itemSpace$126612[rsp], xmm0

; 52   : 			
; 53   : 			bot.SetColor(PF_App_Color_TEXT_DISABLED);

	movss	xmm2, DWORD PTR __real@3f800000
	mov	dx, 23
	lea	rcx, QWORD PTR bot$126606[rsp]
	call	?SetColor@DrawbotBot@@QEAAXFM@Z		; DrawbotBot::SetColor

; 54   : 			
; 55   : 			bot.MoveTo(panel_left, panel_top + bot.FontSize());

	movd	xmm6, DWORD PTR panel_top$126608[rsp]
	cvtdq2ps xmm6, xmm6
	lea	rcx, QWORD PTR bot$126606[rsp]
	call	?FontSize@DrawbotBot@@QEBAMXZ		; DrawbotBot::FontSize
	movaps	xmm2, xmm6
	addss	xmm2, xmm0
	movd	xmm1, DWORD PTR panel_left$126607[rsp]
	cvtdq2ps xmm1, xmm1
	lea	rcx, QWORD PTR bot$126606[rsp]
	call	?MoveTo@DrawbotBot@@QEAAXMM@Z		; DrawbotBot::MoveTo

; 56   : 			bot.DrawString("Layer:", kDRAWBOT_TextAlignment_Default, kDRAWBOT_TextTruncation_EndEllipsis, panel_width);

	movd	xmm5, DWORD PTR panel_width$126609[rsp]
	cvtdq2ps xmm5, xmm5
	movss	DWORD PTR [rsp+32], xmm5
	mov	r9d, 2
	xor	r8d, r8d
	lea	rdx, OFFSET FLAT:$SG126613
	lea	rcx, QWORD PTR bot$126606[rsp]
	call	?DrawString@DrawbotBot@@QEBAXPEBDHHM@Z	; DrawbotBot::DrawString

; 57   : 
; 58   : 			bot.Move(0, itemSpace);

	movss	xmm2, DWORD PTR itemSpace$126612[rsp]
	xorps	xmm1, xmm1
	lea	rcx, QWORD PTR bot$126606[rsp]
	call	?Move@DrawbotBot@@QEAAXMM@Z		; DrawbotBot::Move

; 59   : 			bot.DrawString("Selection:", kDRAWBOT_TextAlignment_Default, kDRAWBOT_TextTruncation_EndEllipsis, panel_width);

	movd	xmm5, DWORD PTR panel_width$126609[rsp]
	cvtdq2ps xmm5, xmm5
	movss	DWORD PTR [rsp+32], xmm5
	mov	r9d, 2
	xor	r8d, r8d
	lea	rdx, OFFSET FLAT:$SG126614
	lea	rcx, QWORD PTR bot$126606[rsp]
	call	?DrawString@DrawbotBot@@QEBAXPEBDHHM@Z	; DrawbotBot::DrawString

; 60   : 			
; 61   : 			bot.Move(0, itemSpace);

	movss	xmm2, DWORD PTR itemSpace$126612[rsp]
	xorps	xmm1, xmm1
	lea	rcx, QWORD PTR bot$126606[rsp]
	call	?Move@DrawbotBot@@QEAAXMM@Z		; DrawbotBot::Move

; 62   : 			bot.DrawString("Manifest:", kDRAWBOT_TextAlignment_Default, kDRAWBOT_TextTruncation_EndEllipsis, panel_width);

	movd	xmm5, DWORD PTR panel_width$126609[rsp]
	cvtdq2ps xmm5, xmm5
	movss	DWORD PTR [rsp+32], xmm5
	mov	r9d, 2
	xor	r8d, r8d
	lea	rdx, OFFSET FLAT:$SG126615
	lea	rcx, QWORD PTR bot$126606[rsp]
	call	?DrawString@DrawbotBot@@QEBAXPEBDHHM@Z	; DrawbotBot::DrawString

; 63   : 
; 64   : 			
; 65   : 			const float valuePos = (panel_left + (bot.FontSize() * 6));

	movd	xmm6, DWORD PTR panel_left$126607[rsp]
	cvtdq2ps xmm6, xmm6
	lea	rcx, QWORD PTR bot$126606[rsp]
	call	?FontSize@DrawbotBot@@QEBAMXZ		; DrawbotBot::FontSize
	movaps	xmm1, xmm0
	mulss	xmm1, DWORD PTR __real@40c00000
	movaps	xmm0, xmm6
	addss	xmm0, xmm1
	movss	DWORD PTR valuePos$126616[rsp], xmm0

; 66   : 			const float valueSpace = (event_extra->effect_win.current_frame.right - valuePos);

	mov	rax, QWORD PTR event_extra$[rsp]
	movd	xmm0, DWORD PTR [rax+96]
	cvtdq2ps xmm0, xmm0
	subss	xmm0, DWORD PTR valuePos$126616[rsp]
	movss	DWORD PTR valueSpace$126617[rsp], xmm0

; 67   : 			
; 68   : 			bot.SetColor(PF_App_Color_WHITE);

	movss	xmm2, DWORD PTR __real@3f800000
	mov	dx, 43					; 0000002bH
	lea	rcx, QWORD PTR bot$126606[rsp]
	call	?SetColor@DrawbotBot@@QEAAXFM@Z		; DrawbotBot::SetColor

; 69   : 			
; 70   : 			bot.MoveTo(valuePos, panel_top + bot.FontSize());

	movd	xmm6, DWORD PTR panel_top$126608[rsp]
	cvtdq2ps xmm6, xmm6
	lea	rcx, QWORD PTR bot$126606[rsp]
	call	?FontSize@DrawbotBot@@QEBAMXZ		; DrawbotBot::FontSize
	movaps	xmm2, xmm6
	addss	xmm2, xmm0
	movss	xmm1, DWORD PTR valuePos$126616[rsp]
	lea	rcx, QWORD PTR bot$126606[rsp]
	call	?MoveTo@DrawbotBot@@QEAAXMM@Z		; DrawbotBot::MoveTo

; 71   : 			bot.DrawString(GetLayer(arb_data), kDRAWBOT_TextAlignment_Default, kDRAWBOT_TextTruncation_EndEllipsis, valueSpace);

	mov	rcx, QWORD PTR arb_data$126603[rsp]
	call	GetLayer
	movss	xmm0, DWORD PTR valueSpace$126617[rsp]
	movss	DWORD PTR [rsp+32], xmm0
	mov	r9d, 2
	xor	r8d, r8d
	mov	rdx, rax
	lea	rcx, QWORD PTR bot$126606[rsp]
	call	?DrawString@DrawbotBot@@QEBAXPEBDHHM@Z	; DrawbotBot::DrawString

; 72   : 
; 73   : 			bot.Move(0, itemSpace);

	movss	xmm2, DWORD PTR itemSpace$126612[rsp]
	xorps	xmm1, xmm1
	lea	rcx, QWORD PTR bot$126606[rsp]
	call	?Move@DrawbotBot@@QEAAXMM@Z		; DrawbotBot::Move

; 74   : 			bot.DrawString(GetSelection(arb_data), kDRAWBOT_TextAlignment_Default, kDRAWBOT_TextTruncation_EndEllipsis, valueSpace);

	mov	rcx, QWORD PTR arb_data$126603[rsp]
	call	GetSelection
	movss	xmm0, DWORD PTR valueSpace$126617[rsp]
	movss	DWORD PTR [rsp+32], xmm0
	mov	r9d, 2
	xor	r8d, r8d
	mov	rdx, rax
	lea	rcx, QWORD PTR bot$126606[rsp]
	call	?DrawString@DrawbotBot@@QEBAXPEBDHHM@Z	; DrawbotBot::DrawString

; 75   : 
; 76   : 			bot.Move(0, itemSpace);

	movss	xmm2, DWORD PTR itemSpace$126612[rsp]
	xorps	xmm1, xmm1
	lea	rcx, QWORD PTR bot$126606[rsp]
	call	?Move@DrawbotBot@@QEAAXMM@Z		; DrawbotBot::Move

; 77   : 			bot.SetColor(PF_App_Color_GRAY);

	movss	xmm2, DWORD PTR __real@3f800000
	mov	dx, 44					; 0000002cH
	lea	rcx, QWORD PTR bot$126606[rsp]
	call	?SetColor@DrawbotBot@@QEAAXFM@Z		; DrawbotBot::SetColor

; 78   : 			bot.DrawString(GetManifest(arb_data), kDRAWBOT_TextAlignment_Default, kDRAWBOT_TextTruncation_EndEllipsis, valueSpace);

	mov	rcx, QWORD PTR arb_data$126603[rsp]
	call	GetManifest
	movss	xmm0, DWORD PTR valueSpace$126617[rsp]
	movss	DWORD PTR [rsp+32], xmm0
	mov	r9d, 2
	xor	r8d, r8d
	mov	rdx, rax
	lea	rcx, QWORD PTR bot$126606[rsp]
	call	?DrawString@DrawbotBot@@QEBAXPEBDHHM@Z	; DrawbotBot::DrawString

; 79   : 
; 80   : 
; 81   : 			event_extra->evt_out_flags = PF_EO_HANDLED_EVENT;

	mov	r11, QWORD PTR event_extra$[rsp]
	mov	DWORD PTR [r11+204], 1

; 82   : 
; 83   : 			PF_UNLOCK_HANDLE(params[CRYPTO_DATA]->u.arb_d.value);

	mov	rcx, QWORD PTR params$[rsp]
	mov	rcx, QWORD PTR [rcx+8]
	mov	rax, QWORD PTR in_data$[rsp]
	mov	rax, QWORD PTR [rax+176]
	mov	rcx, QWORD PTR [rcx+72]
	call	QWORD PTR [rax+176]
	npad	1

; 84   : 		}

	lea	rcx, QWORD PTR bot$126606[rsp]
	call	??1DrawbotBot@@QEAA@XZ			; DrawbotBot::~DrawbotBot
$LN2@DrawEvent:

; 85   : 	}
; 86   : 
; 87   : 	return err;

	mov	eax, DWORD PTR err$[rsp]
	mov	DWORD PTR $T135265[rsp], eax
	lea	rcx, QWORD PTR suites$[rsp]
	call	??1AEGP_SuiteHandler@@QEAA@XZ		; AEGP_SuiteHandler::~AEGP_SuiteHandler
	mov	eax, DWORD PTR $T135265[rsp]

; 88   : }

	movaps	xmm6, XMMWORD PTR [rsp+1024]
	add	rsp, 1048				; 00000418H
	ret	0
?DrawEvent@@YAJPEAUPF_InData@@PEAUPF_OutData@@QEAPEAUPF_ParamDef@@PEAUPF_LayerDef@@PEAUPF_EventExtra@@@Z ENDP ; DrawEvent
; Function compile flags: /Odtp
_TEXT	ENDS
text$x	SEGMENT
suites$ = 48
err$ = 464
valueSpace$126617 = 468
labelSpace$126611 = 472
panel_left$126607 = 476
valuePos$126616 = 480
panel_width$126609 = 484
arb_data$126603 = 488
panel_top$126608 = 496
bot$126606 = 512
panel_height$126610 = 992
itemSpace$126612 = 996
$T135265 = 1000
$T135284 = 1008
in_data$ = 1056
out_data$ = 1064
params$ = 1072
output$ = 1080
event_extra$ = 1088
?dtor$0@?0??DrawEvent@@YAJPEAUPF_InData@@PEAUPF_OutData@@QEAPEAUPF_ParamDef@@PEAUPF_LayerDef@@PEAUPF_EventExtra@@@Z@4HA PROC ; `DrawEvent'::`1'::dtor$0
	push	rbp
	sub	rsp, 32					; 00000020H
	mov	rbp, rdx
	lea	rcx, QWORD PTR suites$[rbp]
	call	??1AEGP_SuiteHandler@@QEAA@XZ		; AEGP_SuiteHandler::~AEGP_SuiteHandler
	add	rsp, 32					; 00000020H
	pop	rbp
	ret	0
?dtor$0@?0??DrawEvent@@YAJPEAUPF_InData@@PEAUPF_OutData@@QEAPEAUPF_ParamDef@@PEAUPF_LayerDef@@PEAUPF_EventExtra@@@Z@4HA ENDP ; `DrawEvent'::`1'::dtor$0
; Function compile flags: /Odtp
suites$ = 48
err$ = 464
valueSpace$126617 = 468
labelSpace$126611 = 472
panel_left$126607 = 476
valuePos$126616 = 480
panel_width$126609 = 484
arb_data$126603 = 488
panel_top$126608 = 496
bot$126606 = 512
panel_height$126610 = 992
itemSpace$126612 = 996
$T135265 = 1000
$T135284 = 1008
in_data$ = 1056
out_data$ = 1064
params$ = 1072
output$ = 1080
event_extra$ = 1088
?dtor$1@?0??DrawEvent@@YAJPEAUPF_InData@@PEAUPF_OutData@@QEAPEAUPF_ParamDef@@PEAUPF_LayerDef@@PEAUPF_EventExtra@@@Z@4HA PROC ; `DrawEvent'::`1'::dtor$1
	push	rbp
	sub	rsp, 32					; 00000020H
	mov	rbp, rdx
	lea	rcx, QWORD PTR bot$126606[rbp]
	call	??1DrawbotBot@@QEAA@XZ			; DrawbotBot::~DrawbotBot
	add	rsp, 32					; 00000020H
	pop	rbp
	ret	0
?dtor$1@?0??DrawEvent@@YAJPEAUPF_InData@@PEAUPF_OutData@@QEAPEAUPF_ParamDef@@PEAUPF_LayerDef@@PEAUPF_EventExtra@@@Z@4HA ENDP ; `DrawEvent'::`1'::dtor$1
; Function compile flags: /Odtp
; File c:\users\brendan bolles\documents\development\proexr\src\aftereffects\drawbotbot.h
text$x	ENDS
;	COMDAT ?MoveTo@DrawbotBot@@QEAAXMM@Z
_TEXT	SEGMENT
this$ = 8
x$ = 16
y$ = 24
?MoveTo@DrawbotBot@@QEAAXMM@Z PROC			; DrawbotBot::MoveTo, COMDAT

; 44   :     void MoveTo(float x, float y) { _brush_pos.x = x; _brush_pos.y = y; }

	movss	DWORD PTR [rsp+24], xmm2
	movss	DWORD PTR [rsp+16], xmm1
	mov	QWORD PTR [rsp+8], rcx
	mov	rax, QWORD PTR this$[rsp]
	movss	xmm0, DWORD PTR x$[rsp]
	movss	DWORD PTR [rax+452], xmm0
	mov	rax, QWORD PTR this$[rsp]
	movss	xmm0, DWORD PTR y$[rsp]
	movss	DWORD PTR [rax+456], xmm0
	ret	0
?MoveTo@DrawbotBot@@QEAAXMM@Z ENDP			; DrawbotBot::MoveTo
; Function compile flags: /Odtp
_TEXT	ENDS
;	COMDAT ?Move@DrawbotBot@@QEAAXMM@Z
_TEXT	SEGMENT
this$ = 8
x$ = 16
y$ = 24
?Move@DrawbotBot@@QEAAXMM@Z PROC			; DrawbotBot::Move, COMDAT

; 45   :     void Move(float x = 0, float y = 0) { _brush_pos.x += x; _brush_pos.y += y; }

	movss	DWORD PTR [rsp+24], xmm2
	movss	DWORD PTR [rsp+16], xmm1
	mov	QWORD PTR [rsp+8], rcx
	mov	rax, QWORD PTR this$[rsp]
	movss	xmm0, DWORD PTR [rax+452]
	addss	xmm0, DWORD PTR x$[rsp]
	mov	rax, QWORD PTR this$[rsp]
	movss	DWORD PTR [rax+452], xmm0
	mov	rax, QWORD PTR this$[rsp]
	movss	xmm0, DWORD PTR [rax+456]
	addss	xmm0, DWORD PTR y$[rsp]
	mov	rax, QWORD PTR this$[rsp]
	movss	DWORD PTR [rax+456], xmm0
	ret	0
?Move@DrawbotBot@@QEAAXMM@Z ENDP			; DrawbotBot::Move
; Function compile flags: /Odtp
_TEXT	ENDS
;	COMDAT ?FontSize@DrawbotBot@@QEBAMXZ
_TEXT	SEGMENT
this$ = 8
?FontSize@DrawbotBot@@QEBAMXZ PROC			; DrawbotBot::FontSize, COMDAT

; 54   :     float FontSize() const { return _font_size; }

	mov	QWORD PTR [rsp+8], rcx
	mov	rax, QWORD PTR this$[rsp]
	movss	xmm0, DWORD PTR [rax+476]
	ret	0
?FontSize@DrawbotBot@@QEBAMXZ ENDP			; DrawbotBot::FontSize
_TEXT	ENDS
PUBLIC	?AdvAppSuite@AEGP_SuiteHandler@@QEBAPEAUPF_AdvAppSuite1@@XZ ; AEGP_SuiteHandler::AdvAppSuite
PUBLIC	??1?$vector@V?$basic_string@DU?$char_traits@D@std@@V?$allocator@D@2@@std@@V?$allocator@V?$basic_string@DU?$char_traits@D@std@@V?$allocator@D@2@@std@@@2@@std@@QEAA@XZ ; std::vector<std::basic_string<char,std::char_traits<char>,std::allocator<char> >,std::allocator<std::basic_string<char,std::char_traits<char>,std::allocator<char> > > >::~vector<std::basic_string<char,std::char_traits<char>,std::allocator<char> >,std::allocator<std::basic_string<char,std::char_traits<char>,std::allocator<char> > > >
PUBLIC	?erase@?$_Tree@V?$_Tset_traits@V?$basic_string@DU?$char_traits@D@std@@V?$allocator@D@2@@std@@U?$less@V?$basic_string@DU?$char_traits@D@std@@V?$allocator@D@2@@std@@@2@V?$allocator@V?$basic_string@DU?$char_traits@D@std@@V?$allocator@D@2@@std@@@2@$0A@@std@@@std@@QEAA?AViterator@12@Vconst_iterator@12@@Z ; std::_Tree<std::_Tset_traits<std::basic_string<char,std::char_traits<char>,std::allocator<char> >,std::less<std::basic_string<char,std::char_traits<char>,std::allocator<char> > >,std::allocator<std::basic_string<char,std::char_traits<char>,std::allocator<char> > >,0> >::erase
PUBLIC	??1const_iterator@?$_Tree@V?$_Tset_traits@V?$basic_string@DU?$char_traits@D@std@@V?$allocator@D@2@@std@@U?$less@V?$basic_string@DU?$char_traits@D@std@@V?$allocator@D@2@@std@@@2@V?$allocator@V?$basic_string@DU?$char_traits@D@std@@V?$allocator@D@2@@std@@@2@$0A@@std@@@std@@QEAA@XZ ; std::_Tree<std::_Tset_traits<std::basic_string<char,std::char_traits<char>,std::allocator<char> >,std::less<std::basic_string<char,std::char_traits<char>,std::allocator<char> > >,std::allocator<std::basic_string<char,std::char_traits<char>,std::allocator<char> > >,0> >::const_iterator::~const_iterator
PUBLIC	??Dconst_iterator@?$_Tree@V?$_Tset_traits@V?$basic_string@DU?$char_traits@D@std@@V?$allocator@D@2@@std@@U?$less@V?$basic_string@DU?$char_traits@D@std@@V?$allocator@D@2@@std@@@2@V?$allocator@V?$basic_string@DU?$char_traits@D@std@@V?$allocator@D@2@@std@@@2@$0A@@std@@@std@@QEBAAEBV?$basic_string@DU?$char_traits@D@std@@V?$allocator@D@2@@2@XZ ; std::_Tree<std::_Tset_traits<std::basic_string<char,std::char_traits<char>,std::allocator<char> >,std::less<std::basic_string<char,std::char_traits<char>,std::allocator<char> > >,std::allocator<std::basic_string<char,std::char_traits<char>,std::allocator<char> > >,0> >::const_iterator::operator*
PUBLIC	??Econst_iterator@?$_Tree@V?$_Tset_traits@V?$basic_string@DU?$char_traits@D@std@@V?$allocator@D@2@@std@@U?$less@V?$basic_string@DU?$char_traits@D@std@@V?$allocator@D@2@@std@@@2@V?$allocator@V?$basic_string@DU?$char_traits@D@std@@V?$allocator@D@2@@std@@@2@$0A@@std@@@std@@QEAAAEAV012@XZ ; std::_Tree<std::_Tset_traits<std::basic_string<char,std::char_traits<char>,std::allocator<char> >,std::less<std::basic_string<char,std::char_traits<char>,std::allocator<char> > >,std::allocator<std::basic_string<char,std::char_traits<char>,std::allocator<char> > >,0> >::const_iterator::operator++
PUBLIC	??0const_iterator@?$_Tree@V?$_Tset_traits@V?$basic_string@DU?$char_traits@D@std@@V?$allocator@D@2@@std@@U?$less@V?$basic_string@DU?$char_traits@D@std@@V?$allocator@D@2@@std@@@2@V?$allocator@V?$basic_string@DU?$char_traits@D@std@@V?$allocator@D@2@@std@@@2@$0A@@std@@@std@@QEAA@AEBV012@@Z ; std::_Tree<std::_Tset_traits<std::basic_string<char,std::char_traits<char>,std::allocator<char> >,std::less<std::basic_string<char,std::char_traits<char>,std::allocator<char> > >,std::allocator<std::basic_string<char,std::char_traits<char>,std::allocator<char> > >,0> >::const_iterator::const_iterator
PUBLIC	??1?$_Vector_const_iterator@V?$basic_string@DU?$char_traits@D@std@@V?$allocator@D@2@@std@@V?$allocator@V?$basic_string@DU?$char_traits@D@std@@V?$allocator@D@2@@std@@@2@@std@@QEAA@XZ ; std::_Vector_const_iterator<std::basic_string<char,std::char_traits<char>,std::allocator<char> >,std::allocator<std::basic_string<char,std::char_traits<char>,std::allocator<char> > > >::~_Vector_const_iterator<std::basic_string<char,std::char_traits<char>,std::allocator<char> >,std::allocator<std::basic_string<char,std::char_traits<char>,std::allocator<char> > > >
PUBLIC	??D?$_Vector_const_iterator@V?$basic_string@DU?$char_traits@D@std@@V?$allocator@D@2@@std@@V?$allocator@V?$basic_string@DU?$char_traits@D@std@@V?$allocator@D@2@@std@@@2@@std@@QEBAAEBV?$basic_string@DU?$char_traits@D@std@@V?$allocator@D@2@@1@XZ ; std::_Vector_const_iterator<std::basic_string<char,std::char_traits<char>,std::allocator<char> >,std::allocator<std::basic_string<char,std::char_traits<char>,std::allocator<char> > > >::operator*
PUBLIC	??9?$_Vector_const_iterator@V?$basic_string@DU?$char_traits@D@std@@V?$allocator@D@2@@std@@V?$allocator@V?$basic_string@DU?$char_traits@D@std@@V?$allocator@D@2@@std@@@2@@std@@QEBA_NAEBV01@@Z ; std::_Vector_const_iterator<std::basic_string<char,std::char_traits<char>,std::allocator<char> >,std::allocator<std::basic_string<char,std::char_traits<char>,std::allocator<char> > > >::operator!=
PUBLIC	?end@?$vector@V?$basic_string@DU?$char_traits@D@std@@V?$allocator@D@2@@std@@V?$allocator@V?$basic_string@DU?$char_traits@D@std@@V?$allocator@D@2@@std@@@2@@std@@QEAA?AV?$_Vector_iterator@V?$basic_string@DU?$char_traits@D@std@@V?$allocator@D@2@@std@@V?$allocator@V?$basic_string@DU?$char_traits@D@std@@V?$allocator@D@2@@std@@@2@@2@XZ ; std::vector<std::basic_string<char,std::char_traits<char>,std::allocator<char> >,std::allocator<std::basic_string<char,std::char_traits<char>,std::allocator<char> > > >::end
PUBLIC	??E?$_Vector_const_iterator@V?$basic_string@DU?$char_traits@D@std@@V?$allocator@D@2@@std@@V?$allocator@V?$basic_string@DU?$char_traits@D@std@@V?$allocator@D@2@@std@@@2@@std@@QEAAAEAV01@XZ ; std::_Vector_const_iterator<std::basic_string<char,std::char_traits<char>,std::allocator<char> >,std::allocator<std::basic_string<char,std::char_traits<char>,std::allocator<char> > > >::operator++
PUBLIC	??1?$_Vector_iterator@V?$basic_string@DU?$char_traits@D@std@@V?$allocator@D@2@@std@@V?$allocator@V?$basic_string@DU?$char_traits@D@std@@V?$allocator@D@2@@std@@@2@@std@@QEAA@XZ ; std::_Vector_iterator<std::basic_string<char,std::char_traits<char>,std::allocator<char> >,std::allocator<std::basic_string<char,std::char_traits<char>,std::allocator<char> > > >::~_Vector_iterator<std::basic_string<char,std::char_traits<char>,std::allocator<char> >,std::allocator<std::basic_string<char,std::char_traits<char>,std::allocator<char> > > >
PUBLIC	??0?$_Vector_const_iterator@V?$basic_string@DU?$char_traits@D@std@@V?$allocator@D@2@@std@@V?$allocator@V?$basic_string@DU?$char_traits@D@std@@V?$allocator@D@2@@std@@@2@@std@@QEAA@AEBV01@@Z ; std::_Vector_const_iterator<std::basic_string<char,std::char_traits<char>,std::allocator<char> >,std::allocator<std::basic_string<char,std::char_traits<char>,std::allocator<char> > > >::_Vector_const_iterator<std::basic_string<char,std::char_traits<char>,std::allocator<char> >,std::allocator<std::basic_string<char,std::char_traits<char>,std::allocator<char> > > >
PUBLIC	?begin@?$vector@V?$basic_string@DU?$char_traits@D@std@@V?$allocator@D@2@@std@@V?$allocator@V?$basic_string@DU?$char_traits@D@std@@V?$allocator@D@2@@std@@@2@@std@@QEAA?AV?$_Vector_iterator@V?$basic_string@DU?$char_traits@D@std@@V?$allocator@D@2@@std@@V?$allocator@V?$basic_string@DU?$char_traits@D@std@@V?$allocator@D@2@@std@@@2@@2@XZ ; std::vector<std::basic_string<char,std::char_traits<char>,std::allocator<char> >,std::allocator<std::basic_string<char,std::char_traits<char>,std::allocator<char> > > >::begin
PUBLIC	??0?$vector@V?$basic_string@DU?$char_traits@D@std@@V?$allocator@D@2@@std@@V?$allocator@V?$basic_string@DU?$char_traits@D@std@@V?$allocator@D@2@@std@@@2@@std@@QEAA@XZ ; std::vector<std::basic_string<char,std::char_traits<char>,std::allocator<char> >,std::allocator<std::basic_string<char,std::char_traits<char>,std::allocator<char> > > >::vector<std::basic_string<char,std::char_traits<char>,std::allocator<char> >,std::allocator<std::basic_string<char,std::char_traits<char>,std::allocator<char> > > >
PUBLIC	??1?$pair@Viterator@?$_Tree@V?$_Tset_traits@V?$basic_string@DU?$char_traits@D@std@@V?$allocator@D@2@@std@@U?$less@V?$basic_string@DU?$char_traits@D@std@@V?$allocator@D@2@@std@@@2@V?$allocator@V?$basic_string@DU?$char_traits@D@std@@V?$allocator@D@2@@std@@@2@$0A@@std@@@std@@_N@std@@QEAA@XZ ; std::pair<std::_Tree<std::_Tset_traits<std::basic_string<char,std::char_traits<char>,std::allocator<char> >,std::less<std::basic_string<char,std::char_traits<char>,std::allocator<char> > >,std::allocator<std::basic_string<char,std::char_traits<char>,std::allocator<char> > >,0> >::iterator,bool>::~pair<std::_Tree<std::_Tset_traits<std::basic_string<char,std::char_traits<char>,std::allocator<char> >,std::less<std::basic_string<char,std::char_traits<char>,std::allocator<char> > >,std::allocator<std::basic_string<char,std::char_traits<char>,std::allocator<char> > >,0> >::iterator,bool>
PUBLIC	?insert@?$_Tree@V?$_Tset_traits@V?$basic_string@DU?$char_traits@D@std@@V?$allocator@D@2@@std@@U?$less@V?$basic_string@DU?$char_traits@D@std@@V?$allocator@D@2@@std@@@2@V?$allocator@V?$basic_string@DU?$char_traits@D@std@@V?$allocator@D@2@@std@@@2@$0A@@std@@@std@@QEAA?AU?$pair@Viterator@?$_Tree@V?$_Tset_traits@V?$basic_string@DU?$char_traits@D@std@@V?$allocator@D@2@@std@@U?$less@V?$basic_string@DU?$char_traits@D@std@@V?$allocator@D@2@@std@@@2@V?$allocator@V?$basic_string@DU?$char_traits@D@std@@V?$allocator@D@2@@std@@@2@$0A@@std@@@std@@_N@2@AEBV?$basic_string@DU?$char_traits@D@std@@V?$allocator@D@2@@2@@Z ; std::_Tree<std::_Tset_traits<std::basic_string<char,std::char_traits<char>,std::allocator<char> >,std::less<std::basic_string<char,std::char_traits<char>,std::allocator<char> > >,std::allocator<std::basic_string<char,std::char_traits<char>,std::allocator<char> > >,0> >::insert
PUBLIC	??Diterator@?$_Tree@V?$_Tset_traits@V?$basic_string@DU?$char_traits@D@std@@V?$allocator@D@2@@std@@U?$less@V?$basic_string@DU?$char_traits@D@std@@V?$allocator@D@2@@std@@@2@V?$allocator@V?$basic_string@DU?$char_traits@D@std@@V?$allocator@D@2@@std@@@2@$0A@@std@@@std@@QEBAAEAV?$basic_string@DU?$char_traits@D@std@@V?$allocator@D@2@@2@XZ ; std::_Tree<std::_Tset_traits<std::basic_string<char,std::char_traits<char>,std::allocator<char> >,std::less<std::basic_string<char,std::char_traits<char>,std::allocator<char> > >,std::allocator<std::basic_string<char,std::char_traits<char>,std::allocator<char> > >,0> >::iterator::operator*
PUBLIC	??1iterator@?$_Tree@V?$_Tset_traits@V?$basic_string@DU?$char_traits@D@std@@V?$allocator@D@2@@std@@U?$less@V?$basic_string@DU?$char_traits@D@std@@V?$allocator@D@2@@std@@@2@V?$allocator@V?$basic_string@DU?$char_traits@D@std@@V?$allocator@D@2@@std@@@2@$0A@@std@@@std@@QEAA@XZ ; std::_Tree<std::_Tset_traits<std::basic_string<char,std::char_traits<char>,std::allocator<char> >,std::less<std::basic_string<char,std::char_traits<char>,std::allocator<char> > >,std::allocator<std::basic_string<char,std::char_traits<char>,std::allocator<char> > >,0> >::iterator::~iterator
PUBLIC	??9const_iterator@?$_Tree@V?$_Tset_traits@V?$basic_string@DU?$char_traits@D@std@@V?$allocator@D@2@@std@@U?$less@V?$basic_string@DU?$char_traits@D@std@@V?$allocator@D@2@@std@@@2@V?$allocator@V?$basic_string@DU?$char_traits@D@std@@V?$allocator@D@2@@std@@@2@$0A@@std@@@std@@QEBA_NAEBV012@@Z ; std::_Tree<std::_Tset_traits<std::basic_string<char,std::char_traits<char>,std::allocator<char> >,std::less<std::basic_string<char,std::char_traits<char>,std::allocator<char> > >,std::allocator<std::basic_string<char,std::char_traits<char>,std::allocator<char> > >,0> >::const_iterator::operator!=
PUBLIC	?end@?$_Tree@V?$_Tset_traits@V?$basic_string@DU?$char_traits@D@std@@V?$allocator@D@2@@std@@U?$less@V?$basic_string@DU?$char_traits@D@std@@V?$allocator@D@2@@std@@@2@V?$allocator@V?$basic_string@DU?$char_traits@D@std@@V?$allocator@D@2@@std@@@2@$0A@@std@@@std@@QEAA?AViterator@12@XZ ; std::_Tree<std::_Tset_traits<std::basic_string<char,std::char_traits<char>,std::allocator<char> >,std::less<std::basic_string<char,std::char_traits<char>,std::allocator<char> > >,std::allocator<std::basic_string<char,std::char_traits<char>,std::allocator<char> > >,0> >::end
PUBLIC	??Eiterator@?$_Tree@V?$_Tset_traits@V?$basic_string@DU?$char_traits@D@std@@V?$allocator@D@2@@std@@U?$less@V?$basic_string@DU?$char_traits@D@std@@V?$allocator@D@2@@std@@@2@V?$allocator@V?$basic_string@DU?$char_traits@D@std@@V?$allocator@D@2@@std@@@2@$0A@@std@@@std@@QEAAAEAV012@XZ ; std::_Tree<std::_Tset_traits<std::basic_string<char,std::char_traits<char>,std::allocator<char> >,std::less<std::basic_string<char,std::char_traits<char>,std::allocator<char> > >,std::allocator<std::basic_string<char,std::char_traits<char>,std::allocator<char> > >,0> >::iterator::operator++
PUBLIC	?begin@?$_Tree@V?$_Tset_traits@V?$basic_string@DU?$char_traits@D@std@@V?$allocator@D@2@@std@@U?$less@V?$basic_string@DU?$char_traits@D@std@@V?$allocator@D@2@@std@@@2@V?$allocator@V?$basic_string@DU?$char_traits@D@std@@V?$allocator@D@2@@std@@@2@$0A@@std@@@std@@QEAA?AViterator@12@XZ ; std::_Tree<std::_Tset_traits<std::basic_string<char,std::char_traits<char>,std::allocator<char> >,std::less<std::basic_string<char,std::char_traits<char>,std::allocator<char> > >,std::allocator<std::basic_string<char,std::char_traits<char>,std::allocator<char> > >,0> >::begin
PUBLIC	?size@?$_Tree@V?$_Tset_traits@V?$basic_string@DU?$char_traits@D@std@@V?$allocator@D@2@@std@@U?$less@V?$basic_string@DU?$char_traits@D@std@@V?$allocator@D@2@@std@@@2@V?$allocator@V?$basic_string@DU?$char_traits@D@std@@V?$allocator@D@2@@std@@@2@$0A@@std@@@std@@QEBA_KXZ ; std::_Tree<std::_Tset_traits<std::basic_string<char,std::char_traits<char>,std::allocator<char> >,std::less<std::basic_string<char,std::char_traits<char>,std::allocator<char> > >,std::allocator<std::basic_string<char,std::char_traits<char>,std::allocator<char> > >,0> >::size
PUBLIC	??0_Has_debug_it@?$basic_string@DU?$char_traits@D@std@@V?$allocator@D@2@@std@@QEAA@_N@Z ; std::basic_string<char,std::char_traits<char>,std::allocator<char> >::_Has_debug_it::_Has_debug_it
PUBLIC	?EffectSuite@AEGP_SuiteHandler@@QEBAPEAUAEGP_EffectSuite3@@XZ ; AEGP_SuiteHandler::EffectSuite
PUBLIC	??1?$set@V?$basic_string@DU?$char_traits@D@std@@V?$allocator@D@2@@std@@U?$less@V?$basic_string@DU?$char_traits@D@std@@V?$allocator@D@2@@std@@@2@V?$allocator@V?$basic_string@DU?$char_traits@D@std@@V?$allocator@D@2@@std@@@2@@std@@QEAA@XZ ; std::set<std::basic_string<char,std::char_traits<char>,std::allocator<char> >,std::less<std::basic_string<char,std::char_traits<char>,std::allocator<char> > >,std::allocator<std::basic_string<char,std::char_traits<char>,std::allocator<char> > > >::~set<std::basic_string<char,std::char_traits<char>,std::allocator<char> >,std::less<std::basic_string<char,std::char_traits<char>,std::allocator<char> > >,std::allocator<std::basic_string<char,std::char_traits<char>,std::allocator<char> > > >
PUBLIC	??4?$set@V?$basic_string@DU?$char_traits@D@std@@V?$allocator@D@2@@std@@U?$less@V?$basic_string@DU?$char_traits@D@std@@V?$allocator@D@2@@std@@@2@V?$allocator@V?$basic_string@DU?$char_traits@D@std@@V?$allocator@D@2@@std@@@2@@std@@QEAAAEAV01@AEBV01@@Z ; std::set<std::basic_string<char,std::char_traits<char>,std::allocator<char> >,std::less<std::basic_string<char,std::char_traits<char>,std::allocator<char> > >,std::allocator<std::basic_string<char,std::char_traits<char>,std::allocator<char> > > >::operator=
PUBLIC	?PFWorldSuite@AEGP_SuiteHandler@@QEBAPEAUPF_WorldSuite2@@XZ ; AEGP_SuiteHandler::PFWorldSuite
PUBLIC	?AEGPWorldSuite@AEGP_SuiteHandler@@QEBAPEAUAEGP_WorldSuite3@@XZ ; AEGP_SuiteHandler::AEGPWorldSuite
PUBLIC	?RenderSuite5@AEGP_SuiteHandler@@QEBAPEAUAEGP_RenderSuite5@@XZ ; AEGP_SuiteHandler::RenderSuite5
PUBLIC	__real@3ff0000000000000
PUBLIC	?LayerRenderOptionsSuite@AEGP_SuiteHandler@@QEBAPEAUAEGP_LayerRenderOptionsSuite2@@XZ ; AEGP_SuiteHandler::LayerRenderOptionsSuite
PUBLIC	?StreamSuite@AEGP_SuiteHandler@@QEBAPEAUAEGP_StreamSuite3@@XZ ; AEGP_SuiteHandler::StreamSuite
PUBLIC	?PFInterfaceSuite@AEGP_SuiteHandler@@QEBAPEAUAEGP_PFInterfaceSuite1@@XZ ; AEGP_SuiteHandler::PFInterfaceSuite
PUBLIC	??0?$set@V?$basic_string@DU?$char_traits@D@std@@V?$allocator@D@2@@std@@U?$less@V?$basic_string@DU?$char_traits@D@std@@V?$allocator@D@2@@std@@@2@V?$allocator@V?$basic_string@DU?$char_traits@D@std@@V?$allocator@D@2@@std@@@2@@std@@QEAA@XZ ; std::set<std::basic_string<char,std::char_traits<char>,std::allocator<char> >,std::less<std::basic_string<char,std::char_traits<char>,std::allocator<char> > >,std::allocator<std::basic_string<char,std::char_traits<char>,std::allocator<char> > > >::set<std::basic_string<char,std::char_traits<char>,std::allocator<char> >,std::less<std::basic_string<char,std::char_traits<char>,std::allocator<char> > >,std::allocator<std::basic_string<char,std::char_traits<char>,std::allocator<char> > > >
PUBLIC	__$ArrayPad$
EXTRN	__GSHandlerCheck_EH:PROC
EXTRN	??3@YAXPEAX@Z:PROC				; operator delete
EXTRN	__imp_?c_str@?$basic_string@DU?$char_traits@D@std@@V?$allocator@D@2@@std@@QEBAPEBDXZ:PROC
EXTRN	SetArbSelection:PROC
EXTRN	__imp_?empty@?$basic_string@DU?$char_traits@D@std@@V?$allocator@D@2@@std@@QEBA_NXZ:PROC
EXTRN	?deQuote@CryptomatteContext@@SA?AV?$basic_string@DU?$char_traits@D@std@@V?$allocator@D@2@@std@@AEBV23@@Z:PROC ; CryptomatteContext::deQuote
EXTRN	__imp_??$?8DU?$char_traits@D@std@@V?$allocator@D@1@@std@@YA_NAEBV?$basic_string@DU?$char_traits@D@std@@V?$allocator@D@2@@0@0@Z:PROC
EXTRN	?quotedTokenize@CryptomatteContext@@SAXAEBV?$basic_string@DU?$char_traits@D@std@@V?$allocator@D@2@@std@@AEAV?$vector@V?$basic_string@DU?$char_traits@D@std@@V?$allocator@D@2@@std@@V?$allocator@V?$basic_string@DU?$char_traits@D@std@@V?$allocator@D@2@@std@@@2@@3@0@Z:PROC ; CryptomatteContext::quotedTokenize
EXTRN	__imp_??0?$basic_string@DU?$char_traits@D@std@@V?$allocator@D@2@@std@@QEAA@PEBD@Z:PROC
EXTRN	__imp_??1?$basic_string@DU?$char_traits@D@std@@V?$allocator@D@2@@std@@QEAA@XZ:PROC
EXTRN	__imp_??4?$basic_string@DU?$char_traits@D@std@@V?$allocator@D@2@@std@@QEAAAEAV01@AEBV01@@Z:PROC
EXTRN	__imp_??$?HDU?$char_traits@D@std@@V?$allocator@D@1@@std@@YA?AV?$basic_string@DU?$char_traits@D@std@@V?$allocator@D@2@@0@AEBV10@PEBD@Z:PROC
EXTRN	__imp_??$?HDU?$char_traits@D@std@@V?$allocator@D@1@@std@@YA?AV?$basic_string@DU?$char_traits@D@std@@V?$allocator@D@2@@0@PEBDAEBV10@@Z:PROC
EXTRN	__imp_?npos@?$basic_string@DU?$char_traits@D@std@@V?$allocator@D@2@@std@@2_KB:QWORD
EXTRN	__imp_?find@?$basic_string@DU?$char_traits@D@std@@V?$allocator@D@2@@std@@QEBA_KPEBD_K@Z:PROC
EXTRN	__imp_??Y?$basic_string@DU?$char_traits@D@std@@V?$allocator@D@2@@std@@QEAAAEAV01@AEBV01@@Z:PROC
EXTRN	__imp_??Y?$basic_string@DU?$char_traits@D@std@@V?$allocator@D@2@@std@@QEAAAEAV01@PEBD@Z:PROC
EXTRN	__imp_??0?$basic_string@DU?$char_traits@D@std@@V?$allocator@D@2@@std@@QEAA@AEBV01@@Z:PROC
EXTRN	__imp_??4?$basic_string@DU?$char_traits@D@std@@V?$allocator@D@2@@std@@QEAAAEAV01@PEBD@Z:PROC
EXTRN	__imp_??0?$basic_string@DU?$char_traits@D@std@@V?$allocator@D@2@@std@@QEAA@U_Has_debug_it@01@@Z:PROC
EXTRN	?GetItemsFromSelectionColor@CryptomatteContext@@QEBA?AV?$set@V?$basic_string@DU?$char_traits@D@std@@V?$allocator@D@2@@std@@U?$less@V?$basic_string@DU?$char_traits@D@std@@V?$allocator@D@2@@std@@@2@V?$allocator@V?$basic_string@DU?$char_traits@D@std@@V?$allocator@D@2@@std@@@2@@std@@AEBUPF_PixelFloat@@@Z:PROC ; CryptomatteContext::GetItemsFromSelectionColor
EXTRN	__imp__wassert:PROC
EXTRN	?gAEGPPluginID@@3JA:DWORD			; gAEGPPluginID
EXTRN	?Update@CryptomatteContext@@QEAAXPEAUCryptomatteArbitraryData@@@Z:PROC ; CryptomatteContext::Update
EXTRN	??0CryptomatteContext@@QEAA@PEAUCryptomatteArbitraryData@@@Z:PROC ; CryptomatteContext::CryptomatteContext
EXTRN	??2@YAPEAX_K@Z:PROC				; operator new
EXTRN	__security_cookie:QWORD
EXTRN	__security_check_cookie:PROC
pdata	SEGMENT
$pdata$?DoClick@@YAJPEAUPF_InData@@PEAUPF_OutData@@QEAPEAUPF_ParamDef@@PEAUPF_LayerDef@@PEAUPF_EventExtra@@@Z DD imagerel ?DoClick@@YAJPEAUPF_InData@@PEAUPF_OutData@@QEAPEAUPF_ParamDef@@PEAUPF_LayerDef@@PEAUPF_EventExtra@@@Z
	DD	imagerel ?DoClick@@YAJPEAUPF_InData@@PEAUPF_OutData@@QEAPEAUPF_ParamDef@@PEAUPF_LayerDef@@PEAUPF_EventExtra@@@Z+5147
	DD	imagerel $unwind$?DoClick@@YAJPEAUPF_InData@@PEAUPF_OutData@@QEAPEAUPF_ParamDef@@PEAUPF_LayerDef@@PEAUPF_EventExtra@@@Z
pdata	ENDS
pdata	SEGMENT
$pdata$?dtor$0@?0??DoClick@@YAJPEAUPF_InData@@PEAUPF_OutData@@QEAPEAUPF_ParamDef@@PEAUPF_LayerDef@@PEAUPF_EventExtra@@@Z@4HA DD imagerel ?dtor$0@?0??DoClick@@YAJPEAUPF_InData@@PEAUPF_OutData@@QEAPEAUPF_ParamDef@@PEAUPF_LayerDef@@PEAUPF_EventExtra@@@Z@4HA
	DD	imagerel ?dtor$0@?0??DoClick@@YAJPEAUPF_InData@@PEAUPF_OutData@@QEAPEAUPF_ParamDef@@PEAUPF_LayerDef@@PEAUPF_EventExtra@@@Z@4HA+24
	DD	imagerel $unwind$?dtor$0@?0??DoClick@@YAJPEAUPF_InData@@PEAUPF_OutData@@QEAPEAUPF_ParamDef@@PEAUPF_LayerDef@@PEAUPF_EventExtra@@@Z@4HA
$pdata$?dtor$1@?0??DoClick@@YAJPEAUPF_InData@@PEAUPF_OutData@@QEAPEAUPF_ParamDef@@PEAUPF_LayerDef@@PEAUPF_EventExtra@@@Z@4HA DD imagerel ?dtor$1@?0??DoClick@@YAJPEAUPF_InData@@PEAUPF_OutData@@QEAPEAUPF_ParamDef@@PEAUPF_LayerDef@@PEAUPF_EventExtra@@@Z@4HA
	DD	imagerel ?dtor$1@?0??DoClick@@YAJPEAUPF_InData@@PEAUPF_OutData@@QEAPEAUPF_ParamDef@@PEAUPF_LayerDef@@PEAUPF_EventExtra@@@Z@4HA+27
	DD	imagerel $unwind$?dtor$1@?0??DoClick@@YAJPEAUPF_InData@@PEAUPF_OutData@@QEAPEAUPF_ParamDef@@PEAUPF_LayerDef@@PEAUPF_EventExtra@@@Z@4HA
$pdata$?dtor$2@?0??DoClick@@YAJPEAUPF_InData@@PEAUPF_OutData@@QEAPEAUPF_ParamDef@@PEAUPF_LayerDef@@PEAUPF_EventExtra@@@Z@4HA DD imagerel ?dtor$2@?0??DoClick@@YAJPEAUPF_InData@@PEAUPF_OutData@@QEAPEAUPF_ParamDef@@PEAUPF_LayerDef@@PEAUPF_EventExtra@@@Z@4HA
	DD	imagerel ?dtor$2@?0??DoClick@@YAJPEAUPF_InData@@PEAUPF_OutData@@QEAPEAUPF_ParamDef@@PEAUPF_LayerDef@@PEAUPF_EventExtra@@@Z@4HA+27
	DD	imagerel $unwind$?dtor$2@?0??DoClick@@YAJPEAUPF_InData@@PEAUPF_OutData@@QEAPEAUPF_ParamDef@@PEAUPF_LayerDef@@PEAUPF_EventExtra@@@Z@4HA
$pdata$?dtor$3@?0??DoClick@@YAJPEAUPF_InData@@PEAUPF_OutData@@QEAPEAUPF_ParamDef@@PEAUPF_LayerDef@@PEAUPF_EventExtra@@@Z@4HA DD imagerel ?dtor$3@?0??DoClick@@YAJPEAUPF_InData@@PEAUPF_OutData@@QEAPEAUPF_ParamDef@@PEAUPF_LayerDef@@PEAUPF_EventExtra@@@Z@4HA
	DD	imagerel ?dtor$3@?0??DoClick@@YAJPEAUPF_InData@@PEAUPF_OutData@@QEAPEAUPF_ParamDef@@PEAUPF_LayerDef@@PEAUPF_EventExtra@@@Z@4HA+27
	DD	imagerel $unwind$?dtor$3@?0??DoClick@@YAJPEAUPF_InData@@PEAUPF_OutData@@QEAPEAUPF_ParamDef@@PEAUPF_LayerDef@@PEAUPF_EventExtra@@@Z@4HA
$pdata$?dtor$4@?0??DoClick@@YAJPEAUPF_InData@@PEAUPF_OutData@@QEAPEAUPF_ParamDef@@PEAUPF_LayerDef@@PEAUPF_EventExtra@@@Z@4HA DD imagerel ?dtor$4@?0??DoClick@@YAJPEAUPF_InData@@PEAUPF_OutData@@QEAPEAUPF_ParamDef@@PEAUPF_LayerDef@@PEAUPF_EventExtra@@@Z@4HA
	DD	imagerel ?dtor$4@?0??DoClick@@YAJPEAUPF_InData@@PEAUPF_OutData@@QEAPEAUPF_ParamDef@@PEAUPF_LayerDef@@PEAUPF_EventExtra@@@Z@4HA+27
	DD	imagerel $unwind$?dtor$4@?0??DoClick@@YAJPEAUPF_InData@@PEAUPF_OutData@@QEAPEAUPF_ParamDef@@PEAUPF_LayerDef@@PEAUPF_EventExtra@@@Z@4HA
$pdata$?dtor$5@?0??DoClick@@YAJPEAUPF_InData@@PEAUPF_OutData@@QEAPEAUPF_ParamDef@@PEAUPF_LayerDef@@PEAUPF_EventExtra@@@Z@4HA DD imagerel ?dtor$5@?0??DoClick@@YAJPEAUPF_InData@@PEAUPF_OutData@@QEAPEAUPF_ParamDef@@PEAUPF_LayerDef@@PEAUPF_EventExtra@@@Z@4HA
	DD	imagerel ?dtor$5@?0??DoClick@@YAJPEAUPF_InData@@PEAUPF_OutData@@QEAPEAUPF_ParamDef@@PEAUPF_LayerDef@@PEAUPF_EventExtra@@@Z@4HA+28
	DD	imagerel $unwind$?dtor$5@?0??DoClick@@YAJPEAUPF_InData@@PEAUPF_OutData@@QEAPEAUPF_ParamDef@@PEAUPF_LayerDef@@PEAUPF_EventExtra@@@Z@4HA
$pdata$?dtor$6@?0??DoClick@@YAJPEAUPF_InData@@PEAUPF_OutData@@QEAPEAUPF_ParamDef@@PEAUPF_LayerDef@@PEAUPF_EventExtra@@@Z@4HA DD imagerel ?dtor$6@?0??DoClick@@YAJPEAUPF_InData@@PEAUPF_OutData@@QEAPEAUPF_ParamDef@@PEAUPF_LayerDef@@PEAUPF_EventExtra@@@Z@4HA
	DD	imagerel ?dtor$6@?0??DoClick@@YAJPEAUPF_InData@@PEAUPF_OutData@@QEAPEAUPF_ParamDef@@PEAUPF_LayerDef@@PEAUPF_EventExtra@@@Z@4HA+28
	DD	imagerel $unwind$?dtor$6@?0??DoClick@@YAJPEAUPF_InData@@PEAUPF_OutData@@QEAPEAUPF_ParamDef@@PEAUPF_LayerDef@@PEAUPF_EventExtra@@@Z@4HA
$pdata$?dtor$7@?0??DoClick@@YAJPEAUPF_InData@@PEAUPF_OutData@@QEAPEAUPF_ParamDef@@PEAUPF_LayerDef@@PEAUPF_EventExtra@@@Z@4HA DD imagerel ?dtor$7@?0??DoClick@@YAJPEAUPF_InData@@PEAUPF_OutData@@QEAPEAUPF_ParamDef@@PEAUPF_LayerDef@@PEAUPF_EventExtra@@@Z@4HA
	DD	imagerel ?dtor$7@?0??DoClick@@YAJPEAUPF_InData@@PEAUPF_OutData@@QEAPEAUPF_ParamDef@@PEAUPF_LayerDef@@PEAUPF_EventExtra@@@Z@4HA+27
	DD	imagerel $unwind$?dtor$7@?0??DoClick@@YAJPEAUPF_InData@@PEAUPF_OutData@@QEAPEAUPF_ParamDef@@PEAUPF_LayerDef@@PEAUPF_EventExtra@@@Z@4HA
$pdata$?dtor$8@?0??DoClick@@YAJPEAUPF_InData@@PEAUPF_OutData@@QEAPEAUPF_ParamDef@@PEAUPF_LayerDef@@PEAUPF_EventExtra@@@Z@4HA DD imagerel ?dtor$8@?0??DoClick@@YAJPEAUPF_InData@@PEAUPF_OutData@@QEAPEAUPF_ParamDef@@PEAUPF_LayerDef@@PEAUPF_EventExtra@@@Z@4HA
	DD	imagerel ?dtor$8@?0??DoClick@@YAJPEAUPF_InData@@PEAUPF_OutData@@QEAPEAUPF_ParamDef@@PEAUPF_LayerDef@@PEAUPF_EventExtra@@@Z@4HA+27
	DD	imagerel $unwind$?dtor$8@?0??DoClick@@YAJPEAUPF_InData@@PEAUPF_OutData@@QEAPEAUPF_ParamDef@@PEAUPF_LayerDef@@PEAUPF_EventExtra@@@Z@4HA
$pdata$?dtor$9@?0??DoClick@@YAJPEAUPF_InData@@PEAUPF_OutData@@QEAPEAUPF_ParamDef@@PEAUPF_LayerDef@@PEAUPF_EventExtra@@@Z@4HA DD imagerel ?dtor$9@?0??DoClick@@YAJPEAUPF_InData@@PEAUPF_OutData@@QEAPEAUPF_ParamDef@@PEAUPF_LayerDef@@PEAUPF_EventExtra@@@Z@4HA
	DD	imagerel ?dtor$9@?0??DoClick@@YAJPEAUPF_InData@@PEAUPF_OutData@@QEAPEAUPF_ParamDef@@PEAUPF_LayerDef@@PEAUPF_EventExtra@@@Z@4HA+28
	DD	imagerel $unwind$?dtor$9@?0??DoClick@@YAJPEAUPF_InData@@PEAUPF_OutData@@QEAPEAUPF_ParamDef@@PEAUPF_LayerDef@@PEAUPF_EventExtra@@@Z@4HA
$pdata$?dtor$10@?0??DoClick@@YAJPEAUPF_InData@@PEAUPF_OutData@@QEAPEAUPF_ParamDef@@PEAUPF_LayerDef@@PEAUPF_EventExtra@@@Z@4HA DD imagerel ?dtor$10@?0??DoClick@@YAJPEAUPF_InData@@PEAUPF_OutData@@QEAPEAUPF_ParamDef@@PEAUPF_LayerDef@@PEAUPF_EventExtra@@@Z@4HA
	DD	imagerel ?dtor$10@?0??DoClick@@YAJPEAUPF_InData@@PEAUPF_OutData@@QEAPEAUPF_ParamDef@@PEAUPF_LayerDef@@PEAUPF_EventExtra@@@Z@4HA+27
	DD	imagerel $unwind$?dtor$10@?0??DoClick@@YAJPEAUPF_InData@@PEAUPF_OutData@@QEAPEAUPF_ParamDef@@PEAUPF_LayerDef@@PEAUPF_EventExtra@@@Z@4HA
$pdata$?dtor$11@?0??DoClick@@YAJPEAUPF_InData@@PEAUPF_OutData@@QEAPEAUPF_ParamDef@@PEAUPF_LayerDef@@PEAUPF_EventExtra@@@Z@4HA DD imagerel ?dtor$11@?0??DoClick@@YAJPEAUPF_InData@@PEAUPF_OutData@@QEAPEAUPF_ParamDef@@PEAUPF_LayerDef@@PEAUPF_EventExtra@@@Z@4HA
	DD	imagerel ?dtor$11@?0??DoClick@@YAJPEAUPF_InData@@PEAUPF_OutData@@QEAPEAUPF_ParamDef@@PEAUPF_LayerDef@@PEAUPF_EventExtra@@@Z@4HA+28
	DD	imagerel $unwind$?dtor$11@?0??DoClick@@YAJPEAUPF_InData@@PEAUPF_OutData@@QEAPEAUPF_ParamDef@@PEAUPF_LayerDef@@PEAUPF_EventExtra@@@Z@4HA
$pdata$?dtor$12@?0??DoClick@@YAJPEAUPF_InData@@PEAUPF_OutData@@QEAPEAUPF_ParamDef@@PEAUPF_LayerDef@@PEAUPF_EventExtra@@@Z@4HA DD imagerel ?dtor$12@?0??DoClick@@YAJPEAUPF_InData@@PEAUPF_OutData@@QEAPEAUPF_ParamDef@@PEAUPF_LayerDef@@PEAUPF_EventExtra@@@Z@4HA
	DD	imagerel ?dtor$12@?0??DoClick@@YAJPEAUPF_InData@@PEAUPF_OutData@@QEAPEAUPF_ParamDef@@PEAUPF_LayerDef@@PEAUPF_EventExtra@@@Z@4HA+28
	DD	imagerel $unwind$?dtor$12@?0??DoClick@@YAJPEAUPF_InData@@PEAUPF_OutData@@QEAPEAUPF_ParamDef@@PEAUPF_LayerDef@@PEAUPF_EventExtra@@@Z@4HA
$pdata$?dtor$14@?0??DoClick@@YAJPEAUPF_InData@@PEAUPF_OutData@@QEAPEAUPF_ParamDef@@PEAUPF_LayerDef@@PEAUPF_EventExtra@@@Z@4HA DD imagerel ?dtor$14@?0??DoClick@@YAJPEAUPF_InData@@PEAUPF_OutData@@QEAPEAUPF_ParamDef@@PEAUPF_LayerDef@@PEAUPF_EventExtra@@@Z@4HA
	DD	imagerel ?dtor$14@?0??DoClick@@YAJPEAUPF_InData@@PEAUPF_OutData@@QEAPEAUPF_ParamDef@@PEAUPF_LayerDef@@PEAUPF_EventExtra@@@Z@4HA+27
	DD	imagerel $unwind$?dtor$14@?0??DoClick@@YAJPEAUPF_InData@@PEAUPF_OutData@@QEAPEAUPF_ParamDef@@PEAUPF_LayerDef@@PEAUPF_EventExtra@@@Z@4HA
$pdata$?dtor$15@?0??DoClick@@YAJPEAUPF_InData@@PEAUPF_OutData@@QEAPEAUPF_ParamDef@@PEAUPF_LayerDef@@PEAUPF_EventExtra@@@Z@4HA DD imagerel ?dtor$15@?0??DoClick@@YAJPEAUPF_InData@@PEAUPF_OutData@@QEAPEAUPF_ParamDef@@PEAUPF_LayerDef@@PEAUPF_EventExtra@@@Z@4HA
	DD	imagerel ?dtor$15@?0??DoClick@@YAJPEAUPF_InData@@PEAUPF_OutData@@QEAPEAUPF_ParamDef@@PEAUPF_LayerDef@@PEAUPF_EventExtra@@@Z@4HA+28
	DD	imagerel $unwind$?dtor$15@?0??DoClick@@YAJPEAUPF_InData@@PEAUPF_OutData@@QEAPEAUPF_ParamDef@@PEAUPF_LayerDef@@PEAUPF_EventExtra@@@Z@4HA
$pdata$?dtor$16@?0??DoClick@@YAJPEAUPF_InData@@PEAUPF_OutData@@QEAPEAUPF_ParamDef@@PEAUPF_LayerDef@@PEAUPF_EventExtra@@@Z@4HA DD imagerel ?dtor$16@?0??DoClick@@YAJPEAUPF_InData@@PEAUPF_OutData@@QEAPEAUPF_ParamDef@@PEAUPF_LayerDef@@PEAUPF_EventExtra@@@Z@4HA
	DD	imagerel ?dtor$16@?0??DoClick@@YAJPEAUPF_InData@@PEAUPF_OutData@@QEAPEAUPF_ParamDef@@PEAUPF_LayerDef@@PEAUPF_EventExtra@@@Z@4HA+28
	DD	imagerel $unwind$?dtor$16@?0??DoClick@@YAJPEAUPF_InData@@PEAUPF_OutData@@QEAPEAUPF_ParamDef@@PEAUPF_LayerDef@@PEAUPF_EventExtra@@@Z@4HA
$pdata$?dtor$17@?0??DoClick@@YAJPEAUPF_InData@@PEAUPF_OutData@@QEAPEAUPF_ParamDef@@PEAUPF_LayerDef@@PEAUPF_EventExtra@@@Z@4HA DD imagerel ?dtor$17@?0??DoClick@@YAJPEAUPF_InData@@PEAUPF_OutData@@QEAPEAUPF_ParamDef@@PEAUPF_LayerDef@@PEAUPF_EventExtra@@@Z@4HA
	DD	imagerel ?dtor$17@?0??DoClick@@YAJPEAUPF_InData@@PEAUPF_OutData@@QEAPEAUPF_ParamDef@@PEAUPF_LayerDef@@PEAUPF_EventExtra@@@Z@4HA+27
	DD	imagerel $unwind$?dtor$17@?0??DoClick@@YAJPEAUPF_InData@@PEAUPF_OutData@@QEAPEAUPF_ParamDef@@PEAUPF_LayerDef@@PEAUPF_EventExtra@@@Z@4HA
$pdata$?dtor$18@?0??DoClick@@YAJPEAUPF_InData@@PEAUPF_OutData@@QEAPEAUPF_ParamDef@@PEAUPF_LayerDef@@PEAUPF_EventExtra@@@Z@4HA DD imagerel ?dtor$18@?0??DoClick@@YAJPEAUPF_InData@@PEAUPF_OutData@@QEAPEAUPF_ParamDef@@PEAUPF_LayerDef@@PEAUPF_EventExtra@@@Z@4HA
	DD	imagerel ?dtor$18@?0??DoClick@@YAJPEAUPF_InData@@PEAUPF_OutData@@QEAPEAUPF_ParamDef@@PEAUPF_LayerDef@@PEAUPF_EventExtra@@@Z@4HA+27
	DD	imagerel $unwind$?dtor$18@?0??DoClick@@YAJPEAUPF_InData@@PEAUPF_OutData@@QEAPEAUPF_ParamDef@@PEAUPF_LayerDef@@PEAUPF_EventExtra@@@Z@4HA
$pdata$?dtor$19@?0??DoClick@@YAJPEAUPF_InData@@PEAUPF_OutData@@QEAPEAUPF_ParamDef@@PEAUPF_LayerDef@@PEAUPF_EventExtra@@@Z@4HA DD imagerel ?dtor$19@?0??DoClick@@YAJPEAUPF_InData@@PEAUPF_OutData@@QEAPEAUPF_ParamDef@@PEAUPF_LayerDef@@PEAUPF_EventExtra@@@Z@4HA
	DD	imagerel ?dtor$19@?0??DoClick@@YAJPEAUPF_InData@@PEAUPF_OutData@@QEAPEAUPF_ParamDef@@PEAUPF_LayerDef@@PEAUPF_EventExtra@@@Z@4HA+27
	DD	imagerel $unwind$?dtor$19@?0??DoClick@@YAJPEAUPF_InData@@PEAUPF_OutData@@QEAPEAUPF_ParamDef@@PEAUPF_LayerDef@@PEAUPF_EventExtra@@@Z@4HA
$pdata$?dtor$21@?0??DoClick@@YAJPEAUPF_InData@@PEAUPF_OutData@@QEAPEAUPF_ParamDef@@PEAUPF_LayerDef@@PEAUPF_EventExtra@@@Z@4HA DD imagerel ?dtor$21@?0??DoClick@@YAJPEAUPF_InData@@PEAUPF_OutData@@QEAPEAUPF_ParamDef@@PEAUPF_LayerDef@@PEAUPF_EventExtra@@@Z@4HA
	DD	imagerel ?dtor$21@?0??DoClick@@YAJPEAUPF_InData@@PEAUPF_OutData@@QEAPEAUPF_ParamDef@@PEAUPF_LayerDef@@PEAUPF_EventExtra@@@Z@4HA+27
	DD	imagerel $unwind$?dtor$21@?0??DoClick@@YAJPEAUPF_InData@@PEAUPF_OutData@@QEAPEAUPF_ParamDef@@PEAUPF_LayerDef@@PEAUPF_EventExtra@@@Z@4HA
$pdata$?dtor$22@?0??DoClick@@YAJPEAUPF_InData@@PEAUPF_OutData@@QEAPEAUPF_ParamDef@@PEAUPF_LayerDef@@PEAUPF_EventExtra@@@Z@4HA DD imagerel ?dtor$22@?0??DoClick@@YAJPEAUPF_InData@@PEAUPF_OutData@@QEAPEAUPF_ParamDef@@PEAUPF_LayerDef@@PEAUPF_EventExtra@@@Z@4HA
	DD	imagerel ?dtor$22@?0??DoClick@@YAJPEAUPF_InData@@PEAUPF_OutData@@QEAPEAUPF_ParamDef@@PEAUPF_LayerDef@@PEAUPF_EventExtra@@@Z@4HA+27
	DD	imagerel $unwind$?dtor$22@?0??DoClick@@YAJPEAUPF_InData@@PEAUPF_OutData@@QEAPEAUPF_ParamDef@@PEAUPF_LayerDef@@PEAUPF_EventExtra@@@Z@4HA
$pdata$?dtor$23@?0??DoClick@@YAJPEAUPF_InData@@PEAUPF_OutData@@QEAPEAUPF_ParamDef@@PEAUPF_LayerDef@@PEAUPF_EventExtra@@@Z@4HA DD imagerel ?dtor$23@?0??DoClick@@YAJPEAUPF_InData@@PEAUPF_OutData@@QEAPEAUPF_ParamDef@@PEAUPF_LayerDef@@PEAUPF_EventExtra@@@Z@4HA
	DD	imagerel ?dtor$23@?0??DoClick@@YAJPEAUPF_InData@@PEAUPF_OutData@@QEAPEAUPF_ParamDef@@PEAUPF_LayerDef@@PEAUPF_EventExtra@@@Z@4HA+27
	DD	imagerel $unwind$?dtor$23@?0??DoClick@@YAJPEAUPF_InData@@PEAUPF_OutData@@QEAPEAUPF_ParamDef@@PEAUPF_LayerDef@@PEAUPF_EventExtra@@@Z@4HA
$pdata$?dtor$24@?0??DoClick@@YAJPEAUPF_InData@@PEAUPF_OutData@@QEAPEAUPF_ParamDef@@PEAUPF_LayerDef@@PEAUPF_EventExtra@@@Z@4HA DD imagerel ?dtor$24@?0??DoClick@@YAJPEAUPF_InData@@PEAUPF_OutData@@QEAPEAUPF_ParamDef@@PEAUPF_LayerDef@@PEAUPF_EventExtra@@@Z@4HA
	DD	imagerel ?dtor$24@?0??DoClick@@YAJPEAUPF_InData@@PEAUPF_OutData@@QEAPEAUPF_ParamDef@@PEAUPF_LayerDef@@PEAUPF_EventExtra@@@Z@4HA+28
	DD	imagerel $unwind$?dtor$24@?0??DoClick@@YAJPEAUPF_InData@@PEAUPF_OutData@@QEAPEAUPF_ParamDef@@PEAUPF_LayerDef@@PEAUPF_EventExtra@@@Z@4HA
$pdata$?dtor$25@?0??DoClick@@YAJPEAUPF_InData@@PEAUPF_OutData@@QEAPEAUPF_ParamDef@@PEAUPF_LayerDef@@PEAUPF_EventExtra@@@Z@4HA DD imagerel ?dtor$25@?0??DoClick@@YAJPEAUPF_InData@@PEAUPF_OutData@@QEAPEAUPF_ParamDef@@PEAUPF_LayerDef@@PEAUPF_EventExtra@@@Z@4HA
	DD	imagerel ?dtor$25@?0??DoClick@@YAJPEAUPF_InData@@PEAUPF_OutData@@QEAPEAUPF_ParamDef@@PEAUPF_LayerDef@@PEAUPF_EventExtra@@@Z@4HA+27
	DD	imagerel $unwind$?dtor$25@?0??DoClick@@YAJPEAUPF_InData@@PEAUPF_OutData@@QEAPEAUPF_ParamDef@@PEAUPF_LayerDef@@PEAUPF_EventExtra@@@Z@4HA
$pdata$?dtor$26@?0??DoClick@@YAJPEAUPF_InData@@PEAUPF_OutData@@QEAPEAUPF_ParamDef@@PEAUPF_LayerDef@@PEAUPF_EventExtra@@@Z@4HA DD imagerel ?dtor$26@?0??DoClick@@YAJPEAUPF_InData@@PEAUPF_OutData@@QEAPEAUPF_ParamDef@@PEAUPF_LayerDef@@PEAUPF_EventExtra@@@Z@4HA
	DD	imagerel ?dtor$26@?0??DoClick@@YAJPEAUPF_InData@@PEAUPF_OutData@@QEAPEAUPF_ParamDef@@PEAUPF_LayerDef@@PEAUPF_EventExtra@@@Z@4HA+28
	DD	imagerel $unwind$?dtor$26@?0??DoClick@@YAJPEAUPF_InData@@PEAUPF_OutData@@QEAPEAUPF_ParamDef@@PEAUPF_LayerDef@@PEAUPF_EventExtra@@@Z@4HA
$pdata$?dtor$27@?0??DoClick@@YAJPEAUPF_InData@@PEAUPF_OutData@@QEAPEAUPF_ParamDef@@PEAUPF_LayerDef@@PEAUPF_EventExtra@@@Z@4HA DD imagerel ?dtor$27@?0??DoClick@@YAJPEAUPF_InData@@PEAUPF_OutData@@QEAPEAUPF_ParamDef@@PEAUPF_LayerDef@@PEAUPF_EventExtra@@@Z@4HA
	DD	imagerel ?dtor$27@?0??DoClick@@YAJPEAUPF_InData@@PEAUPF_OutData@@QEAPEAUPF_ParamDef@@PEAUPF_LayerDef@@PEAUPF_EventExtra@@@Z@4HA+28
	DD	imagerel $unwind$?dtor$27@?0??DoClick@@YAJPEAUPF_InData@@PEAUPF_OutData@@QEAPEAUPF_ParamDef@@PEAUPF_LayerDef@@PEAUPF_EventExtra@@@Z@4HA
$pdata$?dtor$29@?0??DoClick@@YAJPEAUPF_InData@@PEAUPF_OutData@@QEAPEAUPF_ParamDef@@PEAUPF_LayerDef@@PEAUPF_EventExtra@@@Z@4HA DD imagerel ?dtor$29@?0??DoClick@@YAJPEAUPF_InData@@PEAUPF_OutData@@QEAPEAUPF_ParamDef@@PEAUPF_LayerDef@@PEAUPF_EventExtra@@@Z@4HA
	DD	imagerel ?dtor$29@?0??DoClick@@YAJPEAUPF_InData@@PEAUPF_OutData@@QEAPEAUPF_ParamDef@@PEAUPF_LayerDef@@PEAUPF_EventExtra@@@Z@4HA+27
	DD	imagerel $unwind$?dtor$29@?0??DoClick@@YAJPEAUPF_InData@@PEAUPF_OutData@@QEAPEAUPF_ParamDef@@PEAUPF_LayerDef@@PEAUPF_EventExtra@@@Z@4HA
$pdata$?dtor$30@?0??DoClick@@YAJPEAUPF_InData@@PEAUPF_OutData@@QEAPEAUPF_ParamDef@@PEAUPF_LayerDef@@PEAUPF_EventExtra@@@Z@4HA DD imagerel ?dtor$30@?0??DoClick@@YAJPEAUPF_InData@@PEAUPF_OutData@@QEAPEAUPF_ParamDef@@PEAUPF_LayerDef@@PEAUPF_EventExtra@@@Z@4HA
	DD	imagerel ?dtor$30@?0??DoClick@@YAJPEAUPF_InData@@PEAUPF_OutData@@QEAPEAUPF_ParamDef@@PEAUPF_LayerDef@@PEAUPF_EventExtra@@@Z@4HA+27
	DD	imagerel $unwind$?dtor$30@?0??DoClick@@YAJPEAUPF_InData@@PEAUPF_OutData@@QEAPEAUPF_ParamDef@@PEAUPF_LayerDef@@PEAUPF_EventExtra@@@Z@4HA
$pdata$?dtor$31@?0??DoClick@@YAJPEAUPF_InData@@PEAUPF_OutData@@QEAPEAUPF_ParamDef@@PEAUPF_LayerDef@@PEAUPF_EventExtra@@@Z@4HA DD imagerel ?dtor$31@?0??DoClick@@YAJPEAUPF_InData@@PEAUPF_OutData@@QEAPEAUPF_ParamDef@@PEAUPF_LayerDef@@PEAUPF_EventExtra@@@Z@4HA
	DD	imagerel ?dtor$31@?0??DoClick@@YAJPEAUPF_InData@@PEAUPF_OutData@@QEAPEAUPF_ParamDef@@PEAUPF_LayerDef@@PEAUPF_EventExtra@@@Z@4HA+27
	DD	imagerel $unwind$?dtor$31@?0??DoClick@@YAJPEAUPF_InData@@PEAUPF_OutData@@QEAPEAUPF_ParamDef@@PEAUPF_LayerDef@@PEAUPF_EventExtra@@@Z@4HA
$pdata$?dtor$32@?0??DoClick@@YAJPEAUPF_InData@@PEAUPF_OutData@@QEAPEAUPF_ParamDef@@PEAUPF_LayerDef@@PEAUPF_EventExtra@@@Z@4HA DD imagerel ?dtor$32@?0??DoClick@@YAJPEAUPF_InData@@PEAUPF_OutData@@QEAPEAUPF_ParamDef@@PEAUPF_LayerDef@@PEAUPF_EventExtra@@@Z@4HA
	DD	imagerel ?dtor$32@?0??DoClick@@YAJPEAUPF_InData@@PEAUPF_OutData@@QEAPEAUPF_ParamDef@@PEAUPF_LayerDef@@PEAUPF_EventExtra@@@Z@4HA+27
	DD	imagerel $unwind$?dtor$32@?0??DoClick@@YAJPEAUPF_InData@@PEAUPF_OutData@@QEAPEAUPF_ParamDef@@PEAUPF_LayerDef@@PEAUPF_EventExtra@@@Z@4HA
$pdata$?dtor$33@?0??DoClick@@YAJPEAUPF_InData@@PEAUPF_OutData@@QEAPEAUPF_ParamDef@@PEAUPF_LayerDef@@PEAUPF_EventExtra@@@Z@4HA DD imagerel ?dtor$33@?0??DoClick@@YAJPEAUPF_InData@@PEAUPF_OutData@@QEAPEAUPF_ParamDef@@PEAUPF_LayerDef@@PEAUPF_EventExtra@@@Z@4HA
	DD	imagerel ?dtor$33@?0??DoClick@@YAJPEAUPF_InData@@PEAUPF_OutData@@QEAPEAUPF_ParamDef@@PEAUPF_LayerDef@@PEAUPF_EventExtra@@@Z@4HA+27
	DD	imagerel $unwind$?dtor$33@?0??DoClick@@YAJPEAUPF_InData@@PEAUPF_OutData@@QEAPEAUPF_ParamDef@@PEAUPF_LayerDef@@PEAUPF_EventExtra@@@Z@4HA
$pdata$?dtor$34@?0??DoClick@@YAJPEAUPF_InData@@PEAUPF_OutData@@QEAPEAUPF_ParamDef@@PEAUPF_LayerDef@@PEAUPF_EventExtra@@@Z@4HA DD imagerel ?dtor$34@?0??DoClick@@YAJPEAUPF_InData@@PEAUPF_OutData@@QEAPEAUPF_ParamDef@@PEAUPF_LayerDef@@PEAUPF_EventExtra@@@Z@4HA
	DD	imagerel ?dtor$34@?0??DoClick@@YAJPEAUPF_InData@@PEAUPF_OutData@@QEAPEAUPF_ParamDef@@PEAUPF_LayerDef@@PEAUPF_EventExtra@@@Z@4HA+48
	DD	imagerel $unwind$?dtor$34@?0??DoClick@@YAJPEAUPF_InData@@PEAUPF_OutData@@QEAPEAUPF_ParamDef@@PEAUPF_LayerDef@@PEAUPF_EventExtra@@@Z@4HA
$pdata$?dtor$37@?0??DoClick@@YAJPEAUPF_InData@@PEAUPF_OutData@@QEAPEAUPF_ParamDef@@PEAUPF_LayerDef@@PEAUPF_EventExtra@@@Z@4HA DD imagerel ?dtor$37@?0??DoClick@@YAJPEAUPF_InData@@PEAUPF_OutData@@QEAPEAUPF_ParamDef@@PEAUPF_LayerDef@@PEAUPF_EventExtra@@@Z@4HA
	DD	imagerel ?dtor$37@?0??DoClick@@YAJPEAUPF_InData@@PEAUPF_OutData@@QEAPEAUPF_ParamDef@@PEAUPF_LayerDef@@PEAUPF_EventExtra@@@Z@4HA+27
	DD	imagerel $unwind$?dtor$37@?0??DoClick@@YAJPEAUPF_InData@@PEAUPF_OutData@@QEAPEAUPF_ParamDef@@PEAUPF_LayerDef@@PEAUPF_EventExtra@@@Z@4HA
$pdata$?dtor$38@?0??DoClick@@YAJPEAUPF_InData@@PEAUPF_OutData@@QEAPEAUPF_ParamDef@@PEAUPF_LayerDef@@PEAUPF_EventExtra@@@Z@4HA DD imagerel ?dtor$38@?0??DoClick@@YAJPEAUPF_InData@@PEAUPF_OutData@@QEAPEAUPF_ParamDef@@PEAUPF_LayerDef@@PEAUPF_EventExtra@@@Z@4HA
	DD	imagerel ?dtor$38@?0??DoClick@@YAJPEAUPF_InData@@PEAUPF_OutData@@QEAPEAUPF_ParamDef@@PEAUPF_LayerDef@@PEAUPF_EventExtra@@@Z@4HA+28
	DD	imagerel $unwind$?dtor$38@?0??DoClick@@YAJPEAUPF_InData@@PEAUPF_OutData@@QEAPEAUPF_ParamDef@@PEAUPF_LayerDef@@PEAUPF_EventExtra@@@Z@4HA
$pdata$?dtor$39@?0??DoClick@@YAJPEAUPF_InData@@PEAUPF_OutData@@QEAPEAUPF_ParamDef@@PEAUPF_LayerDef@@PEAUPF_EventExtra@@@Z@4HA DD imagerel ?dtor$39@?0??DoClick@@YAJPEAUPF_InData@@PEAUPF_OutData@@QEAPEAUPF_ParamDef@@PEAUPF_LayerDef@@PEAUPF_EventExtra@@@Z@4HA
	DD	imagerel ?dtor$39@?0??DoClick@@YAJPEAUPF_InData@@PEAUPF_OutData@@QEAPEAUPF_ParamDef@@PEAUPF_LayerDef@@PEAUPF_EventExtra@@@Z@4HA+27
	DD	imagerel $unwind$?dtor$39@?0??DoClick@@YAJPEAUPF_InData@@PEAUPF_OutData@@QEAPEAUPF_ParamDef@@PEAUPF_LayerDef@@PEAUPF_EventExtra@@@Z@4HA
$pdata$?dtor$40@?0??DoClick@@YAJPEAUPF_InData@@PEAUPF_OutData@@QEAPEAUPF_ParamDef@@PEAUPF_LayerDef@@PEAUPF_EventExtra@@@Z@4HA DD imagerel ?dtor$40@?0??DoClick@@YAJPEAUPF_InData@@PEAUPF_OutData@@QEAPEAUPF_ParamDef@@PEAUPF_LayerDef@@PEAUPF_EventExtra@@@Z@4HA
	DD	imagerel ?dtor$40@?0??DoClick@@YAJPEAUPF_InData@@PEAUPF_OutData@@QEAPEAUPF_ParamDef@@PEAUPF_LayerDef@@PEAUPF_EventExtra@@@Z@4HA+27
	DD	imagerel $unwind$?dtor$40@?0??DoClick@@YAJPEAUPF_InData@@PEAUPF_OutData@@QEAPEAUPF_ParamDef@@PEAUPF_LayerDef@@PEAUPF_EventExtra@@@Z@4HA
$pdata$?dtor$41@?0??DoClick@@YAJPEAUPF_InData@@PEAUPF_OutData@@QEAPEAUPF_ParamDef@@PEAUPF_LayerDef@@PEAUPF_EventExtra@@@Z@4HA DD imagerel ?dtor$41@?0??DoClick@@YAJPEAUPF_InData@@PEAUPF_OutData@@QEAPEAUPF_ParamDef@@PEAUPF_LayerDef@@PEAUPF_EventExtra@@@Z@4HA
	DD	imagerel ?dtor$41@?0??DoClick@@YAJPEAUPF_InData@@PEAUPF_OutData@@QEAPEAUPF_ParamDef@@PEAUPF_LayerDef@@PEAUPF_EventExtra@@@Z@4HA+27
	DD	imagerel $unwind$?dtor$41@?0??DoClick@@YAJPEAUPF_InData@@PEAUPF_OutData@@QEAPEAUPF_ParamDef@@PEAUPF_LayerDef@@PEAUPF_EventExtra@@@Z@4HA
pdata	ENDS
CONST	SEGMENT
$cppxdata$?DoClick@@YAJPEAUPF_InData@@PEAUPF_OutData@@QEAPEAUPF_ParamDef@@PEAUPF_LayerDef@@PEAUPF_EventExtra@@@Z DD 019930522H
	DD	029H
	DD	imagerel $stateUnwindMap$?DoClick@@YAJPEAUPF_InData@@PEAUPF_OutData@@QEAPEAUPF_ParamDef@@PEAUPF_LayerDef@@PEAUPF_EventExtra@@@Z
	DD	00H
	DD	00H
	DD	047H
	DD	imagerel $ip2state$?DoClick@@YAJPEAUPF_InData@@PEAUPF_OutData@@QEAPEAUPF_ParamDef@@PEAUPF_LayerDef@@PEAUPF_EventExtra@@@Z
	DD	08f0H
	DD	00H
	DD	01H
CONST	ENDS
xdata	SEGMENT
$stateUnwindMap$?DoClick@@YAJPEAUPF_InData@@PEAUPF_OutData@@QEAPEAUPF_ParamDef@@PEAUPF_LayerDef@@PEAUPF_EventExtra@@@Z DD 0ffffffffH
	DD	imagerel ?dtor$0@?0??DoClick@@YAJPEAUPF_InData@@PEAUPF_OutData@@QEAPEAUPF_ParamDef@@PEAUPF_LayerDef@@PEAUPF_EventExtra@@@Z@4HA
	DD	00H
	DD	imagerel ?dtor$1@?0??DoClick@@YAJPEAUPF_InData@@PEAUPF_OutData@@QEAPEAUPF_ParamDef@@PEAUPF_LayerDef@@PEAUPF_EventExtra@@@Z@4HA
	DD	00H
	DD	imagerel ?dtor$2@?0??DoClick@@YAJPEAUPF_InData@@PEAUPF_OutData@@QEAPEAUPF_ParamDef@@PEAUPF_LayerDef@@PEAUPF_EventExtra@@@Z@4HA
	DD	02H
	DD	imagerel ?dtor$3@?0??DoClick@@YAJPEAUPF_InData@@PEAUPF_OutData@@QEAPEAUPF_ParamDef@@PEAUPF_LayerDef@@PEAUPF_EventExtra@@@Z@4HA
	DD	02H
	DD	imagerel ?dtor$4@?0??DoClick@@YAJPEAUPF_InData@@PEAUPF_OutData@@QEAPEAUPF_ParamDef@@PEAUPF_LayerDef@@PEAUPF_EventExtra@@@Z@4HA
	DD	04H
	DD	imagerel ?dtor$5@?0??DoClick@@YAJPEAUPF_InData@@PEAUPF_OutData@@QEAPEAUPF_ParamDef@@PEAUPF_LayerDef@@PEAUPF_EventExtra@@@Z@4HA
	DD	05H
	DD	imagerel ?dtor$6@?0??DoClick@@YAJPEAUPF_InData@@PEAUPF_OutData@@QEAPEAUPF_ParamDef@@PEAUPF_LayerDef@@PEAUPF_EventExtra@@@Z@4HA
	DD	06H
	DD	imagerel ?dtor$7@?0??DoClick@@YAJPEAUPF_InData@@PEAUPF_OutData@@QEAPEAUPF_ParamDef@@PEAUPF_LayerDef@@PEAUPF_EventExtra@@@Z@4HA
	DD	07H
	DD	imagerel ?dtor$8@?0??DoClick@@YAJPEAUPF_InData@@PEAUPF_OutData@@QEAPEAUPF_ParamDef@@PEAUPF_LayerDef@@PEAUPF_EventExtra@@@Z@4HA
	DD	07H
	DD	imagerel ?dtor$9@?0??DoClick@@YAJPEAUPF_InData@@PEAUPF_OutData@@QEAPEAUPF_ParamDef@@PEAUPF_LayerDef@@PEAUPF_EventExtra@@@Z@4HA
	DD	09H
	DD	imagerel ?dtor$10@?0??DoClick@@YAJPEAUPF_InData@@PEAUPF_OutData@@QEAPEAUPF_ParamDef@@PEAUPF_LayerDef@@PEAUPF_EventExtra@@@Z@4HA
	DD	09H
	DD	imagerel ?dtor$11@?0??DoClick@@YAJPEAUPF_InData@@PEAUPF_OutData@@QEAPEAUPF_ParamDef@@PEAUPF_LayerDef@@PEAUPF_EventExtra@@@Z@4HA
	DD	0bH
	DD	imagerel ?dtor$12@?0??DoClick@@YAJPEAUPF_InData@@PEAUPF_OutData@@QEAPEAUPF_ParamDef@@PEAUPF_LayerDef@@PEAUPF_EventExtra@@@Z@4HA
	DD	06H
	DD	imagerel ?dtor$14@?0??DoClick@@YAJPEAUPF_InData@@PEAUPF_OutData@@QEAPEAUPF_ParamDef@@PEAUPF_LayerDef@@PEAUPF_EventExtra@@@Z@4HA
	DD	0dH
	DD	imagerel ?dtor$15@?0??DoClick@@YAJPEAUPF_InData@@PEAUPF_OutData@@QEAPEAUPF_ParamDef@@PEAUPF_LayerDef@@PEAUPF_EventExtra@@@Z@4HA
	DD	0eH
	DD	imagerel ?dtor$16@?0??DoClick@@YAJPEAUPF_InData@@PEAUPF_OutData@@QEAPEAUPF_ParamDef@@PEAUPF_LayerDef@@PEAUPF_EventExtra@@@Z@4HA
	DD	0dH
	DD	imagerel ?dtor$17@?0??DoClick@@YAJPEAUPF_InData@@PEAUPF_OutData@@QEAPEAUPF_ParamDef@@PEAUPF_LayerDef@@PEAUPF_EventExtra@@@Z@4HA
	DD	010H
	DD	imagerel ?dtor$18@?0??DoClick@@YAJPEAUPF_InData@@PEAUPF_OutData@@QEAPEAUPF_ParamDef@@PEAUPF_LayerDef@@PEAUPF_EventExtra@@@Z@4HA
	DD	0dH
	DD	imagerel ?dtor$18@?0??DoClick@@YAJPEAUPF_InData@@PEAUPF_OutData@@QEAPEAUPF_ParamDef@@PEAUPF_LayerDef@@PEAUPF_EventExtra@@@Z@4HA
	DD	012H
	DD	imagerel ?dtor$19@?0??DoClick@@YAJPEAUPF_InData@@PEAUPF_OutData@@QEAPEAUPF_ParamDef@@PEAUPF_LayerDef@@PEAUPF_EventExtra@@@Z@4HA
	DD	0dH
	DD	imagerel ?dtor$21@?0??DoClick@@YAJPEAUPF_InData@@PEAUPF_OutData@@QEAPEAUPF_ParamDef@@PEAUPF_LayerDef@@PEAUPF_EventExtra@@@Z@4HA
	DD	014H
	DD	imagerel ?dtor$22@?0??DoClick@@YAJPEAUPF_InData@@PEAUPF_OutData@@QEAPEAUPF_ParamDef@@PEAUPF_LayerDef@@PEAUPF_EventExtra@@@Z@4HA
	DD	0dH
	DD	imagerel ?dtor$22@?0??DoClick@@YAJPEAUPF_InData@@PEAUPF_OutData@@QEAPEAUPF_ParamDef@@PEAUPF_LayerDef@@PEAUPF_EventExtra@@@Z@4HA
	DD	016H
	DD	imagerel ?dtor$23@?0??DoClick@@YAJPEAUPF_InData@@PEAUPF_OutData@@QEAPEAUPF_ParamDef@@PEAUPF_LayerDef@@PEAUPF_EventExtra@@@Z@4HA
	DD	016H
	DD	imagerel ?dtor$24@?0??DoClick@@YAJPEAUPF_InData@@PEAUPF_OutData@@QEAPEAUPF_ParamDef@@PEAUPF_LayerDef@@PEAUPF_EventExtra@@@Z@4HA
	DD	018H
	DD	imagerel ?dtor$25@?0??DoClick@@YAJPEAUPF_InData@@PEAUPF_OutData@@QEAPEAUPF_ParamDef@@PEAUPF_LayerDef@@PEAUPF_EventExtra@@@Z@4HA
	DD	018H
	DD	imagerel ?dtor$26@?0??DoClick@@YAJPEAUPF_InData@@PEAUPF_OutData@@QEAPEAUPF_ParamDef@@PEAUPF_LayerDef@@PEAUPF_EventExtra@@@Z@4HA
	DD	01aH
	DD	imagerel ?dtor$27@?0??DoClick@@YAJPEAUPF_InData@@PEAUPF_OutData@@QEAPEAUPF_ParamDef@@PEAUPF_LayerDef@@PEAUPF_EventExtra@@@Z@4HA
	DD	0dH
	DD	imagerel ?dtor$29@?0??DoClick@@YAJPEAUPF_InData@@PEAUPF_OutData@@QEAPEAUPF_ParamDef@@PEAUPF_LayerDef@@PEAUPF_EventExtra@@@Z@4HA
	DD	01cH
	DD	imagerel ?dtor$30@?0??DoClick@@YAJPEAUPF_InData@@PEAUPF_OutData@@QEAPEAUPF_ParamDef@@PEAUPF_LayerDef@@PEAUPF_EventExtra@@@Z@4HA
	DD	0dH
	DD	imagerel ?dtor$30@?0??DoClick@@YAJPEAUPF_InData@@PEAUPF_OutData@@QEAPEAUPF_ParamDef@@PEAUPF_LayerDef@@PEAUPF_EventExtra@@@Z@4HA
	DD	01eH
	DD	imagerel ?dtor$31@?0??DoClick@@YAJPEAUPF_InData@@PEAUPF_OutData@@QEAPEAUPF_ParamDef@@PEAUPF_LayerDef@@PEAUPF_EventExtra@@@Z@4HA
	DD	01eH
	DD	imagerel ?dtor$32@?0??DoClick@@YAJPEAUPF_InData@@PEAUPF_OutData@@QEAPEAUPF_ParamDef@@PEAUPF_LayerDef@@PEAUPF_EventExtra@@@Z@4HA
	DD	020H
	DD	imagerel ?dtor$33@?0??DoClick@@YAJPEAUPF_InData@@PEAUPF_OutData@@QEAPEAUPF_ParamDef@@PEAUPF_LayerDef@@PEAUPF_EventExtra@@@Z@4HA
	DD	020H
	DD	imagerel ?dtor$34@?0??DoClick@@YAJPEAUPF_InData@@PEAUPF_OutData@@QEAPEAUPF_ParamDef@@PEAUPF_LayerDef@@PEAUPF_EventExtra@@@Z@4HA
	DD	020H
	DD	imagerel ?dtor$37@?0??DoClick@@YAJPEAUPF_InData@@PEAUPF_OutData@@QEAPEAUPF_ParamDef@@PEAUPF_LayerDef@@PEAUPF_EventExtra@@@Z@4HA
	DD	06H
	DD	imagerel ?dtor$38@?0??DoClick@@YAJPEAUPF_InData@@PEAUPF_OutData@@QEAPEAUPF_ParamDef@@PEAUPF_LayerDef@@PEAUPF_EventExtra@@@Z@4HA
	DD	024H
	DD	imagerel ?dtor$39@?0??DoClick@@YAJPEAUPF_InData@@PEAUPF_OutData@@QEAPEAUPF_ParamDef@@PEAUPF_LayerDef@@PEAUPF_EventExtra@@@Z@4HA
	DD	025H
	DD	imagerel ?dtor$40@?0??DoClick@@YAJPEAUPF_InData@@PEAUPF_OutData@@QEAPEAUPF_ParamDef@@PEAUPF_LayerDef@@PEAUPF_EventExtra@@@Z@4HA
	DD	024H
	DD	imagerel ?dtor$40@?0??DoClick@@YAJPEAUPF_InData@@PEAUPF_OutData@@QEAPEAUPF_ParamDef@@PEAUPF_LayerDef@@PEAUPF_EventExtra@@@Z@4HA
	DD	027H
	DD	imagerel ?dtor$41@?0??DoClick@@YAJPEAUPF_InData@@PEAUPF_OutData@@QEAPEAUPF_ParamDef@@PEAUPF_LayerDef@@PEAUPF_EventExtra@@@Z@4HA
$unwind$?DoClick@@YAJPEAUPF_InData@@PEAUPF_OutData@@QEAPEAUPF_ParamDef@@PEAUPF_LayerDef@@PEAUPF_EventExtra@@@Z DD 043b19H
	DD	014b011dH
	DD	030157016H
	DD	imagerel __GSHandlerCheck_EH
	DD	imagerel $cppxdata$?DoClick@@YAJPEAUPF_InData@@PEAUPF_OutData@@QEAPEAUPF_ParamDef@@PEAUPF_LayerDef@@PEAUPF_EventExtra@@@Z
	DD	0a42H
$unwind$?dtor$0@?0??DoClick@@YAJPEAUPF_InData@@PEAUPF_OutData@@QEAPEAUPF_ParamDef@@PEAUPF_LayerDef@@PEAUPF_EventExtra@@@Z@4HA DD 020601H
	DD	050023206H
$unwind$?dtor$1@?0??DoClick@@YAJPEAUPF_InData@@PEAUPF_OutData@@QEAPEAUPF_ParamDef@@PEAUPF_LayerDef@@PEAUPF_EventExtra@@@Z@4HA DD 020601H
	DD	050023206H
$unwind$?dtor$2@?0??DoClick@@YAJPEAUPF_InData@@PEAUPF_OutData@@QEAPEAUPF_ParamDef@@PEAUPF_LayerDef@@PEAUPF_EventExtra@@@Z@4HA DD 020601H
	DD	050023206H
$unwind$?dtor$3@?0??DoClick@@YAJPEAUPF_InData@@PEAUPF_OutData@@QEAPEAUPF_ParamDef@@PEAUPF_LayerDef@@PEAUPF_EventExtra@@@Z@4HA DD 020601H
	DD	050023206H
$unwind$?dtor$4@?0??DoClick@@YAJPEAUPF_InData@@PEAUPF_OutData@@QEAPEAUPF_ParamDef@@PEAUPF_LayerDef@@PEAUPF_EventExtra@@@Z@4HA DD 020601H
	DD	050023206H
$unwind$?dtor$5@?0??DoClick@@YAJPEAUPF_InData@@PEAUPF_OutData@@QEAPEAUPF_ParamDef@@PEAUPF_LayerDef@@PEAUPF_EventExtra@@@Z@4HA DD 020601H
	DD	050023206H
$unwind$?dtor$6@?0??DoClick@@YAJPEAUPF_InData@@PEAUPF_OutData@@QEAPEAUPF_ParamDef@@PEAUPF_LayerDef@@PEAUPF_EventExtra@@@Z@4HA DD 020601H
	DD	050023206H
$unwind$?dtor$7@?0??DoClick@@YAJPEAUPF_InData@@PEAUPF_OutData@@QEAPEAUPF_ParamDef@@PEAUPF_LayerDef@@PEAUPF_EventExtra@@@Z@4HA DD 020601H
	DD	050023206H
$unwind$?dtor$8@?0??DoClick@@YAJPEAUPF_InData@@PEAUPF_OutData@@QEAPEAUPF_ParamDef@@PEAUPF_LayerDef@@PEAUPF_EventExtra@@@Z@4HA DD 020601H
	DD	050023206H
$unwind$?dtor$9@?0??DoClick@@YAJPEAUPF_InData@@PEAUPF_OutData@@QEAPEAUPF_ParamDef@@PEAUPF_LayerDef@@PEAUPF_EventExtra@@@Z@4HA DD 020601H
	DD	050023206H
$unwind$?dtor$10@?0??DoClick@@YAJPEAUPF_InData@@PEAUPF_OutData@@QEAPEAUPF_ParamDef@@PEAUPF_LayerDef@@PEAUPF_EventExtra@@@Z@4HA DD 020601H
	DD	050023206H
$unwind$?dtor$11@?0??DoClick@@YAJPEAUPF_InData@@PEAUPF_OutData@@QEAPEAUPF_ParamDef@@PEAUPF_LayerDef@@PEAUPF_EventExtra@@@Z@4HA DD 020601H
	DD	050023206H
$unwind$?dtor$12@?0??DoClick@@YAJPEAUPF_InData@@PEAUPF_OutData@@QEAPEAUPF_ParamDef@@PEAUPF_LayerDef@@PEAUPF_EventExtra@@@Z@4HA DD 020601H
	DD	050023206H
$unwind$?dtor$14@?0??DoClick@@YAJPEAUPF_InData@@PEAUPF_OutData@@QEAPEAUPF_ParamDef@@PEAUPF_LayerDef@@PEAUPF_EventExtra@@@Z@4HA DD 020601H
	DD	050023206H
$unwind$?dtor$15@?0??DoClick@@YAJPEAUPF_InData@@PEAUPF_OutData@@QEAPEAUPF_ParamDef@@PEAUPF_LayerDef@@PEAUPF_EventExtra@@@Z@4HA DD 020601H
	DD	050023206H
$unwind$?dtor$16@?0??DoClick@@YAJPEAUPF_InData@@PEAUPF_OutData@@QEAPEAUPF_ParamDef@@PEAUPF_LayerDef@@PEAUPF_EventExtra@@@Z@4HA DD 020601H
	DD	050023206H
$unwind$?dtor$17@?0??DoClick@@YAJPEAUPF_InData@@PEAUPF_OutData@@QEAPEAUPF_ParamDef@@PEAUPF_LayerDef@@PEAUPF_EventExtra@@@Z@4HA DD 020601H
	DD	050023206H
$unwind$?dtor$18@?0??DoClick@@YAJPEAUPF_InData@@PEAUPF_OutData@@QEAPEAUPF_ParamDef@@PEAUPF_LayerDef@@PEAUPF_EventExtra@@@Z@4HA DD 020601H
	DD	050023206H
$unwind$?dtor$19@?0??DoClick@@YAJPEAUPF_InData@@PEAUPF_OutData@@QEAPEAUPF_ParamDef@@PEAUPF_LayerDef@@PEAUPF_EventExtra@@@Z@4HA DD 020601H
	DD	050023206H
$unwind$?dtor$21@?0??DoClick@@YAJPEAUPF_InData@@PEAUPF_OutData@@QEAPEAUPF_ParamDef@@PEAUPF_LayerDef@@PEAUPF_EventExtra@@@Z@4HA DD 020601H
	DD	050023206H
$unwind$?dtor$22@?0??DoClick@@YAJPEAUPF_InData@@PEAUPF_OutData@@QEAPEAUPF_ParamDef@@PEAUPF_LayerDef@@PEAUPF_EventExtra@@@Z@4HA DD 020601H
	DD	050023206H
$unwind$?dtor$23@?0??DoClick@@YAJPEAUPF_InData@@PEAUPF_OutData@@QEAPEAUPF_ParamDef@@PEAUPF_LayerDef@@PEAUPF_EventExtra@@@Z@4HA DD 020601H
	DD	050023206H
$unwind$?dtor$24@?0??DoClick@@YAJPEAUPF_InData@@PEAUPF_OutData@@QEAPEAUPF_ParamDef@@PEAUPF_LayerDef@@PEAUPF_EventExtra@@@Z@4HA DD 020601H
	DD	050023206H
$unwind$?dtor$25@?0??DoClick@@YAJPEAUPF_InData@@PEAUPF_OutData@@QEAPEAUPF_ParamDef@@PEAUPF_LayerDef@@PEAUPF_EventExtra@@@Z@4HA DD 020601H
	DD	050023206H
$unwind$?dtor$26@?0??DoClick@@YAJPEAUPF_InData@@PEAUPF_OutData@@QEAPEAUPF_ParamDef@@PEAUPF_LayerDef@@PEAUPF_EventExtra@@@Z@4HA DD 020601H
	DD	050023206H
$unwind$?dtor$27@?0??DoClick@@YAJPEAUPF_InData@@PEAUPF_OutData@@QEAPEAUPF_ParamDef@@PEAUPF_LayerDef@@PEAUPF_EventExtra@@@Z@4HA DD 020601H
	DD	050023206H
$unwind$?dtor$29@?0??DoClick@@YAJPEAUPF_InData@@PEAUPF_OutData@@QEAPEAUPF_ParamDef@@PEAUPF_LayerDef@@PEAUPF_EventExtra@@@Z@4HA DD 020601H
	DD	050023206H
$unwind$?dtor$30@?0??DoClick@@YAJPEAUPF_InData@@PEAUPF_OutData@@QEAPEAUPF_ParamDef@@PEAUPF_LayerDef@@PEAUPF_EventExtra@@@Z@4HA DD 020601H
	DD	050023206H
$unwind$?dtor$31@?0??DoClick@@YAJPEAUPF_InData@@PEAUPF_OutData@@QEAPEAUPF_ParamDef@@PEAUPF_LayerDef@@PEAUPF_EventExtra@@@Z@4HA DD 020601H
	DD	050023206H
$unwind$?dtor$32@?0??DoClick@@YAJPEAUPF_InData@@PEAUPF_OutData@@QEAPEAUPF_ParamDef@@PEAUPF_LayerDef@@PEAUPF_EventExtra@@@Z@4HA DD 020601H
	DD	050023206H
$unwind$?dtor$33@?0??DoClick@@YAJPEAUPF_InData@@PEAUPF_OutData@@QEAPEAUPF_ParamDef@@PEAUPF_LayerDef@@PEAUPF_EventExtra@@@Z@4HA DD 020601H
	DD	050023206H
$unwind$?dtor$34@?0??DoClick@@YAJPEAUPF_InData@@PEAUPF_OutData@@QEAPEAUPF_ParamDef@@PEAUPF_LayerDef@@PEAUPF_EventExtra@@@Z@4HA DD 020601H
	DD	050023206H
$unwind$?dtor$37@?0??DoClick@@YAJPEAUPF_InData@@PEAUPF_OutData@@QEAPEAUPF_ParamDef@@PEAUPF_LayerDef@@PEAUPF_EventExtra@@@Z@4HA DD 020601H
	DD	050023206H
$unwind$?dtor$38@?0??DoClick@@YAJPEAUPF_InData@@PEAUPF_OutData@@QEAPEAUPF_ParamDef@@PEAUPF_LayerDef@@PEAUPF_EventExtra@@@Z@4HA DD 020601H
	DD	050023206H
$unwind$?dtor$39@?0??DoClick@@YAJPEAUPF_InData@@PEAUPF_OutData@@QEAPEAUPF_ParamDef@@PEAUPF_LayerDef@@PEAUPF_EventExtra@@@Z@4HA DD 020601H
	DD	050023206H
$unwind$?dtor$40@?0??DoClick@@YAJPEAUPF_InData@@PEAUPF_OutData@@QEAPEAUPF_ParamDef@@PEAUPF_LayerDef@@PEAUPF_EventExtra@@@Z@4HA DD 020601H
	DD	050023206H
$unwind$?dtor$41@?0??DoClick@@YAJPEAUPF_InData@@PEAUPF_OutData@@QEAPEAUPF_ParamDef@@PEAUPF_LayerDef@@PEAUPF_EventExtra@@@Z@4HA DD 020601H
	DD	050023206H
$ip2state$?DoClick@@YAJPEAUPF_InData@@PEAUPF_OutData@@QEAPEAUPF_ParamDef@@PEAUPF_LayerDef@@PEAUPF_EventExtra@@@Z DD imagerel ?DoClick@@YAJPEAUPF_InData@@PEAUPF_OutData@@QEAPEAUPF_ParamDef@@PEAUPF_LayerDef@@PEAUPF_EventExtra@@@Z
	DD	0ffffffffH
	DD	imagerel ?DoClick@@YAJPEAUPF_InData@@PEAUPF_OutData@@QEAPEAUPF_ParamDef@@PEAUPF_LayerDef@@PEAUPF_EventExtra@@@Z+119
	DD	00H
	DD	imagerel ?DoClick@@YAJPEAUPF_InData@@PEAUPF_OutData@@QEAPEAUPF_ParamDef@@PEAUPF_LayerDef@@PEAUPF_EventExtra@@@Z+270
	DD	01H
	DD	imagerel ?DoClick@@YAJPEAUPF_InData@@PEAUPF_OutData@@QEAPEAUPF_ParamDef@@PEAUPF_LayerDef@@PEAUPF_EventExtra@@@Z+340
	DD	00H
	DD	imagerel ?DoClick@@YAJPEAUPF_InData@@PEAUPF_OutData@@QEAPEAUPF_ParamDef@@PEAUPF_LayerDef@@PEAUPF_EventExtra@@@Z+490
	DD	02H
	DD	imagerel ?DoClick@@YAJPEAUPF_InData@@PEAUPF_OutData@@QEAPEAUPF_ParamDef@@PEAUPF_LayerDef@@PEAUPF_EventExtra@@@Z+1439
	DD	03H
	DD	imagerel ?DoClick@@YAJPEAUPF_InData@@PEAUPF_OutData@@QEAPEAUPF_ParamDef@@PEAUPF_LayerDef@@PEAUPF_EventExtra@@@Z+1461
	DD	02H
	DD	imagerel ?DoClick@@YAJPEAUPF_InData@@PEAUPF_OutData@@QEAPEAUPF_ParamDef@@PEAUPF_LayerDef@@PEAUPF_EventExtra@@@Z+1644
	DD	04H
	DD	imagerel ?DoClick@@YAJPEAUPF_InData@@PEAUPF_OutData@@QEAPEAUPF_ParamDef@@PEAUPF_LayerDef@@PEAUPF_EventExtra@@@Z+1677
	DD	05H
	DD	imagerel ?DoClick@@YAJPEAUPF_InData@@PEAUPF_OutData@@QEAPEAUPF_ParamDef@@PEAUPF_LayerDef@@PEAUPF_EventExtra@@@Z+1710
	DD	06H
	DD	imagerel ?DoClick@@YAJPEAUPF_InData@@PEAUPF_OutData@@QEAPEAUPF_ParamDef@@PEAUPF_LayerDef@@PEAUPF_EventExtra@@@Z+1818
	DD	07H
	DD	imagerel ?DoClick@@YAJPEAUPF_InData@@PEAUPF_OutData@@QEAPEAUPF_ParamDef@@PEAUPF_LayerDef@@PEAUPF_EventExtra@@@Z+1878
	DD	08H
	DD	imagerel ?DoClick@@YAJPEAUPF_InData@@PEAUPF_OutData@@QEAPEAUPF_ParamDef@@PEAUPF_LayerDef@@PEAUPF_EventExtra@@@Z+1906
	DD	07H
	DD	imagerel ?DoClick@@YAJPEAUPF_InData@@PEAUPF_OutData@@QEAPEAUPF_ParamDef@@PEAUPF_LayerDef@@PEAUPF_EventExtra@@@Z+1968
	DD	09H
	DD	imagerel ?DoClick@@YAJPEAUPF_InData@@PEAUPF_OutData@@QEAPEAUPF_ParamDef@@PEAUPF_LayerDef@@PEAUPF_EventExtra@@@Z+2013
	DD	0aH
	DD	imagerel ?DoClick@@YAJPEAUPF_InData@@PEAUPF_OutData@@QEAPEAUPF_ParamDef@@PEAUPF_LayerDef@@PEAUPF_EventExtra@@@Z+2041
	DD	09H
	DD	imagerel ?DoClick@@YAJPEAUPF_InData@@PEAUPF_OutData@@QEAPEAUPF_ParamDef@@PEAUPF_LayerDef@@PEAUPF_EventExtra@@@Z+2246
	DD	0bH
	DD	imagerel ?DoClick@@YAJPEAUPF_InData@@PEAUPF_OutData@@QEAPEAUPF_ParamDef@@PEAUPF_LayerDef@@PEAUPF_EventExtra@@@Z+2299
	DD	0cH
	DD	imagerel ?DoClick@@YAJPEAUPF_InData@@PEAUPF_OutData@@QEAPEAUPF_ParamDef@@PEAUPF_LayerDef@@PEAUPF_EventExtra@@@Z+2322
	DD	0bH
	DD	imagerel ?DoClick@@YAJPEAUPF_InData@@PEAUPF_OutData@@QEAPEAUPF_ParamDef@@PEAUPF_LayerDef@@PEAUPF_EventExtra@@@Z+2337
	DD	09H
	DD	imagerel ?DoClick@@YAJPEAUPF_InData@@PEAUPF_OutData@@QEAPEAUPF_ParamDef@@PEAUPF_LayerDef@@PEAUPF_EventExtra@@@Z+2394
	DD	07H
	DD	imagerel ?DoClick@@YAJPEAUPF_InData@@PEAUPF_OutData@@QEAPEAUPF_ParamDef@@PEAUPF_LayerDef@@PEAUPF_EventExtra@@@Z+2413
	DD	06H
	DD	imagerel ?DoClick@@YAJPEAUPF_InData@@PEAUPF_OutData@@QEAPEAUPF_ParamDef@@PEAUPF_LayerDef@@PEAUPF_EventExtra@@@Z+2445
	DD	0dH
	DD	imagerel ?DoClick@@YAJPEAUPF_InData@@PEAUPF_OutData@@QEAPEAUPF_ParamDef@@PEAUPF_LayerDef@@PEAUPF_EventExtra@@@Z+2467
	DD	0eH
	DD	imagerel ?DoClick@@YAJPEAUPF_InData@@PEAUPF_OutData@@QEAPEAUPF_ParamDef@@PEAUPF_LayerDef@@PEAUPF_EventExtra@@@Z+2498
	DD	0fH
	DD	imagerel ?DoClick@@YAJPEAUPF_InData@@PEAUPF_OutData@@QEAPEAUPF_ParamDef@@PEAUPF_LayerDef@@PEAUPF_EventExtra@@@Z+2528
	DD	0eH
	DD	imagerel ?DoClick@@YAJPEAUPF_InData@@PEAUPF_OutData@@QEAPEAUPF_ParamDef@@PEAUPF_LayerDef@@PEAUPF_EventExtra@@@Z+2543
	DD	0dH
	DD	imagerel ?DoClick@@YAJPEAUPF_InData@@PEAUPF_OutData@@QEAPEAUPF_ParamDef@@PEAUPF_LayerDef@@PEAUPF_EventExtra@@@Z+2602
	DD	010H
	DD	imagerel ?DoClick@@YAJPEAUPF_InData@@PEAUPF_OutData@@QEAPEAUPF_ParamDef@@PEAUPF_LayerDef@@PEAUPF_EventExtra@@@Z+2624
	DD	012H
	DD	imagerel ?DoClick@@YAJPEAUPF_InData@@PEAUPF_OutData@@QEAPEAUPF_ParamDef@@PEAUPF_LayerDef@@PEAUPF_EventExtra@@@Z+2697
	DD	013H
	DD	imagerel ?DoClick@@YAJPEAUPF_InData@@PEAUPF_OutData@@QEAPEAUPF_ParamDef@@PEAUPF_LayerDef@@PEAUPF_EventExtra@@@Z+2725
	DD	012H
	DD	imagerel ?DoClick@@YAJPEAUPF_InData@@PEAUPF_OutData@@QEAPEAUPF_ParamDef@@PEAUPF_LayerDef@@PEAUPF_EventExtra@@@Z+2807
	DD	0dH
	DD	imagerel ?DoClick@@YAJPEAUPF_InData@@PEAUPF_OutData@@QEAPEAUPF_ParamDef@@PEAUPF_LayerDef@@PEAUPF_EventExtra@@@Z+2951
	DD	014H
	DD	imagerel ?DoClick@@YAJPEAUPF_InData@@PEAUPF_OutData@@QEAPEAUPF_ParamDef@@PEAUPF_LayerDef@@PEAUPF_EventExtra@@@Z+2973
	DD	016H
	DD	imagerel ?DoClick@@YAJPEAUPF_InData@@PEAUPF_OutData@@QEAPEAUPF_ParamDef@@PEAUPF_LayerDef@@PEAUPF_EventExtra@@@Z+3046
	DD	017H
	DD	imagerel ?DoClick@@YAJPEAUPF_InData@@PEAUPF_OutData@@QEAPEAUPF_ParamDef@@PEAUPF_LayerDef@@PEAUPF_EventExtra@@@Z+3074
	DD	016H
	DD	imagerel ?DoClick@@YAJPEAUPF_InData@@PEAUPF_OutData@@QEAPEAUPF_ParamDef@@PEAUPF_LayerDef@@PEAUPF_EventExtra@@@Z+3136
	DD	018H
	DD	imagerel ?DoClick@@YAJPEAUPF_InData@@PEAUPF_OutData@@QEAPEAUPF_ParamDef@@PEAUPF_LayerDef@@PEAUPF_EventExtra@@@Z+3181
	DD	019H
	DD	imagerel ?DoClick@@YAJPEAUPF_InData@@PEAUPF_OutData@@QEAPEAUPF_ParamDef@@PEAUPF_LayerDef@@PEAUPF_EventExtra@@@Z+3209
	DD	018H
	DD	imagerel ?DoClick@@YAJPEAUPF_InData@@PEAUPF_OutData@@QEAPEAUPF_ParamDef@@PEAUPF_LayerDef@@PEAUPF_EventExtra@@@Z+3414
	DD	01aH
	DD	imagerel ?DoClick@@YAJPEAUPF_InData@@PEAUPF_OutData@@QEAPEAUPF_ParamDef@@PEAUPF_LayerDef@@PEAUPF_EventExtra@@@Z+3467
	DD	01bH
	DD	imagerel ?DoClick@@YAJPEAUPF_InData@@PEAUPF_OutData@@QEAPEAUPF_ParamDef@@PEAUPF_LayerDef@@PEAUPF_EventExtra@@@Z+3490
	DD	01aH
	DD	imagerel ?DoClick@@YAJPEAUPF_InData@@PEAUPF_OutData@@QEAPEAUPF_ParamDef@@PEAUPF_LayerDef@@PEAUPF_EventExtra@@@Z+3505
	DD	018H
	DD	imagerel ?DoClick@@YAJPEAUPF_InData@@PEAUPF_OutData@@QEAPEAUPF_ParamDef@@PEAUPF_LayerDef@@PEAUPF_EventExtra@@@Z+3562
	DD	016H
	DD	imagerel ?DoClick@@YAJPEAUPF_InData@@PEAUPF_OutData@@QEAPEAUPF_ParamDef@@PEAUPF_LayerDef@@PEAUPF_EventExtra@@@Z+3581
	DD	0dH
	DD	imagerel ?DoClick@@YAJPEAUPF_InData@@PEAUPF_OutData@@QEAPEAUPF_ParamDef@@PEAUPF_LayerDef@@PEAUPF_EventExtra@@@Z+3706
	DD	01cH
	DD	imagerel ?DoClick@@YAJPEAUPF_InData@@PEAUPF_OutData@@QEAPEAUPF_ParamDef@@PEAUPF_LayerDef@@PEAUPF_EventExtra@@@Z+3728
	DD	01eH
	DD	imagerel ?DoClick@@YAJPEAUPF_InData@@PEAUPF_OutData@@QEAPEAUPF_ParamDef@@PEAUPF_LayerDef@@PEAUPF_EventExtra@@@Z+3801
	DD	01fH
	DD	imagerel ?DoClick@@YAJPEAUPF_InData@@PEAUPF_OutData@@QEAPEAUPF_ParamDef@@PEAUPF_LayerDef@@PEAUPF_EventExtra@@@Z+3829
	DD	01eH
	DD	imagerel ?DoClick@@YAJPEAUPF_InData@@PEAUPF_OutData@@QEAPEAUPF_ParamDef@@PEAUPF_LayerDef@@PEAUPF_EventExtra@@@Z+3903
	DD	020H
	DD	imagerel ?DoClick@@YAJPEAUPF_InData@@PEAUPF_OutData@@QEAPEAUPF_ParamDef@@PEAUPF_LayerDef@@PEAUPF_EventExtra@@@Z+3963
	DD	021H
	DD	imagerel ?DoClick@@YAJPEAUPF_InData@@PEAUPF_OutData@@QEAPEAUPF_ParamDef@@PEAUPF_LayerDef@@PEAUPF_EventExtra@@@Z+3991
	DD	020H
	DD	imagerel ?DoClick@@YAJPEAUPF_InData@@PEAUPF_OutData@@QEAPEAUPF_ParamDef@@PEAUPF_LayerDef@@PEAUPF_EventExtra@@@Z+4117
	DD	022H
	DD	imagerel ?DoClick@@YAJPEAUPF_InData@@PEAUPF_OutData@@QEAPEAUPF_ParamDef@@PEAUPF_LayerDef@@PEAUPF_EventExtra@@@Z+4202
	DD	020H
	DD	imagerel ?DoClick@@YAJPEAUPF_InData@@PEAUPF_OutData@@QEAPEAUPF_ParamDef@@PEAUPF_LayerDef@@PEAUPF_EventExtra@@@Z+4386
	DD	023H
	DD	imagerel ?DoClick@@YAJPEAUPF_InData@@PEAUPF_OutData@@QEAPEAUPF_ParamDef@@PEAUPF_LayerDef@@PEAUPF_EventExtra@@@Z+4414
	DD	020H
	DD	imagerel ?DoClick@@YAJPEAUPF_InData@@PEAUPF_OutData@@QEAPEAUPF_ParamDef@@PEAUPF_LayerDef@@PEAUPF_EventExtra@@@Z+4491
	DD	01eH
	DD	imagerel ?DoClick@@YAJPEAUPF_InData@@PEAUPF_OutData@@QEAPEAUPF_ParamDef@@PEAUPF_LayerDef@@PEAUPF_EventExtra@@@Z+4509
	DD	0dH
	DD	imagerel ?DoClick@@YAJPEAUPF_InData@@PEAUPF_OutData@@QEAPEAUPF_ParamDef@@PEAUPF_LayerDef@@PEAUPF_EventExtra@@@Z+4523
	DD	06H
	DD	imagerel ?DoClick@@YAJPEAUPF_InData@@PEAUPF_OutData@@QEAPEAUPF_ParamDef@@PEAUPF_LayerDef@@PEAUPF_EventExtra@@@Z+4569
	DD	024H
	DD	imagerel ?DoClick@@YAJPEAUPF_InData@@PEAUPF_OutData@@QEAPEAUPF_ParamDef@@PEAUPF_LayerDef@@PEAUPF_EventExtra@@@Z+4614
	DD	025H
	DD	imagerel ?DoClick@@YAJPEAUPF_InData@@PEAUPF_OutData@@QEAPEAUPF_ParamDef@@PEAUPF_LayerDef@@PEAUPF_EventExtra@@@Z+4636
	DD	027H
	DD	imagerel ?DoClick@@YAJPEAUPF_InData@@PEAUPF_OutData@@QEAPEAUPF_ParamDef@@PEAUPF_LayerDef@@PEAUPF_EventExtra@@@Z+4709
	DD	028H
	DD	imagerel ?DoClick@@YAJPEAUPF_InData@@PEAUPF_OutData@@QEAPEAUPF_ParamDef@@PEAUPF_LayerDef@@PEAUPF_EventExtra@@@Z+4737
	DD	027H
	DD	imagerel ?DoClick@@YAJPEAUPF_InData@@PEAUPF_OutData@@QEAPEAUPF_ParamDef@@PEAUPF_LayerDef@@PEAUPF_EventExtra@@@Z+4841
	DD	024H
	DD	imagerel ?DoClick@@YAJPEAUPF_InData@@PEAUPF_OutData@@QEAPEAUPF_ParamDef@@PEAUPF_LayerDef@@PEAUPF_EventExtra@@@Z+4963
	DD	06H
	DD	imagerel ?DoClick@@YAJPEAUPF_InData@@PEAUPF_OutData@@QEAPEAUPF_ParamDef@@PEAUPF_LayerDef@@PEAUPF_EventExtra@@@Z+4978
	DD	05H
	DD	imagerel ?DoClick@@YAJPEAUPF_InData@@PEAUPF_OutData@@QEAPEAUPF_ParamDef@@PEAUPF_LayerDef@@PEAUPF_EventExtra@@@Z+4993
	DD	04H
	DD	imagerel ?DoClick@@YAJPEAUPF_InData@@PEAUPF_OutData@@QEAPEAUPF_ParamDef@@PEAUPF_LayerDef@@PEAUPF_EventExtra@@@Z+5008
	DD	02H
	DD	imagerel ?DoClick@@YAJPEAUPF_InData@@PEAUPF_OutData@@QEAPEAUPF_ParamDef@@PEAUPF_LayerDef@@PEAUPF_EventExtra@@@Z+5022
	DD	00H
	DD	imagerel ?DoClick@@YAJPEAUPF_InData@@PEAUPF_OutData@@QEAPEAUPF_ParamDef@@PEAUPF_LayerDef@@PEAUPF_EventExtra@@@Z+5109
	DD	0ffffffffH
xdata	ENDS
;	COMDAT __real@3ff0000000000000
; File c:\users\brendan bolles\documents\development\proexr\src\aftereffects\cryptomatte_ae_ui.cpp
CONST	SEGMENT
__real@3ff0000000000000 DQ 03ff0000000000000r	; 1
; Function compile flags: /Odtp
CONST	ENDS
_TEXT	SEGMENT
suites$126628 = 48
arb_data$126629 = 464
seq_data$126632 = 472
context$126642 = 480
renderErr$127187 = 488
mouse_downFixPt$127176 = 496
optionsH$127184 = 504
streamRefH$127183 = 512
clickedItems$127173 = 520
selectionVal$127185 = 576
effectRefH$127182 = 616
validClick$126647 = 624
context$126645 = 632
frameReceiptH$127186 = 640
mouse_downPt$127174 = 648
worldH$127189 = 656
effectWorld$127191 = 672
row$127197 = 800
format$127193 = 808
selectionInfo$127211 = 824
newSelection$127210 = 872
selectionInfoList$127213 = 928
selectedString$127896 = 976
i$127342 = 1024
item$127349 = 1048
currenSelection$127632 = 1096
i$127760 = 1136
i$127829 = 1160
item$127836 = 1184
i$127863 = 1232
item$127870 = 1256
j$127879 = 1264
currItem$127886 = 1288
i$127906 = 1296
$T135304 = 1320
$T135305 = 1328
$T135309 = 1336
$T135310 = 1392
$T135311 = 1393
$T135312 = 1394
$T135313 = 1400
$T135314 = 1424
$T135315 = 1432
$T135316 = 1456
$T135317 = 1504
$T135318 = 1552
$T135319 = 1584
$T135320 = 1632
$T135321 = 1680
$T135322 = 1704
$T135323 = 1712
$T135324 = 1736
$T135325 = 1768
$T135326 = 1792
$T135327 = 1800
$T135328 = 1824
$T135329 = 1832
$T135330 = 1856
$T135331 = 1904
$T135332 = 1952
$T135333 = 1984
$T135334 = 2008
$T135335 = 2016
$T135336 = 2040
$T135337 = 2048
$T135338 = 2072
$T135339 = 2080
$T135342 = 2128
$T135343 = 2152
$T135344 = 2160
$T135345 = 2184
$T135346 = 2192
$T135347 = 2216
$T135348 = 2224
$T135349 = 2248
$T135350 = 2256
$T135419 = 2280
$T135443 = 2288
tv130 = 2296
tv136 = 2304
tv905 = 2312
tv351 = 2320
tv911 = 2328
tv378 = 2336
tv914 = 2344
tv324 = 2352
tv916 = 2360
tv317 = 2368
tv918 = 2376
tv452 = 2384
tv924 = 2392
tv459 = 2400
tv927 = 2408
tv446 = 2416
tv930 = 2424
tv546 = 2432
tv933 = 2440
tv582 = 2448
tv936 = 2456
tv443 = 2464
tv938 = 2472
tv314 = 2480
tv940 = 2488
tv70 = 2496
tv943 = 2504
tv654 = 2512
tv946 = 2520
tv696 = 2528
tv949 = 2536
tv748 = 2544
tv954 = 2552
tv739 = 2560
tv958 = 2568
tv523 = 2576
tv961 = 2584
tv788 = 2592
tv964 = 2600
tv795 = 2608
tv967 = 2616
__$ArrayPad$ = 2624
in_data$ = 2672
out_data$ = 2680
params$ = 2688
output$ = 2696
event_extra$ = 2704
?DoClick@@YAJPEAUPF_InData@@PEAUPF_OutData@@QEAPEAUPF_ParamDef@@PEAUPF_LayerDef@@PEAUPF_EventExtra@@@Z PROC ; DoClick

; 98   : {

	mov	QWORD PTR [rsp+32], r9
	mov	QWORD PTR [rsp+24], r8
	mov	QWORD PTR [rsp+16], rdx
	mov	QWORD PTR [rsp+8], rcx
	push	rbx
	push	rdi
	sub	rsp, 2648				; 00000a58H
	mov	QWORD PTR $T135443[rsp], -2
	mov	rax, QWORD PTR __security_cookie
	xor	rax, rsp
	mov	QWORD PTR __$ArrayPad$[rsp], rax
	mov	DWORD PTR $T135419[rsp], 0

; 99   : 	// When the user clicks, we change the selection in our arbitrary data.
; 100  : 	//
; 101  : 	// After Effects CC 2015 drastically changed how this is done.  For versions before CC 2015,
; 102  : 	// during render we would load all the CryptoMatte layers and store them in buffers, accessible
; 103  : 	// when the user clicked.  We just get the pixel position, and see what objects are in the buffers
; 104  : 	// at those locations.
; 105  : 	//
; 106  : 	// For CC 2015 and later, things you put in sequence data during no render longer find their way back to the
; 107  : 	// UI thread.  AE does provide calls for getting pixel buffers, including the rendered result.  But we
; 108  : 	// don't want regular ARGB pixels, we want auxiliary channels.  So what we do is render a special
; 109  : 	// selection mode (turned on via a hidden check box, then turned off after we get the buffer) that has
; 110  : 	// a couple hashes in the RGB channels.  This is otherwise known as AE135_RENDER_THREAD_MADNESS.
; 111  : 	
; 112  : 	if(params[CRYPTO_DATA]->u.arb_d.value)

	mov	rax, QWORD PTR params$[rsp]
	mov	rax, QWORD PTR [rax+8]
	cmp	QWORD PTR [rax+72], 0
	je	$LN47@DoClick

; 113  : 	{
; 114  : 		AEGP_SuiteHandler suites(in_data->pica_basicP);

	mov	rdx, QWORD PTR in_data$[rsp]
	mov	rdx, QWORD PTR [rdx+384]
	lea	rcx, QWORD PTR suites$126628[rsp]
	call	??0AEGP_SuiteHandler@@QEAA@PEBUSPBasicSuite@@@Z ; AEGP_SuiteHandler::AEGP_SuiteHandler
	npad	1

; 115  : 
; 116  : 		CryptomatteArbitraryData *arb_data = (CryptomatteArbitraryData *)PF_LOCK_HANDLE(params[CRYPTO_DATA]->u.arb_d.value);

	mov	rcx, QWORD PTR params$[rsp]
	mov	rcx, QWORD PTR [rcx+8]
	mov	rax, QWORD PTR in_data$[rsp]
	mov	rax, QWORD PTR [rax+176]
	mov	rcx, QWORD PTR [rcx+72]
	call	QWORD PTR [rax+168]
	mov	QWORD PTR arb_data$126629[rsp], rax

; 117  : 		CryptomatteSequenceData *seq_data = (CryptomatteSequenceData *)PF_LOCK_HANDLE(in_data->sequence_data);

	mov	rax, QWORD PTR in_data$[rsp]
	mov	rax, QWORD PTR [rax+176]
	mov	rcx, QWORD PTR in_data$[rsp]
	mov	rcx, QWORD PTR [rcx+320]
	call	QWORD PTR [rax+168]
	mov	QWORD PTR seq_data$126632[rsp], rax

; 118  : 
; 119  : 	#if AE135_RENDER_THREAD_MADNESS
; 120  : 		if(arb_data && seq_data)

	cmp	QWORD PTR arb_data$126629[rsp], 0
	je	$LN46@DoClick
	cmp	QWORD PTR seq_data$126632[rsp], 0
	je	$LN46@DoClick

; 121  : 		{
; 122  : 			if(seq_data->context == NULL)

	mov	rax, QWORD PTR seq_data$126632[rsp]
	cmp	QWORD PTR [rax], 0
	jne	SHORT $LN45@DoClick

; 123  : 			{
; 124  : 				seq_data->context = new CryptomatteContext(arb_data);

	mov	ecx, 276				; 00000114H
	call	??2@YAPEAX_K@Z				; operator new
	mov	QWORD PTR $T135305[rsp], rax
	cmp	QWORD PTR $T135305[rsp], 0
	je	SHORT $LN50@DoClick
	mov	rdx, QWORD PTR arb_data$126629[rsp]
	mov	rcx, QWORD PTR $T135305[rsp]
	call	??0CryptomatteContext@@QEAA@PEAUCryptomatteArbitraryData@@@Z ; CryptomatteContext::CryptomatteContext
	mov	QWORD PTR tv130[rsp], rax
	jmp	SHORT $LN51@DoClick
$LN50@DoClick:
	mov	QWORD PTR tv130[rsp], 0
$LN51@DoClick:
	mov	rax, QWORD PTR tv130[rsp]
	mov	QWORD PTR $T135304[rsp], rax
	mov	rcx, QWORD PTR seq_data$126632[rsp]
	mov	rax, QWORD PTR $T135304[rsp]
	mov	QWORD PTR [rcx], rax

; 125  : 			}
; 126  : 			else

	jmp	SHORT $LN46@DoClick
$LN45@DoClick:

; 127  : 			{
; 128  : 				CryptomatteContext *context = (CryptomatteContext *)seq_data->context;

	mov	rax, QWORD PTR seq_data$126632[rsp]
	mov	rax, QWORD PTR [rax]
	mov	QWORD PTR context$126642[rsp], rax

; 129  : 
; 130  : 				context->Update(arb_data);

	mov	rdx, QWORD PTR arb_data$126629[rsp]
	mov	rcx, QWORD PTR context$126642[rsp]
	call	?Update@CryptomatteContext@@QEAAXPEAUCryptomatteArbitraryData@@@Z ; CryptomatteContext::Update
$LN46@DoClick:

; 131  : 			}
; 132  : 		}
; 133  : 	#endif
; 134  : 		
; 135  : 		if(arb_data && seq_data && seq_data->context)

	cmp	QWORD PTR arb_data$126629[rsp], 0
	je	$LN43@DoClick
	cmp	QWORD PTR seq_data$126632[rsp], 0
	je	$LN43@DoClick
	mov	rax, QWORD PTR seq_data$126632[rsp]
	cmp	QWORD PTR [rax], 0
	je	$LN43@DoClick

; 136  : 		{
; 137  : 			CryptomatteContext *context = (CryptomatteContext *)seq_data->context;

	mov	rax, QWORD PTR seq_data$126632[rsp]
	mov	rax, QWORD PTR [rax]
	mov	QWORD PTR context$126645[rsp], rax

; 138  : 			
; 139  : 			bool validClick = false;

	mov	BYTE PTR validClick$126647[rsp], 0

; 140  : 			std::set<std::string> clickedItems;

	lea	rcx, QWORD PTR clickedItems$127173[rsp]
	call	??0?$set@V?$basic_string@DU?$char_traits@D@std@@V?$allocator@D@2@@std@@U?$less@V?$basic_string@DU?$char_traits@D@std@@V?$allocator@D@2@@std@@@2@V?$allocator@V?$basic_string@DU?$char_traits@D@std@@V?$allocator@D@2@@std@@@2@@std@@QEAA@XZ ; std::set<std::basic_string<char,std::char_traits<char>,std::allocator<char> >,std::less<std::basic_string<char,std::char_traits<char>,std::allocator<char> > >,std::allocator<std::basic_string<char,std::char_traits<char>,std::allocator<char> > > >::set<std::basic_string<char,std::char_traits<char>,std::allocator<char> >,std::less<std::basic_string<char,std::char_traits<char>,std::allocator<char> > >,std::allocator<std::basic_string<char,std::char_traits<char>,std::allocator<char> > > >
	npad	1

; 141  : 
; 142  : 			PF_Point mouse_downPt = *(reinterpret_cast<PF_Point*>(&event_extra->u.do_click.screen_point));

	mov	rax, QWORD PTR event_extra$[rsp]
	mov	rax, QWORD PTR [rax+20]
	mov	QWORD PTR mouse_downPt$127174[rsp], rax

; 143  : 			
; 144  : 			PF_FixedPoint mouse_downFixPt;
; 145  : 			mouse_downFixPt.x = INT2FIX(mouse_downPt.h);

	mov	eax, DWORD PTR mouse_downPt$127174[rsp]
	shl	eax, 16
	mov	DWORD PTR mouse_downFixPt$127176[rsp], eax

; 146  : 			mouse_downFixPt.y = INT2FIX(mouse_downPt.v);

	mov	eax, DWORD PTR mouse_downPt$127174[rsp+4]
	shl	eax, 16
	mov	DWORD PTR mouse_downFixPt$127176[rsp+4], eax

; 147  : 			
; 148  : 			event_extra->cbs.frame_to_source(event_extra->cbs.refcon, event_extra->contextH, &mouse_downFixPt);

	lea	r8, QWORD PTR mouse_downFixPt$127176[rsp]
	mov	rdx, QWORD PTR event_extra$[rsp]
	mov	rdx, QWORD PTR [rdx]
	mov	rcx, QWORD PTR event_extra$[rsp]
	mov	rcx, QWORD PTR [rcx+128]
	mov	rax, QWORD PTR event_extra$[rsp]
	call	QWORD PTR [rax+176]

; 149  : 			
; 150  : 			if((*event_extra->contextH)->w_type == PF_Window_COMP)

	mov	rax, QWORD PTR event_extra$[rsp]
	mov	rax, QWORD PTR [rax]
	mov	rax, QWORD PTR [rax]
	cmp	DWORD PTR [rax+4], 0
	jne	SHORT $LN42@DoClick

; 151  : 				event_extra->cbs.comp_to_layer(event_extra->cbs.refcon, event_extra->contextH, in_data->current_time, in_data->time_scale, &mouse_downFixPt);

	lea	rax, QWORD PTR mouse_downFixPt$127176[rsp]
	mov	QWORD PTR [rsp+32], rax
	mov	rax, QWORD PTR in_data$[rsp]
	mov	r9d, DWORD PTR [rax+240]
	mov	rax, QWORD PTR in_data$[rsp]
	mov	r8d, DWORD PTR [rax+224]
	mov	rdx, QWORD PTR event_extra$[rsp]
	mov	rdx, QWORD PTR [rdx]
	mov	rcx, QWORD PTR event_extra$[rsp]
	mov	rcx, QWORD PTR [rcx+128]
	mov	rax, QWORD PTR event_extra$[rsp]
	call	QWORD PTR [rax+144]
$LN42@DoClick:

; 152  : 			
; 153  : 		#if AE135_RENDER_THREAD_MADNESS
; 154  : 			mouse_downPt.h = FIX2INT(mouse_downFixPt.x);

	mov	eax, DWORD PTR mouse_downFixPt$127176[rsp]
	sar	eax, 16
	mov	DWORD PTR mouse_downPt$127174[rsp], eax

; 155  : 			mouse_downPt.v = FIX2INT(mouse_downFixPt.y);

	mov	eax, DWORD PTR mouse_downFixPt$127176[rsp+4]
	sar	eax, 16
	mov	DWORD PTR mouse_downPt$127174[rsp+4], eax

; 156  : 
; 157  : 			//suites.UtilitySuite()->AEGP_StartUndoGroup("Cryptomatte selection");
; 158  : 
; 159  : 			AEGP_EffectRefH effectRefH = NULL;

	mov	QWORD PTR effectRefH$127182[rsp], 0

; 160  : 			
; 161  : 			suites.PFInterfaceSuite()->AEGP_GetNewEffectForEffect(gAEGPPluginID, in_data->effect_ref, &effectRefH);

	lea	rcx, QWORD PTR suites$126628[rsp]
	call	?PFInterfaceSuite@AEGP_SuiteHandler@@QEBAPEAUAEGP_PFInterfaceSuite1@@XZ ; AEGP_SuiteHandler::PFInterfaceSuite
	lea	r8, QWORD PTR effectRefH$127182[rsp]
	mov	rdx, QWORD PTR in_data$[rsp]
	mov	rdx, QWORD PTR [rdx+184]
	mov	ecx, DWORD PTR ?gAEGPPluginID@@3JA	; gAEGPPluginID
	call	QWORD PTR [rax+8]

; 162  : 
; 163  : 			AEGP_StreamRefH streamRefH = NULL;

	mov	QWORD PTR streamRefH$127183[rsp], 0

; 164  : 			suites.StreamSuite()->AEGP_GetNewEffectStreamByIndex(gAEGPPluginID, effectRefH, CRYPTO_SELECTION_MODE, &streamRefH);

	lea	rcx, QWORD PTR suites$126628[rsp]
	call	?StreamSuite@AEGP_SuiteHandler@@QEBAPEAUAEGP_StreamSuite3@@XZ ; AEGP_SuiteHandler::StreamSuite
	lea	r9, QWORD PTR streamRefH$127183[rsp]
	mov	r8d, 3
	mov	rdx, QWORD PTR effectRefH$127182[rsp]
	mov	ecx, DWORD PTR ?gAEGPPluginID@@3JA	; gAEGPPluginID
	call	QWORD PTR [rax+40]

; 165  : 
; 166  : 			AEGP_LayerRenderOptionsH optionsH = NULL;

	mov	QWORD PTR optionsH$127184[rsp], 0

; 167  : 			suites.LayerRenderOptionsSuite()->AEGP_NewFromDownstreamOfEffect(gAEGPPluginID,	effectRefH,	&optionsH);

	lea	rcx, QWORD PTR suites$126628[rsp]
	call	?LayerRenderOptionsSuite@AEGP_SuiteHandler@@QEBAPEAUAEGP_LayerRenderOptionsSuite2@@XZ ; AEGP_SuiteHandler::LayerRenderOptionsSuite
	lea	r8, QWORD PTR optionsH$127184[rsp]
	mov	rdx, QWORD PTR effectRefH$127182[rsp]
	mov	ecx, DWORD PTR ?gAEGPPluginID@@3JA	; gAEGPPluginID
	call	QWORD PTR [rax+16]

; 168  : 
; 169  : 			AEGP_StreamValue2 selectionVal;
; 170  : 			selectionVal.val.one_d = TRUE;

	movsdx	xmm5, QWORD PTR __real@3ff0000000000000
	movsdx	QWORD PTR selectionVal$127185[rsp+8], xmm5

; 171  : 
; 172  : 			suites.StreamSuite()->AEGP_SetStreamValue(gAEGPPluginID, streamRefH, &selectionVal);

	lea	rcx, QWORD PTR suites$126628[rsp]
	call	?StreamSuite@AEGP_SuiteHandler@@QEBAPEAUAEGP_StreamSuite3@@XZ ; AEGP_SuiteHandler::StreamSuite
	lea	r8, QWORD PTR selectionVal$127185[rsp]
	mov	rdx, QWORD PTR streamRefH$127183[rsp]
	mov	ecx, DWORD PTR ?gAEGPPluginID@@3JA	; gAEGPPluginID
	call	QWORD PTR [rax+120]

; 173  : 
; 174  : 			suites.LayerRenderOptionsSuite()->AEGP_SetWorldType(optionsH, AEGP_WorldType_32);

	lea	rcx, QWORD PTR suites$126628[rsp]
	call	?LayerRenderOptionsSuite@AEGP_SuiteHandler@@QEBAPEAUAEGP_LayerRenderOptionsSuite2@@XZ ; AEGP_SuiteHandler::LayerRenderOptionsSuite
	mov	edx, 3
	mov	rcx, QWORD PTR optionsH$127184[rsp]
	call	QWORD PTR [rax+72]

; 175  : 
; 176  : 			suites.LayerRenderOptionsSuite()->AEGP_SetDownsampleFactor(optionsH, in_data->downsample_x.num, in_data->downsample_y.num);

	lea	rcx, QWORD PTR suites$126628[rsp]
	call	?LayerRenderOptionsSuite@AEGP_SuiteHandler@@QEBAPEAUAEGP_LayerRenderOptionsSuite2@@XZ ; AEGP_SuiteHandler::LayerRenderOptionsSuite
	mov	r11, rax
	mov	rax, QWORD PTR in_data$[rsp]
	movzx	r8d, WORD PTR [rax+292]
	mov	rax, QWORD PTR in_data$[rsp]
	movzx	edx, WORD PTR [rax+284]
	mov	rcx, QWORD PTR optionsH$127184[rsp]
	call	QWORD PTR [r11+88]

; 177  : 			
; 178  : 			AEGP_FrameReceiptH frameReceiptH = NULL;

	mov	QWORD PTR frameReceiptH$127186[rsp], 0

; 179  : 			A_Err renderErr = suites.RenderSuite5()->AEGP_RenderAndCheckoutLayerFrame(optionsH,	NULL, NULL, &frameReceiptH);

	lea	rcx, QWORD PTR suites$126628[rsp]
	call	?RenderSuite5@AEGP_SuiteHandler@@QEBAPEAUAEGP_RenderSuite5@@XZ ; AEGP_SuiteHandler::RenderSuite5
	lea	r9, QWORD PTR frameReceiptH$127186[rsp]
	xor	r8d, r8d
	xor	edx, edx
	mov	rcx, QWORD PTR optionsH$127184[rsp]
	call	QWORD PTR [rax+8]
	mov	DWORD PTR renderErr$127187[rsp], eax

; 180  : 
; 181  : 			if(renderErr == A_Err_NONE && frameReceiptH != NULL)

	cmp	DWORD PTR renderErr$127187[rsp], 0
	jne	$LN41@DoClick
	cmp	QWORD PTR frameReceiptH$127186[rsp], 0
	je	$LN41@DoClick

; 182  : 			{
; 183  : 				AEGP_WorldH worldH = NULL;

	mov	QWORD PTR worldH$127189[rsp], 0

; 184  : 				suites.RenderSuite5()->AEGP_GetReceiptWorld(frameReceiptH, &worldH);

	lea	rcx, QWORD PTR suites$126628[rsp]
	call	?RenderSuite5@AEGP_SuiteHandler@@QEBAPEAUAEGP_RenderSuite5@@XZ ; AEGP_SuiteHandler::RenderSuite5
	lea	rdx, QWORD PTR worldH$127189[rsp]
	mov	rcx, QWORD PTR frameReceiptH$127186[rsp]
	call	QWORD PTR [rax+40]

; 185  : 
; 186  : 				if(worldH != NULL)

	cmp	QWORD PTR worldH$127189[rsp], 0
	je	$LN40@DoClick

; 187  : 				{
; 188  : 					PF_EffectWorld effectWorld;
; 189  : 					suites.AEGPWorldSuite()->AEGP_FillOutPFEffectWorld(worldH, &effectWorld);

	lea	rcx, QWORD PTR suites$126628[rsp]
	call	?AEGPWorldSuite@AEGP_SuiteHandler@@QEBAPEAUAEGP_WorldSuite3@@XZ ; AEGP_SuiteHandler::AEGPWorldSuite
	lea	rdx, QWORD PTR effectWorld$127191[rsp]
	mov	rcx, QWORD PTR worldH$127189[rsp]
	call	QWORD PTR [rax+64]

; 190  : 
; 191  : 					if(mouse_downPt.h >= 0 && mouse_downPt.h < effectWorld.width &&
; 192  : 						mouse_downPt.v >= 0 && mouse_downPt.v < effectWorld.height)

	cmp	DWORD PTR mouse_downPt$127174[rsp], 0
	jl	$LN40@DoClick
	mov	eax, DWORD PTR effectWorld$127191[rsp+36]
	cmp	DWORD PTR mouse_downPt$127174[rsp], eax
	jge	$LN40@DoClick
	cmp	DWORD PTR mouse_downPt$127174[rsp+4], 0
	jl	$LN40@DoClick
	mov	eax, DWORD PTR effectWorld$127191[rsp+40]
	cmp	DWORD PTR mouse_downPt$127174[rsp+4], eax
	jge	$LN40@DoClick

; 193  : 					{
; 194  : 						PF_PixelFormat format = PF_PixelFormat_INVALID;

	mov	DWORD PTR format$127193[rsp], 1717854562 ; 66646162H

; 195  : 						suites.PFWorldSuite()->PF_GetPixelFormat(&effectWorld, &format);

	lea	rcx, QWORD PTR suites$126628[rsp]
	call	?PFWorldSuite@AEGP_SuiteHandler@@QEBAPEAUPF_WorldSuite2@@XZ ; AEGP_SuiteHandler::PFWorldSuite
	lea	rdx, QWORD PTR format$127193[rsp]
	lea	rcx, QWORD PTR effectWorld$127191[rsp]
	call	QWORD PTR [rax+16]

; 196  : 						assert(format == PF_PixelFormat_ARGB128);

	cmp	DWORD PTR format$127193[rsp], 842229089	; 32336561H
	je	SHORT $LN52@DoClick
	mov	r8d, 196				; 000000c4H
	lea	rdx, OFFSET FLAT:$SG127195
	lea	rcx, OFFSET FLAT:$SG127196
	call	QWORD PTR __imp__wassert
	xor	r11d, r11d
$LN52@DoClick:

; 197  : 
; 198  : 						PF_PixelFloat *row = (PF_PixelFloat *)((char *)effectWorld.data + (effectWorld.rowbytes * mouse_downPt.v));

	mov	eax, DWORD PTR effectWorld$127191[rsp+32]
	imul	eax, DWORD PTR mouse_downPt$127174[rsp+4]
	movsxd	rcx, eax
	mov	rax, QWORD PTR effectWorld$127191[rsp+24]
	add	rax, rcx
	mov	QWORD PTR row$127197[rsp], rax

; 199  : 
; 200  : 						clickedItems = context->GetItemsFromSelectionColor( row[mouse_downPt.h] );

	movsxd	rax, DWORD PTR mouse_downPt$127174[rsp]
	imul	rax, 16
	mov	r8, QWORD PTR row$127197[rsp]
	add	r8, rax
	lea	rdx, QWORD PTR $T135309[rsp]
	mov	rcx, QWORD PTR context$126645[rsp]
	call	?GetItemsFromSelectionColor@CryptomatteContext@@QEBA?AV?$set@V?$basic_string@DU?$char_traits@D@std@@V?$allocator@D@2@@std@@U?$less@V?$basic_string@DU?$char_traits@D@std@@V?$allocator@D@2@@std@@@2@V?$allocator@V?$basic_string@DU?$char_traits@D@std@@V?$allocator@D@2@@std@@@2@@std@@AEBUPF_PixelFloat@@@Z ; CryptomatteContext::GetItemsFromSelectionColor
	mov	QWORD PTR tv136[rsp], rax
	mov	rax, QWORD PTR tv136[rsp]
	mov	QWORD PTR tv905[rsp], rax
	mov	rdx, QWORD PTR tv905[rsp]
	lea	rcx, QWORD PTR clickedItems$127173[rsp]
	call	??4?$set@V?$basic_string@DU?$char_traits@D@std@@V?$allocator@D@2@@std@@U?$less@V?$basic_string@DU?$char_traits@D@std@@V?$allocator@D@2@@std@@@2@V?$allocator@V?$basic_string@DU?$char_traits@D@std@@V?$allocator@D@2@@std@@@2@@std@@QEAAAEAV01@AEBV01@@Z
	npad	1
	lea	rcx, QWORD PTR $T135309[rsp]
	call	??1?$set@V?$basic_string@DU?$char_traits@D@std@@V?$allocator@D@2@@std@@U?$less@V?$basic_string@DU?$char_traits@D@std@@V?$allocator@D@2@@std@@@2@V?$allocator@V?$basic_string@DU?$char_traits@D@std@@V?$allocator@D@2@@std@@@2@@std@@QEAA@XZ

; 201  : 
; 202  : 						validClick = true;

	mov	BYTE PTR validClick$126647[rsp], 1
$LN40@DoClick:

; 203  : 					}
; 204  : 				}
; 205  : 
; 206  : 				suites.RenderSuite5()->AEGP_CheckinFrame(frameReceiptH);

	lea	rcx, QWORD PTR suites$126628[rsp]
	call	?RenderSuite5@AEGP_SuiteHandler@@QEBAPEAUAEGP_RenderSuite5@@XZ ; AEGP_SuiteHandler::RenderSuite5
	mov	rcx, QWORD PTR frameReceiptH$127186[rsp]
	call	QWORD PTR [rax+32]
$LN41@DoClick:

; 207  : 			}
; 208  : 
; 209  : 			suites.LayerRenderOptionsSuite()->AEGP_Dispose(optionsH);

	lea	rcx, QWORD PTR suites$126628[rsp]
	call	?LayerRenderOptionsSuite@AEGP_SuiteHandler@@QEBAPEAUAEGP_LayerRenderOptionsSuite2@@XZ ; AEGP_SuiteHandler::LayerRenderOptionsSuite
	mov	rcx, QWORD PTR optionsH$127184[rsp]
	call	QWORD PTR [rax+32]

; 210  : 
; 211  : 			selectionVal.val.one_d = FALSE;

	xorpd	xmm5, xmm5
	movsdx	QWORD PTR selectionVal$127185[rsp+8], xmm5

; 212  : 
; 213  : 			suites.StreamSuite()->AEGP_SetStreamValue(gAEGPPluginID, streamRefH, &selectionVal);

	lea	rcx, QWORD PTR suites$126628[rsp]
	call	?StreamSuite@AEGP_SuiteHandler@@QEBAPEAUAEGP_StreamSuite3@@XZ ; AEGP_SuiteHandler::StreamSuite
	lea	r8, QWORD PTR selectionVal$127185[rsp]
	mov	rdx, QWORD PTR streamRefH$127183[rsp]
	mov	ecx, DWORD PTR ?gAEGPPluginID@@3JA	; gAEGPPluginID
	call	QWORD PTR [rax+120]

; 214  : 
; 215  : 			suites.StreamSuite()->AEGP_DisposeStream(streamRefH);

	lea	rcx, QWORD PTR suites$126628[rsp]
	call	?StreamSuite@AEGP_SuiteHandler@@QEBAPEAUAEGP_StreamSuite3@@XZ ; AEGP_SuiteHandler::StreamSuite
	mov	rcx, QWORD PTR streamRefH$127183[rsp]
	call	QWORD PTR [rax+56]

; 216  : 
; 217  : 			suites.EffectSuite()->AEGP_DisposeEffect(effectRefH);

	lea	rcx, QWORD PTR suites$126628[rsp]
	call	?EffectSuite@AEGP_SuiteHandler@@QEBAPEAUAEGP_EffectSuite3@@XZ ; AEGP_SuiteHandler::EffectSuite
	mov	rcx, QWORD PTR effectRefH$127182[rsp]
	call	QWORD PTR [rax+64]

; 218  : 
; 219  : 			//suites.UtilitySuite()->AEGP_EndUndoGroup();
; 220  : 		#else
; 221  : 			assert(!params[CRYPTO_SELECTION_MODE]->u.bd.value);
; 222  : 
; 223  : 			if( context->Valid() )
; 224  : 			{
; 225  : 				mouse_downPt.h = FIX2INT(mouse_downFixPt.x * context->DownsampleX().num / context->DownsampleX().den);
; 226  : 				mouse_downPt.v = FIX2INT(mouse_downFixPt.y * context->DownsampleY().num / context->DownsampleY().den);
; 227  : 
; 228  : 				if(mouse_downPt.h > 0 && mouse_downPt.h < context->Width() &&
; 229  : 					mouse_downPt.v > 0 && mouse_downPt.v < context->Height())
; 230  : 				{
; 231  : 					validClick = true;
; 232  : 
; 233  : 					clickedItems = context->GetItems(mouse_downPt.h, mouse_downPt.v);
; 234  : 				}
; 235  : 			}
; 236  : 		#endif // AE135_RENDER_THREAD_MADNESS
; 237  : 
; 238  : 			if(validClick)

	movzx	eax, BYTE PTR validClick$126647[rsp]
	test	eax, eax
	je	$LN38@DoClick

; 239  : 			{
; 240  : 				std::set<std::string> newSelection;

	lea	rcx, QWORD PTR newSelection$127210[rsp]
	call	??0?$set@V?$basic_string@DU?$char_traits@D@std@@V?$allocator@D@2@@std@@U?$less@V?$basic_string@DU?$char_traits@D@std@@V?$allocator@D@2@@std@@@2@V?$allocator@V?$basic_string@DU?$char_traits@D@std@@V?$allocator@D@2@@std@@@2@@std@@QEAA@XZ ; std::set<std::basic_string<char,std::char_traits<char>,std::allocator<char> >,std::less<std::basic_string<char,std::char_traits<char>,std::allocator<char> > >,std::allocator<std::basic_string<char,std::char_traits<char>,std::allocator<char> > > >::set<std::basic_string<char,std::char_traits<char>,std::allocator<char> >,std::less<std::basic_string<char,std::char_traits<char>,std::allocator<char> > >,std::allocator<std::basic_string<char,std::char_traits<char>,std::allocator<char> > > >
	npad	1

; 241  : 				std::string selectionInfo, selectionInfoList; 

	mov	dl, 1
	lea	rcx, QWORD PTR $T135310[rsp]
	call	??0_Has_debug_it@?$basic_string@DU?$char_traits@D@std@@V?$allocator@D@2@@std@@QEAA@_N@Z ; std::basic_string<char,std::char_traits<char>,std::allocator<char> >::_Has_debug_it::_Has_debug_it
	movzx	edx, BYTE PTR [rax]
	lea	rcx, QWORD PTR selectionInfo$127211[rsp]
	call	QWORD PTR __imp_??0?$basic_string@DU?$char_traits@D@std@@V?$allocator@D@2@@std@@QEAA@U_Has_debug_it@01@@Z
	npad	1
	mov	dl, 1
	lea	rcx, QWORD PTR $T135311[rsp]
	call	??0_Has_debug_it@?$basic_string@DU?$char_traits@D@std@@V?$allocator@D@2@@std@@QEAA@_N@Z ; std::basic_string<char,std::char_traits<char>,std::allocator<char> >::_Has_debug_it::_Has_debug_it
	movzx	edx, BYTE PTR [rax]
	lea	rcx, QWORD PTR selectionInfoList$127213[rsp]
	call	QWORD PTR __imp_??0?$basic_string@DU?$char_traits@D@std@@V?$allocator@D@2@@std@@QEAA@U_Has_debug_it@01@@Z
	npad	1

; 242  : 				
; 243  : 			#define ALL_MODIFIERS (PF_Mod_CMD_CTRL_KEY | PF_Mod_SHIFT_KEY | PF_Mod_OPT_ALT_KEY | PF_Mod_MAC_CONTROL_KEY)
; 244  : 			
; 245  : 				if((event_extra->u.do_click.modifiers & ALL_MODIFIERS) == 0) // select

	mov	rax, QWORD PTR event_extra$[rsp]
	mov	eax, DWORD PTR [rax+32]
	and	eax, 6912				; 00001b00H
	test	eax, eax
	jne	$LN37@DoClick

; 246  : 				{
; 247  : 					if(clickedItems.size() > 0)

	lea	rcx, QWORD PTR clickedItems$127173[rsp]
	call	?size@?$_Tree@V?$_Tset_traits@V?$basic_string@DU?$char_traits@D@std@@V?$allocator@D@2@@std@@U?$less@V?$basic_string@DU?$char_traits@D@std@@V?$allocator@D@2@@std@@@2@V?$allocator@V?$basic_string@DU?$char_traits@D@std@@V?$allocator@D@2@@std@@@2@$0A@@std@@@std@@QEBA_KXZ ; std::_Tree<std::_Tset_traits<std::basic_string<char,std::char_traits<char>,std::allocator<char> >,std::less<std::basic_string<char,std::char_traits<char>,std::allocator<char> > >,std::allocator<std::basic_string<char,std::char_traits<char>,std::allocator<char> > >,0> >::size
	test	rax, rax
	jbe	SHORT $LN36@DoClick

; 248  : 						selectionInfo = "Cryptomatte selection set to ";

	lea	rdx, OFFSET FLAT:$SG127218
	lea	rcx, QWORD PTR selectionInfo$127211[rsp]
	call	QWORD PTR __imp_??4?$basic_string@DU?$char_traits@D@std@@V?$allocator@D@2@@std@@QEAAAEAV01@PEBD@Z

; 249  : 					else

	jmp	SHORT $LN35@DoClick
$LN36@DoClick:

; 250  : 						selectionInfo = "Cryptomatte selection emptied.";

	lea	rdx, OFFSET FLAT:$SG127220
	lea	rcx, QWORD PTR selectionInfo$127211[rsp]
	call	QWORD PTR __imp_??4?$basic_string@DU?$char_traits@D@std@@V?$allocator@D@2@@std@@QEAAAEAV01@PEBD@Z
$LN35@DoClick:

; 251  : 
; 252  : 					for(std::set<std::string>::iterator i = clickedItems.begin(); i != clickedItems.end(); ++i)

	lea	rdx, QWORD PTR i$127342[rsp]
	lea	rcx, QWORD PTR clickedItems$127173[rsp]
	call	?begin@?$_Tree@V?$_Tset_traits@V?$basic_string@DU?$char_traits@D@std@@V?$allocator@D@2@@std@@U?$less@V?$basic_string@DU?$char_traits@D@std@@V?$allocator@D@2@@std@@@2@V?$allocator@V?$basic_string@DU?$char_traits@D@std@@V?$allocator@D@2@@std@@@2@$0A@@std@@@std@@QEAA?AViterator@12@XZ ; std::_Tree<std::_Tset_traits<std::basic_string<char,std::char_traits<char>,std::allocator<char> >,std::less<std::basic_string<char,std::char_traits<char>,std::allocator<char> > >,std::allocator<std::basic_string<char,std::char_traits<char>,std::allocator<char> > >,0> >::begin
	npad	1
	jmp	SHORT $LN34@DoClick
$LN33@DoClick:
	lea	rcx, QWORD PTR i$127342[rsp]
	call	??Eiterator@?$_Tree@V?$_Tset_traits@V?$basic_string@DU?$char_traits@D@std@@V?$allocator@D@2@@std@@U?$less@V?$basic_string@DU?$char_traits@D@std@@V?$allocator@D@2@@std@@@2@V?$allocator@V?$basic_string@DU?$char_traits@D@std@@V?$allocator@D@2@@std@@@2@$0A@@std@@@std@@QEAAAEAV012@XZ ; std::_Tree<std::_Tset_traits<std::basic_string<char,std::char_traits<char>,std::allocator<char> >,std::less<std::basic_string<char,std::char_traits<char>,std::allocator<char> > >,std::allocator<std::basic_string<char,std::char_traits<char>,std::allocator<char> > >,0> >::iterator::operator++
$LN34@DoClick:
	lea	rdx, QWORD PTR $T135313[rsp]
	lea	rcx, QWORD PTR clickedItems$127173[rsp]
	call	?end@?$_Tree@V?$_Tset_traits@V?$basic_string@DU?$char_traits@D@std@@V?$allocator@D@2@@std@@U?$less@V?$basic_string@DU?$char_traits@D@std@@V?$allocator@D@2@@std@@@2@V?$allocator@V?$basic_string@DU?$char_traits@D@std@@V?$allocator@D@2@@std@@@2@$0A@@std@@@std@@QEAA?AViterator@12@XZ ; std::_Tree<std::_Tset_traits<std::basic_string<char,std::char_traits<char>,std::allocator<char> >,std::less<std::basic_string<char,std::char_traits<char>,std::allocator<char> > >,std::allocator<std::basic_string<char,std::char_traits<char>,std::allocator<char> > >,0> >::end
	mov	QWORD PTR tv351[rsp], rax
	mov	rax, QWORD PTR tv351[rsp]
	mov	QWORD PTR tv911[rsp], rax
	mov	rdx, QWORD PTR tv911[rsp]
	lea	rcx, QWORD PTR i$127342[rsp]
	call	??9const_iterator@?$_Tree@V?$_Tset_traits@V?$basic_string@DU?$char_traits@D@std@@V?$allocator@D@2@@std@@U?$less@V?$basic_string@DU?$char_traits@D@std@@V?$allocator@D@2@@std@@@2@V?$allocator@V?$basic_string@DU?$char_traits@D@std@@V?$allocator@D@2@@std@@@2@$0A@@std@@@std@@QEBA_NAEBV012@@Z ; std::_Tree<std::_Tset_traits<std::basic_string<char,std::char_traits<char>,std::allocator<char> >,std::less<std::basic_string<char,std::char_traits<char>,std::allocator<char> > >,std::allocator<std::basic_string<char,std::char_traits<char>,std::allocator<char> > >,0> >::const_iterator::operator!=
	mov	BYTE PTR $T135312[rsp], al
	lea	rcx, QWORD PTR $T135313[rsp]
	call	??1iterator@?$_Tree@V?$_Tset_traits@V?$basic_string@DU?$char_traits@D@std@@V?$allocator@D@2@@std@@U?$less@V?$basic_string@DU?$char_traits@D@std@@V?$allocator@D@2@@std@@@2@V?$allocator@V?$basic_string@DU?$char_traits@D@std@@V?$allocator@D@2@@std@@@2@$0A@@std@@@std@@QEAA@XZ
	movzx	r11d, BYTE PTR $T135312[rsp]
	test	r11d, r11d
	je	$LN32@DoClick

; 253  : 					{
; 254  : 						std::string item = *i;

	lea	rcx, QWORD PTR i$127342[rsp]
	call	??Diterator@?$_Tree@V?$_Tset_traits@V?$basic_string@DU?$char_traits@D@std@@V?$allocator@D@2@@std@@U?$less@V?$basic_string@DU?$char_traits@D@std@@V?$allocator@D@2@@std@@@2@V?$allocator@V?$basic_string@DU?$char_traits@D@std@@V?$allocator@D@2@@std@@@2@$0A@@std@@@std@@QEBAAEAV?$basic_string@DU?$char_traits@D@std@@V?$allocator@D@2@@2@XZ ; std::_Tree<std::_Tset_traits<std::basic_string<char,std::char_traits<char>,std::allocator<char> >,std::less<std::basic_string<char,std::char_traits<char>,std::allocator<char> > >,std::allocator<std::basic_string<char,std::char_traits<char>,std::allocator<char> > >,0> >::iterator::operator*
	mov	rdx, rax
	lea	rcx, QWORD PTR item$127349[rsp]
	call	QWORD PTR __imp_??0?$basic_string@DU?$char_traits@D@std@@V?$allocator@D@2@@std@@QEAA@AEBV01@@Z
	npad	1

; 255  : 
; 256  : 						if(i != clickedItems.begin())

	lea	rdx, QWORD PTR $T135315[rsp]
	lea	rcx, QWORD PTR clickedItems$127173[rsp]
	call	?begin@?$_Tree@V?$_Tset_traits@V?$basic_string@DU?$char_traits@D@std@@V?$allocator@D@2@@std@@U?$less@V?$basic_string@DU?$char_traits@D@std@@V?$allocator@D@2@@std@@@2@V?$allocator@V?$basic_string@DU?$char_traits@D@std@@V?$allocator@D@2@@std@@@2@$0A@@std@@@std@@QEAA?AViterator@12@XZ ; std::_Tree<std::_Tset_traits<std::basic_string<char,std::char_traits<char>,std::allocator<char> >,std::less<std::basic_string<char,std::char_traits<char>,std::allocator<char> > >,std::allocator<std::basic_string<char,std::char_traits<char>,std::allocator<char> > >,0> >::begin
	mov	QWORD PTR tv378[rsp], rax
	mov	rax, QWORD PTR tv378[rsp]
	mov	QWORD PTR tv914[rsp], rax
	mov	rdx, QWORD PTR tv914[rsp]
	lea	rcx, QWORD PTR i$127342[rsp]
	call	??9const_iterator@?$_Tree@V?$_Tset_traits@V?$basic_string@DU?$char_traits@D@std@@V?$allocator@D@2@@std@@U?$less@V?$basic_string@DU?$char_traits@D@std@@V?$allocator@D@2@@std@@@2@V?$allocator@V?$basic_string@DU?$char_traits@D@std@@V?$allocator@D@2@@std@@@2@$0A@@std@@@std@@QEBA_NAEBV012@@Z ; std::_Tree<std::_Tset_traits<std::basic_string<char,std::char_traits<char>,std::allocator<char> >,std::less<std::basic_string<char,std::char_traits<char>,std::allocator<char> > >,std::allocator<std::basic_string<char,std::char_traits<char>,std::allocator<char> > >,0> >::const_iterator::operator!=
	mov	BYTE PTR $T135314[rsp], al
	lea	rcx, QWORD PTR $T135315[rsp]
	call	??1iterator@?$_Tree@V?$_Tset_traits@V?$basic_string@DU?$char_traits@D@std@@V?$allocator@D@2@@std@@U?$less@V?$basic_string@DU?$char_traits@D@std@@V?$allocator@D@2@@std@@@2@V?$allocator@V?$basic_string@DU?$char_traits@D@std@@V?$allocator@D@2@@std@@@2@$0A@@std@@@std@@QEAA@XZ
	movzx	r11d, BYTE PTR $T135314[rsp]
	test	r11d, r11d
	je	SHORT $LN31@DoClick

; 257  : 							selectionInfoList += ", ";

	lea	rdx, OFFSET FLAT:$SG127353
	lea	rcx, QWORD PTR selectionInfoList$127213[rsp]
	call	QWORD PTR __imp_??Y?$basic_string@DU?$char_traits@D@std@@V?$allocator@D@2@@std@@QEAAAEAV01@PEBD@Z
$LN31@DoClick:

; 258  : 
; 259  : 						selectionInfoList += item;

	lea	rdx, QWORD PTR item$127349[rsp]
	lea	rcx, QWORD PTR selectionInfoList$127213[rsp]
	call	QWORD PTR __imp_??Y?$basic_string@DU?$char_traits@D@std@@V?$allocator@D@2@@std@@QEAAAEAV01@AEBV01@@Z

; 260  : 						
; 261  : 						if(item.find(" ") != std::string::npos || item.find(",") != std::string::npos)

	xor	r8d, r8d
	lea	rdx, OFFSET FLAT:$SG127356
	lea	rcx, QWORD PTR item$127349[rsp]
	call	QWORD PTR __imp_?find@?$basic_string@DU?$char_traits@D@std@@V?$allocator@D@2@@std@@QEBA_KPEBD_K@Z
	mov	r11, rax
	mov	rax, QWORD PTR __imp_?npos@?$basic_string@DU?$char_traits@D@std@@V?$allocator@D@2@@std@@2_KB
	cmp	r11, QWORD PTR [rax]
	jne	SHORT $LN29@DoClick
	xor	r8d, r8d
	lea	rdx, OFFSET FLAT:$SG127357
	lea	rcx, QWORD PTR item$127349[rsp]
	call	QWORD PTR __imp_?find@?$basic_string@DU?$char_traits@D@std@@V?$allocator@D@2@@std@@QEBA_KPEBD_K@Z
	mov	r11, rax
	mov	rax, QWORD PTR __imp_?npos@?$basic_string@DU?$char_traits@D@std@@V?$allocator@D@2@@std@@2_KB
	cmp	r11, QWORD PTR [rax]
	je	$LN30@DoClick
$LN29@DoClick:

; 262  : 							item = "\"" + item + "\"";

	lea	r8, QWORD PTR item$127349[rsp]
	lea	rdx, OFFSET FLAT:$SG127361
	lea	rcx, QWORD PTR $T135316[rsp]
	call	QWORD PTR __imp_??$?HDU?$char_traits@D@std@@V?$allocator@D@1@@std@@YA?AV?$basic_string@DU?$char_traits@D@std@@V?$allocator@D@2@@0@PEBDAEBV10@@Z
	mov	QWORD PTR tv324[rsp], rax
	mov	rax, QWORD PTR tv324[rsp]
	mov	QWORD PTR tv916[rsp], rax
	lea	r8, OFFSET FLAT:$SG127360
	mov	rdx, QWORD PTR tv916[rsp]
	lea	rcx, QWORD PTR $T135317[rsp]
	call	QWORD PTR __imp_??$?HDU?$char_traits@D@std@@V?$allocator@D@1@@std@@YA?AV?$basic_string@DU?$char_traits@D@std@@V?$allocator@D@2@@0@AEBV10@PEBD@Z
	mov	QWORD PTR tv317[rsp], rax
	mov	rax, QWORD PTR tv317[rsp]
	mov	QWORD PTR tv918[rsp], rax
	mov	rdx, QWORD PTR tv918[rsp]
	lea	rcx, QWORD PTR item$127349[rsp]
	call	QWORD PTR __imp_??4?$basic_string@DU?$char_traits@D@std@@V?$allocator@D@2@@std@@QEAAAEAV01@AEBV01@@Z
	npad	1
	lea	rcx, QWORD PTR $T135317[rsp]
	call	QWORD PTR __imp_??1?$basic_string@DU?$char_traits@D@std@@V?$allocator@D@2@@std@@QEAA@XZ
	npad	1
	lea	rcx, QWORD PTR $T135316[rsp]
	call	QWORD PTR __imp_??1?$basic_string@DU?$char_traits@D@std@@V?$allocator@D@2@@std@@QEAA@XZ
$LN30@DoClick:

; 263  : 						
; 264  : 						newSelection.insert(item);

	lea	r8, QWORD PTR item$127349[rsp]
	lea	rdx, QWORD PTR $T135318[rsp]
	lea	rcx, QWORD PTR newSelection$127210[rsp]
	call	?insert@?$_Tree@V?$_Tset_traits@V?$basic_string@DU?$char_traits@D@std@@V?$allocator@D@2@@std@@U?$less@V?$basic_string@DU?$char_traits@D@std@@V?$allocator@D@2@@std@@@2@V?$allocator@V?$basic_string@DU?$char_traits@D@std@@V?$allocator@D@2@@std@@@2@$0A@@std@@@std@@QEAA?AU?$pair@Viterator@?$_Tree@V?$_Tset_traits@V?$basic_string@DU?$char_traits@D@std@@V?$allocator@D@2@@std@@U?$less@V?$basic_string@DU?$char_traits@D@std@@V?$allocator@D@2@@std@@@2@V?$allocator@V?$basic_string@DU?$char_traits@D@std@@V?$allocator@D@2@@std@@@2@$0A@@std@@@std@@_N@2@AEBV?$basic_string@DU?$char_traits@D@std@@V?$allocator@D@2@@2@@Z ; std::_Tree<std::_Tset_traits<std::basic_string<char,std::char_traits<char>,std::allocator<char> >,std::less<std::basic_string<char,std::char_traits<char>,std::allocator<char> > >,std::allocator<std::basic_string<char,std::char_traits<char>,std::allocator<char> > >,0> >::insert
	lea	rcx, QWORD PTR $T135318[rsp]
	call	??1?$pair@Viterator@?$_Tree@V?$_Tset_traits@V?$basic_string@DU?$char_traits@D@std@@V?$allocator@D@2@@std@@U?$less@V?$basic_string@DU?$char_traits@D@std@@V?$allocator@D@2@@std@@@2@V?$allocator@V?$basic_string@DU?$char_traits@D@std@@V?$allocator@D@2@@std@@@2@$0A@@std@@@std@@_N@std@@QEAA@XZ
	npad	1

; 265  : 					}

	lea	rcx, QWORD PTR item$127349[rsp]
	call	QWORD PTR __imp_??1?$basic_string@DU?$char_traits@D@std@@V?$allocator@D@2@@std@@QEAA@XZ
	jmp	$LN33@DoClick
$LN32@DoClick:
	lea	rcx, QWORD PTR i$127342[rsp]
	call	??1iterator@?$_Tree@V?$_Tset_traits@V?$basic_string@DU?$char_traits@D@std@@V?$allocator@D@2@@std@@U?$less@V?$basic_string@DU?$char_traits@D@std@@V?$allocator@D@2@@std@@@2@V?$allocator@V?$basic_string@DU?$char_traits@D@std@@V?$allocator@D@2@@std@@@2@$0A@@std@@@std@@QEAA@XZ

; 266  : 				}
; 267  : 				else

	jmp	$LN28@DoClick
$LN37@DoClick:

; 268  : 				{
; 269  : 					std::vector<std::string> currenSelection;

	lea	rcx, QWORD PTR currenSelection$127632[rsp]
	call	??0?$vector@V?$basic_string@DU?$char_traits@D@std@@V?$allocator@D@2@@std@@V?$allocator@V?$basic_string@DU?$char_traits@D@std@@V?$allocator@D@2@@std@@@2@@std@@QEAA@XZ ; std::vector<std::basic_string<char,std::char_traits<char>,std::allocator<char> >,std::allocator<std::basic_string<char,std::char_traits<char>,std::allocator<char> > > >::vector<std::basic_string<char,std::char_traits<char>,std::allocator<char> >,std::allocator<std::basic_string<char,std::char_traits<char>,std::allocator<char> > > >
	npad	1

; 270  : 					CryptomatteContext::quotedTokenize(GetSelection(arb_data), currenSelection, ", ");

	lea	rdx, OFFSET FLAT:$SG127635
	lea	rcx, QWORD PTR $T135319[rsp]
	call	QWORD PTR __imp_??0?$basic_string@DU?$char_traits@D@std@@V?$allocator@D@2@@std@@QEAA@PEBD@Z
	npad	1
	mov	rcx, QWORD PTR arb_data$126629[rsp]
	call	GetSelection
	mov	rdx, rax
	lea	rcx, QWORD PTR $T135320[rsp]
	call	QWORD PTR __imp_??0?$basic_string@DU?$char_traits@D@std@@V?$allocator@D@2@@std@@QEAA@PEBD@Z
	npad	1
	lea	r8, QWORD PTR $T135319[rsp]
	lea	rdx, QWORD PTR currenSelection$127632[rsp]
	lea	rcx, QWORD PTR $T135320[rsp]
	call	?quotedTokenize@CryptomatteContext@@SAXAEBV?$basic_string@DU?$char_traits@D@std@@V?$allocator@D@2@@std@@AEAV?$vector@V?$basic_string@DU?$char_traits@D@std@@V?$allocator@D@2@@std@@V?$allocator@V?$basic_string@DU?$char_traits@D@std@@V?$allocator@D@2@@std@@@2@@3@0@Z ; CryptomatteContext::quotedTokenize
	npad	1
	lea	rcx, QWORD PTR $T135320[rsp]
	call	QWORD PTR __imp_??1?$basic_string@DU?$char_traits@D@std@@V?$allocator@D@2@@std@@QEAA@XZ
	npad	1
	lea	rcx, QWORD PTR $T135319[rsp]
	call	QWORD PTR __imp_??1?$basic_string@DU?$char_traits@D@std@@V?$allocator@D@2@@std@@QEAA@XZ

; 271  : 					
; 272  : 					for(std::vector<std::string>::const_iterator i = currenSelection.begin(); i != currenSelection.end(); ++i)

	lea	rdx, QWORD PTR $T135321[rsp]
	lea	rcx, QWORD PTR currenSelection$127632[rsp]
	call	?begin@?$vector@V?$basic_string@DU?$char_traits@D@std@@V?$allocator@D@2@@std@@V?$allocator@V?$basic_string@DU?$char_traits@D@std@@V?$allocator@D@2@@std@@@2@@std@@QEAA?AV?$_Vector_iterator@V?$basic_string@DU?$char_traits@D@std@@V?$allocator@D@2@@std@@V?$allocator@V?$basic_string@DU?$char_traits@D@std@@V?$allocator@D@2@@std@@@2@@2@XZ ; std::vector<std::basic_string<char,std::char_traits<char>,std::allocator<char> >,std::allocator<std::basic_string<char,std::char_traits<char>,std::allocator<char> > > >::begin
	mov	QWORD PTR tv452[rsp], rax
	mov	rax, QWORD PTR tv452[rsp]
	mov	QWORD PTR tv924[rsp], rax
	mov	rdx, QWORD PTR tv924[rsp]
	lea	rcx, QWORD PTR i$127760[rsp]
	call	??0?$_Vector_const_iterator@V?$basic_string@DU?$char_traits@D@std@@V?$allocator@D@2@@std@@V?$allocator@V?$basic_string@DU?$char_traits@D@std@@V?$allocator@D@2@@std@@@2@@std@@QEAA@AEBV01@@Z
	npad	1
	lea	rcx, QWORD PTR $T135321[rsp]
	call	??1?$_Vector_iterator@V?$basic_string@DU?$char_traits@D@std@@V?$allocator@D@2@@std@@V?$allocator@V?$basic_string@DU?$char_traits@D@std@@V?$allocator@D@2@@std@@@2@@std@@QEAA@XZ
	jmp	SHORT $LN27@DoClick
$LN26@DoClick:
	lea	rcx, QWORD PTR i$127760[rsp]
	call	??E?$_Vector_const_iterator@V?$basic_string@DU?$char_traits@D@std@@V?$allocator@D@2@@std@@V?$allocator@V?$basic_string@DU?$char_traits@D@std@@V?$allocator@D@2@@std@@@2@@std@@QEAAAEAV01@XZ ; std::_Vector_const_iterator<std::basic_string<char,std::char_traits<char>,std::allocator<char> >,std::allocator<std::basic_string<char,std::char_traits<char>,std::allocator<char> > > >::operator++
$LN27@DoClick:
	lea	rdx, QWORD PTR $T135323[rsp]
	lea	rcx, QWORD PTR currenSelection$127632[rsp]
	call	?end@?$vector@V?$basic_string@DU?$char_traits@D@std@@V?$allocator@D@2@@std@@V?$allocator@V?$basic_string@DU?$char_traits@D@std@@V?$allocator@D@2@@std@@@2@@std@@QEAA?AV?$_Vector_iterator@V?$basic_string@DU?$char_traits@D@std@@V?$allocator@D@2@@std@@V?$allocator@V?$basic_string@DU?$char_traits@D@std@@V?$allocator@D@2@@std@@@2@@2@XZ ; std::vector<std::basic_string<char,std::char_traits<char>,std::allocator<char> >,std::allocator<std::basic_string<char,std::char_traits<char>,std::allocator<char> > > >::end
	mov	QWORD PTR tv459[rsp], rax
	mov	rax, QWORD PTR tv459[rsp]
	mov	QWORD PTR tv927[rsp], rax
	mov	rdx, QWORD PTR tv927[rsp]
	lea	rcx, QWORD PTR i$127760[rsp]
	call	??9?$_Vector_const_iterator@V?$basic_string@DU?$char_traits@D@std@@V?$allocator@D@2@@std@@V?$allocator@V?$basic_string@DU?$char_traits@D@std@@V?$allocator@D@2@@std@@@2@@std@@QEBA_NAEBV01@@Z ; std::_Vector_const_iterator<std::basic_string<char,std::char_traits<char>,std::allocator<char> >,std::allocator<std::basic_string<char,std::char_traits<char>,std::allocator<char> > > >::operator!=
	mov	BYTE PTR $T135322[rsp], al
	lea	rcx, QWORD PTR $T135323[rsp]
	call	??1?$_Vector_iterator@V?$basic_string@DU?$char_traits@D@std@@V?$allocator@D@2@@std@@V?$allocator@V?$basic_string@DU?$char_traits@D@std@@V?$allocator@D@2@@std@@@2@@std@@QEAA@XZ
	movzx	r11d, BYTE PTR $T135322[rsp]
	test	r11d, r11d
	je	SHORT $LN25@DoClick

; 273  : 					{
; 274  : 						newSelection.insert(*i);

	lea	rcx, QWORD PTR i$127760[rsp]
	call	??D?$_Vector_const_iterator@V?$basic_string@DU?$char_traits@D@std@@V?$allocator@D@2@@std@@V?$allocator@V?$basic_string@DU?$char_traits@D@std@@V?$allocator@D@2@@std@@@2@@std@@QEBAAEBV?$basic_string@DU?$char_traits@D@std@@V?$allocator@D@2@@1@XZ ; std::_Vector_const_iterator<std::basic_string<char,std::char_traits<char>,std::allocator<char> >,std::allocator<std::basic_string<char,std::char_traits<char>,std::allocator<char> > > >::operator*
	mov	r8, rax
	lea	rdx, QWORD PTR $T135324[rsp]
	lea	rcx, QWORD PTR newSelection$127210[rsp]
	call	?insert@?$_Tree@V?$_Tset_traits@V?$basic_string@DU?$char_traits@D@std@@V?$allocator@D@2@@std@@U?$less@V?$basic_string@DU?$char_traits@D@std@@V?$allocator@D@2@@std@@@2@V?$allocator@V?$basic_string@DU?$char_traits@D@std@@V?$allocator@D@2@@std@@@2@$0A@@std@@@std@@QEAA?AU?$pair@Viterator@?$_Tree@V?$_Tset_traits@V?$basic_string@DU?$char_traits@D@std@@V?$allocator@D@2@@std@@U?$less@V?$basic_string@DU?$char_traits@D@std@@V?$allocator@D@2@@std@@@2@V?$allocator@V?$basic_string@DU?$char_traits@D@std@@V?$allocator@D@2@@std@@@2@$0A@@std@@@std@@_N@2@AEBV?$basic_string@DU?$char_traits@D@std@@V?$allocator@D@2@@2@@Z ; std::_Tree<std::_Tset_traits<std::basic_string<char,std::char_traits<char>,std::allocator<char> >,std::less<std::basic_string<char,std::char_traits<char>,std::allocator<char> > >,std::allocator<std::basic_string<char,std::char_traits<char>,std::allocator<char> > >,0> >::insert
	lea	rcx, QWORD PTR $T135324[rsp]
	call	??1?$pair@Viterator@?$_Tree@V?$_Tset_traits@V?$basic_string@DU?$char_traits@D@std@@V?$allocator@D@2@@std@@U?$less@V?$basic_string@DU?$char_traits@D@std@@V?$allocator@D@2@@std@@@2@V?$allocator@V?$basic_string@DU?$char_traits@D@std@@V?$allocator@D@2@@std@@@2@$0A@@std@@@std@@_N@std@@QEAA@XZ
	jmp	$LN26@DoClick
$LN25@DoClick:

; 275  : 					}

	lea	rcx, QWORD PTR i$127760[rsp]
	call	??1?$_Vector_const_iterator@V?$basic_string@DU?$char_traits@D@std@@V?$allocator@D@2@@std@@V?$allocator@V?$basic_string@DU?$char_traits@D@std@@V?$allocator@D@2@@std@@@2@@std@@QEAA@XZ

; 276  : 						
; 277  : 					if(event_extra->u.do_click.modifiers & PF_Mod_SHIFT_KEY) // add

	mov	rax, QWORD PTR event_extra$[rsp]
	mov	eax, DWORD PTR [rax+32]
	and	eax, 512				; 00000200H
	test	eax, eax
	je	$LN24@DoClick

; 278  : 					{
; 279  : 						if(clickedItems.size() > 0)

	lea	rcx, QWORD PTR clickedItems$127173[rsp]
	call	?size@?$_Tree@V?$_Tset_traits@V?$basic_string@DU?$char_traits@D@std@@V?$allocator@D@2@@std@@U?$less@V?$basic_string@DU?$char_traits@D@std@@V?$allocator@D@2@@std@@@2@V?$allocator@V?$basic_string@DU?$char_traits@D@std@@V?$allocator@D@2@@std@@@2@$0A@@std@@@std@@QEBA_KXZ ; std::_Tree<std::_Tset_traits<std::basic_string<char,std::char_traits<char>,std::allocator<char> >,std::less<std::basic_string<char,std::char_traits<char>,std::allocator<char> > >,std::allocator<std::basic_string<char,std::char_traits<char>,std::allocator<char> > >,0> >::size
	test	rax, rax
	jbe	SHORT $LN23@DoClick

; 280  : 							selectionInfo = "Cryptomatte selection added ";

	lea	rdx, OFFSET FLAT:$SG127818
	lea	rcx, QWORD PTR selectionInfo$127211[rsp]
	call	QWORD PTR __imp_??4?$basic_string@DU?$char_traits@D@std@@V?$allocator@D@2@@std@@QEAAAEAV01@PEBD@Z

; 281  : 						else

	jmp	SHORT $LN22@DoClick
$LN23@DoClick:

; 282  : 							selectionInfo = "Cryptomatte selection added nothing.";

	lea	rdx, OFFSET FLAT:$SG127820
	lea	rcx, QWORD PTR selectionInfo$127211[rsp]
	call	QWORD PTR __imp_??4?$basic_string@DU?$char_traits@D@std@@V?$allocator@D@2@@std@@QEAAAEAV01@PEBD@Z
$LN22@DoClick:

; 283  : 
; 284  : 						for(std::set<std::string>::const_iterator i = clickedItems.begin(); i != clickedItems.end(); ++i)

	lea	rdx, QWORD PTR $T135325[rsp]
	lea	rcx, QWORD PTR clickedItems$127173[rsp]
	call	?begin@?$_Tree@V?$_Tset_traits@V?$basic_string@DU?$char_traits@D@std@@V?$allocator@D@2@@std@@U?$less@V?$basic_string@DU?$char_traits@D@std@@V?$allocator@D@2@@std@@@2@V?$allocator@V?$basic_string@DU?$char_traits@D@std@@V?$allocator@D@2@@std@@@2@$0A@@std@@@std@@QEAA?AViterator@12@XZ ; std::_Tree<std::_Tset_traits<std::basic_string<char,std::char_traits<char>,std::allocator<char> >,std::less<std::basic_string<char,std::char_traits<char>,std::allocator<char> > >,std::allocator<std::basic_string<char,std::char_traits<char>,std::allocator<char> > >,0> >::begin
	mov	QWORD PTR tv446[rsp], rax
	mov	rax, QWORD PTR tv446[rsp]
	mov	QWORD PTR tv930[rsp], rax
	mov	rdx, QWORD PTR tv930[rsp]
	lea	rcx, QWORD PTR i$127829[rsp]
	call	??0const_iterator@?$_Tree@V?$_Tset_traits@V?$basic_string@DU?$char_traits@D@std@@V?$allocator@D@2@@std@@U?$less@V?$basic_string@DU?$char_traits@D@std@@V?$allocator@D@2@@std@@@2@V?$allocator@V?$basic_string@DU?$char_traits@D@std@@V?$allocator@D@2@@std@@@2@$0A@@std@@@std@@QEAA@AEBV012@@Z
	npad	1
	lea	rcx, QWORD PTR $T135325[rsp]
	call	??1iterator@?$_Tree@V?$_Tset_traits@V?$basic_string@DU?$char_traits@D@std@@V?$allocator@D@2@@std@@U?$less@V?$basic_string@DU?$char_traits@D@std@@V?$allocator@D@2@@std@@@2@V?$allocator@V?$basic_string@DU?$char_traits@D@std@@V?$allocator@D@2@@std@@@2@$0A@@std@@@std@@QEAA@XZ
	jmp	SHORT $LN21@DoClick
$LN20@DoClick:
	lea	rcx, QWORD PTR i$127829[rsp]
	call	??Econst_iterator@?$_Tree@V?$_Tset_traits@V?$basic_string@DU?$char_traits@D@std@@V?$allocator@D@2@@std@@U?$less@V?$basic_string@DU?$char_traits@D@std@@V?$allocator@D@2@@std@@@2@V?$allocator@V?$basic_string@DU?$char_traits@D@std@@V?$allocator@D@2@@std@@@2@$0A@@std@@@std@@QEAAAEAV012@XZ ; std::_Tree<std::_Tset_traits<std::basic_string<char,std::char_traits<char>,std::allocator<char> >,std::less<std::basic_string<char,std::char_traits<char>,std::allocator<char> > >,std::allocator<std::basic_string<char,std::char_traits<char>,std::allocator<char> > >,0> >::const_iterator::operator++
$LN21@DoClick:
	lea	rdx, QWORD PTR $T135327[rsp]
	lea	rcx, QWORD PTR clickedItems$127173[rsp]
	call	?end@?$_Tree@V?$_Tset_traits@V?$basic_string@DU?$char_traits@D@std@@V?$allocator@D@2@@std@@U?$less@V?$basic_string@DU?$char_traits@D@std@@V?$allocator@D@2@@std@@@2@V?$allocator@V?$basic_string@DU?$char_traits@D@std@@V?$allocator@D@2@@std@@@2@$0A@@std@@@std@@QEAA?AViterator@12@XZ ; std::_Tree<std::_Tset_traits<std::basic_string<char,std::char_traits<char>,std::allocator<char> >,std::less<std::basic_string<char,std::char_traits<char>,std::allocator<char> > >,std::allocator<std::basic_string<char,std::char_traits<char>,std::allocator<char> > >,0> >::end
	mov	QWORD PTR tv546[rsp], rax
	mov	rax, QWORD PTR tv546[rsp]
	mov	QWORD PTR tv933[rsp], rax
	mov	rdx, QWORD PTR tv933[rsp]
	lea	rcx, QWORD PTR i$127829[rsp]
	call	??9const_iterator@?$_Tree@V?$_Tset_traits@V?$basic_string@DU?$char_traits@D@std@@V?$allocator@D@2@@std@@U?$less@V?$basic_string@DU?$char_traits@D@std@@V?$allocator@D@2@@std@@@2@V?$allocator@V?$basic_string@DU?$char_traits@D@std@@V?$allocator@D@2@@std@@@2@$0A@@std@@@std@@QEBA_NAEBV012@@Z ; std::_Tree<std::_Tset_traits<std::basic_string<char,std::char_traits<char>,std::allocator<char> >,std::less<std::basic_string<char,std::char_traits<char>,std::allocator<char> > >,std::allocator<std::basic_string<char,std::char_traits<char>,std::allocator<char> > >,0> >::const_iterator::operator!=
	mov	BYTE PTR $T135326[rsp], al
	lea	rcx, QWORD PTR $T135327[rsp]
	call	??1iterator@?$_Tree@V?$_Tset_traits@V?$basic_string@DU?$char_traits@D@std@@V?$allocator@D@2@@std@@U?$less@V?$basic_string@DU?$char_traits@D@std@@V?$allocator@D@2@@std@@@2@V?$allocator@V?$basic_string@DU?$char_traits@D@std@@V?$allocator@D@2@@std@@@2@$0A@@std@@@std@@QEAA@XZ
	movzx	r11d, BYTE PTR $T135326[rsp]
	test	r11d, r11d
	je	$LN19@DoClick

; 285  : 						{
; 286  : 							std::string item = *i;

	lea	rcx, QWORD PTR i$127829[rsp]
	call	??Dconst_iterator@?$_Tree@V?$_Tset_traits@V?$basic_string@DU?$char_traits@D@std@@V?$allocator@D@2@@std@@U?$less@V?$basic_string@DU?$char_traits@D@std@@V?$allocator@D@2@@std@@@2@V?$allocator@V?$basic_string@DU?$char_traits@D@std@@V?$allocator@D@2@@std@@@2@$0A@@std@@@std@@QEBAAEBV?$basic_string@DU?$char_traits@D@std@@V?$allocator@D@2@@2@XZ ; std::_Tree<std::_Tset_traits<std::basic_string<char,std::char_traits<char>,std::allocator<char> >,std::less<std::basic_string<char,std::char_traits<char>,std::allocator<char> > >,std::allocator<std::basic_string<char,std::char_traits<char>,std::allocator<char> > >,0> >::const_iterator::operator*
	mov	rdx, rax
	lea	rcx, QWORD PTR item$127836[rsp]
	call	QWORD PTR __imp_??0?$basic_string@DU?$char_traits@D@std@@V?$allocator@D@2@@std@@QEAA@AEBV01@@Z
	npad	1

; 287  : 							
; 288  : 							if(i != clickedItems.begin())

	lea	rdx, QWORD PTR $T135329[rsp]
	lea	rcx, QWORD PTR clickedItems$127173[rsp]
	call	?begin@?$_Tree@V?$_Tset_traits@V?$basic_string@DU?$char_traits@D@std@@V?$allocator@D@2@@std@@U?$less@V?$basic_string@DU?$char_traits@D@std@@V?$allocator@D@2@@std@@@2@V?$allocator@V?$basic_string@DU?$char_traits@D@std@@V?$allocator@D@2@@std@@@2@$0A@@std@@@std@@QEAA?AViterator@12@XZ ; std::_Tree<std::_Tset_traits<std::basic_string<char,std::char_traits<char>,std::allocator<char> >,std::less<std::basic_string<char,std::char_traits<char>,std::allocator<char> > >,std::allocator<std::basic_string<char,std::char_traits<char>,std::allocator<char> > >,0> >::begin
	mov	QWORD PTR tv582[rsp], rax
	mov	rax, QWORD PTR tv582[rsp]
	mov	QWORD PTR tv936[rsp], rax
	mov	rdx, QWORD PTR tv936[rsp]
	lea	rcx, QWORD PTR i$127829[rsp]
	call	??9const_iterator@?$_Tree@V?$_Tset_traits@V?$basic_string@DU?$char_traits@D@std@@V?$allocator@D@2@@std@@U?$less@V?$basic_string@DU?$char_traits@D@std@@V?$allocator@D@2@@std@@@2@V?$allocator@V?$basic_string@DU?$char_traits@D@std@@V?$allocator@D@2@@std@@@2@$0A@@std@@@std@@QEBA_NAEBV012@@Z ; std::_Tree<std::_Tset_traits<std::basic_string<char,std::char_traits<char>,std::allocator<char> >,std::less<std::basic_string<char,std::char_traits<char>,std::allocator<char> > >,std::allocator<std::basic_string<char,std::char_traits<char>,std::allocator<char> > >,0> >::const_iterator::operator!=
	mov	BYTE PTR $T135328[rsp], al
	lea	rcx, QWORD PTR $T135329[rsp]
	call	??1iterator@?$_Tree@V?$_Tset_traits@V?$basic_string@DU?$char_traits@D@std@@V?$allocator@D@2@@std@@U?$less@V?$basic_string@DU?$char_traits@D@std@@V?$allocator@D@2@@std@@@2@V?$allocator@V?$basic_string@DU?$char_traits@D@std@@V?$allocator@D@2@@std@@@2@$0A@@std@@@std@@QEAA@XZ
	movzx	r11d, BYTE PTR $T135328[rsp]
	test	r11d, r11d
	je	SHORT $LN18@DoClick

; 289  : 								selectionInfoList += ", ";

	lea	rdx, OFFSET FLAT:$SG127840
	lea	rcx, QWORD PTR selectionInfoList$127213[rsp]
	call	QWORD PTR __imp_??Y?$basic_string@DU?$char_traits@D@std@@V?$allocator@D@2@@std@@QEAAAEAV01@PEBD@Z
$LN18@DoClick:

; 290  : 
; 291  : 							selectionInfoList += item;

	lea	rdx, QWORD PTR item$127836[rsp]
	lea	rcx, QWORD PTR selectionInfoList$127213[rsp]
	call	QWORD PTR __imp_??Y?$basic_string@DU?$char_traits@D@std@@V?$allocator@D@2@@std@@QEAAAEAV01@AEBV01@@Z

; 292  : 							
; 293  : 							if(item.find(" ") != std::string::npos || item.find(",") != std::string::npos)

	xor	r8d, r8d
	lea	rdx, OFFSET FLAT:$SG127843
	lea	rcx, QWORD PTR item$127836[rsp]
	call	QWORD PTR __imp_?find@?$basic_string@DU?$char_traits@D@std@@V?$allocator@D@2@@std@@QEBA_KPEBD_K@Z
	mov	r11, rax
	mov	rax, QWORD PTR __imp_?npos@?$basic_string@DU?$char_traits@D@std@@V?$allocator@D@2@@std@@2_KB
	cmp	r11, QWORD PTR [rax]
	jne	SHORT $LN16@DoClick
	xor	r8d, r8d
	lea	rdx, OFFSET FLAT:$SG127844
	lea	rcx, QWORD PTR item$127836[rsp]
	call	QWORD PTR __imp_?find@?$basic_string@DU?$char_traits@D@std@@V?$allocator@D@2@@std@@QEBA_KPEBD_K@Z
	mov	r11, rax
	mov	rax, QWORD PTR __imp_?npos@?$basic_string@DU?$char_traits@D@std@@V?$allocator@D@2@@std@@2_KB
	cmp	r11, QWORD PTR [rax]
	je	$LN17@DoClick
$LN16@DoClick:

; 294  : 								item = "\"" + item + "\"";

	lea	r8, QWORD PTR item$127836[rsp]
	lea	rdx, OFFSET FLAT:$SG127848
	lea	rcx, QWORD PTR $T135330[rsp]
	call	QWORD PTR __imp_??$?HDU?$char_traits@D@std@@V?$allocator@D@1@@std@@YA?AV?$basic_string@DU?$char_traits@D@std@@V?$allocator@D@2@@0@PEBDAEBV10@@Z
	mov	QWORD PTR tv443[rsp], rax
	mov	rax, QWORD PTR tv443[rsp]
	mov	QWORD PTR tv938[rsp], rax
	lea	r8, OFFSET FLAT:$SG127847
	mov	rdx, QWORD PTR tv938[rsp]
	lea	rcx, QWORD PTR $T135331[rsp]
	call	QWORD PTR __imp_??$?HDU?$char_traits@D@std@@V?$allocator@D@1@@std@@YA?AV?$basic_string@DU?$char_traits@D@std@@V?$allocator@D@2@@0@AEBV10@PEBD@Z
	mov	QWORD PTR tv314[rsp], rax
	mov	rax, QWORD PTR tv314[rsp]
	mov	QWORD PTR tv940[rsp], rax
	mov	rdx, QWORD PTR tv940[rsp]
	lea	rcx, QWORD PTR item$127836[rsp]
	call	QWORD PTR __imp_??4?$basic_string@DU?$char_traits@D@std@@V?$allocator@D@2@@std@@QEAAAEAV01@AEBV01@@Z
	npad	1
	lea	rcx, QWORD PTR $T135331[rsp]
	call	QWORD PTR __imp_??1?$basic_string@DU?$char_traits@D@std@@V?$allocator@D@2@@std@@QEAA@XZ
	npad	1
	lea	rcx, QWORD PTR $T135330[rsp]
	call	QWORD PTR __imp_??1?$basic_string@DU?$char_traits@D@std@@V?$allocator@D@2@@std@@QEAA@XZ
$LN17@DoClick:

; 295  : 							
; 296  : 							newSelection.insert(item);

	lea	r8, QWORD PTR item$127836[rsp]
	lea	rdx, QWORD PTR $T135332[rsp]
	lea	rcx, QWORD PTR newSelection$127210[rsp]
	call	?insert@?$_Tree@V?$_Tset_traits@V?$basic_string@DU?$char_traits@D@std@@V?$allocator@D@2@@std@@U?$less@V?$basic_string@DU?$char_traits@D@std@@V?$allocator@D@2@@std@@@2@V?$allocator@V?$basic_string@DU?$char_traits@D@std@@V?$allocator@D@2@@std@@@2@$0A@@std@@@std@@QEAA?AU?$pair@Viterator@?$_Tree@V?$_Tset_traits@V?$basic_string@DU?$char_traits@D@std@@V?$allocator@D@2@@std@@U?$less@V?$basic_string@DU?$char_traits@D@std@@V?$allocator@D@2@@std@@@2@V?$allocator@V?$basic_string@DU?$char_traits@D@std@@V?$allocator@D@2@@std@@@2@$0A@@std@@@std@@_N@2@AEBV?$basic_string@DU?$char_traits@D@std@@V?$allocator@D@2@@2@@Z ; std::_Tree<std::_Tset_traits<std::basic_string<char,std::char_traits<char>,std::allocator<char> >,std::less<std::basic_string<char,std::char_traits<char>,std::allocator<char> > >,std::allocator<std::basic_string<char,std::char_traits<char>,std::allocator<char> > >,0> >::insert
	lea	rcx, QWORD PTR $T135332[rsp]
	call	??1?$pair@Viterator@?$_Tree@V?$_Tset_traits@V?$basic_string@DU?$char_traits@D@std@@V?$allocator@D@2@@std@@U?$less@V?$basic_string@DU?$char_traits@D@std@@V?$allocator@D@2@@std@@@2@V?$allocator@V?$basic_string@DU?$char_traits@D@std@@V?$allocator@D@2@@std@@@2@$0A@@std@@@std@@_N@std@@QEAA@XZ
	npad	1

; 297  : 						}

	lea	rcx, QWORD PTR item$127836[rsp]
	call	QWORD PTR __imp_??1?$basic_string@DU?$char_traits@D@std@@V?$allocator@D@2@@std@@QEAA@XZ
	jmp	$LN20@DoClick
$LN19@DoClick:
	lea	rcx, QWORD PTR i$127829[rsp]
	call	??1const_iterator@?$_Tree@V?$_Tset_traits@V?$basic_string@DU?$char_traits@D@std@@V?$allocator@D@2@@std@@U?$less@V?$basic_string@DU?$char_traits@D@std@@V?$allocator@D@2@@std@@@2@V?$allocator@V?$basic_string@DU?$char_traits@D@std@@V?$allocator@D@2@@std@@@2@$0A@@std@@@std@@QEAA@XZ

; 298  : 					}
; 299  : 					else // remove

	jmp	$LN15@DoClick
$LN24@DoClick:

; 300  : 					{
; 301  : 						if(clickedItems.size() > 0)

	lea	rcx, QWORD PTR clickedItems$127173[rsp]
	call	?size@?$_Tree@V?$_Tset_traits@V?$basic_string@DU?$char_traits@D@std@@V?$allocator@D@2@@std@@U?$less@V?$basic_string@DU?$char_traits@D@std@@V?$allocator@D@2@@std@@@2@V?$allocator@V?$basic_string@DU?$char_traits@D@std@@V?$allocator@D@2@@std@@@2@$0A@@std@@@std@@QEBA_KXZ ; std::_Tree<std::_Tset_traits<std::basic_string<char,std::char_traits<char>,std::allocator<char> >,std::less<std::basic_string<char,std::char_traits<char>,std::allocator<char> > >,std::allocator<std::basic_string<char,std::char_traits<char>,std::allocator<char> > >,0> >::size
	test	rax, rax
	jbe	SHORT $LN14@DoClick

; 302  : 							selectionInfo = "Cryptomatte selection removed ";

	lea	rdx, OFFSET FLAT:$SG127852
	lea	rcx, QWORD PTR selectionInfo$127211[rsp]
	call	QWORD PTR __imp_??4?$basic_string@DU?$char_traits@D@std@@V?$allocator@D@2@@std@@QEAAAEAV01@PEBD@Z

; 303  : 						else

	jmp	SHORT $LN13@DoClick
$LN14@DoClick:

; 304  : 							selectionInfo = "Cryptomatte selection removed nothing.";

	lea	rdx, OFFSET FLAT:$SG127854
	lea	rcx, QWORD PTR selectionInfo$127211[rsp]
	call	QWORD PTR __imp_??4?$basic_string@DU?$char_traits@D@std@@V?$allocator@D@2@@std@@QEAAAEAV01@PEBD@Z
$LN13@DoClick:

; 305  : 
; 306  : 						for(std::set<std::string>::const_iterator i = clickedItems.begin(); i != clickedItems.end(); ++i)

	lea	rdx, QWORD PTR $T135333[rsp]
	lea	rcx, QWORD PTR clickedItems$127173[rsp]
	call	?begin@?$_Tree@V?$_Tset_traits@V?$basic_string@DU?$char_traits@D@std@@V?$allocator@D@2@@std@@U?$less@V?$basic_string@DU?$char_traits@D@std@@V?$allocator@D@2@@std@@@2@V?$allocator@V?$basic_string@DU?$char_traits@D@std@@V?$allocator@D@2@@std@@@2@$0A@@std@@@std@@QEAA?AViterator@12@XZ ; std::_Tree<std::_Tset_traits<std::basic_string<char,std::char_traits<char>,std::allocator<char> >,std::less<std::basic_string<char,std::char_traits<char>,std::allocator<char> > >,std::allocator<std::basic_string<char,std::char_traits<char>,std::allocator<char> > >,0> >::begin
	mov	QWORD PTR tv70[rsp], rax
	mov	rax, QWORD PTR tv70[rsp]
	mov	QWORD PTR tv943[rsp], rax
	mov	rdx, QWORD PTR tv943[rsp]
	lea	rcx, QWORD PTR i$127863[rsp]
	call	??0const_iterator@?$_Tree@V?$_Tset_traits@V?$basic_string@DU?$char_traits@D@std@@V?$allocator@D@2@@std@@U?$less@V?$basic_string@DU?$char_traits@D@std@@V?$allocator@D@2@@std@@@2@V?$allocator@V?$basic_string@DU?$char_traits@D@std@@V?$allocator@D@2@@std@@@2@$0A@@std@@@std@@QEAA@AEBV012@@Z
	npad	1
	lea	rcx, QWORD PTR $T135333[rsp]
	call	??1iterator@?$_Tree@V?$_Tset_traits@V?$basic_string@DU?$char_traits@D@std@@V?$allocator@D@2@@std@@U?$less@V?$basic_string@DU?$char_traits@D@std@@V?$allocator@D@2@@std@@@2@V?$allocator@V?$basic_string@DU?$char_traits@D@std@@V?$allocator@D@2@@std@@@2@$0A@@std@@@std@@QEAA@XZ
	jmp	SHORT $LN12@DoClick
$LN11@DoClick:
	lea	rcx, QWORD PTR i$127863[rsp]
	call	??Econst_iterator@?$_Tree@V?$_Tset_traits@V?$basic_string@DU?$char_traits@D@std@@V?$allocator@D@2@@std@@U?$less@V?$basic_string@DU?$char_traits@D@std@@V?$allocator@D@2@@std@@@2@V?$allocator@V?$basic_string@DU?$char_traits@D@std@@V?$allocator@D@2@@std@@@2@$0A@@std@@@std@@QEAAAEAV012@XZ ; std::_Tree<std::_Tset_traits<std::basic_string<char,std::char_traits<char>,std::allocator<char> >,std::less<std::basic_string<char,std::char_traits<char>,std::allocator<char> > >,std::allocator<std::basic_string<char,std::char_traits<char>,std::allocator<char> > >,0> >::const_iterator::operator++
$LN12@DoClick:
	lea	rdx, QWORD PTR $T135335[rsp]
	lea	rcx, QWORD PTR clickedItems$127173[rsp]
	call	?end@?$_Tree@V?$_Tset_traits@V?$basic_string@DU?$char_traits@D@std@@V?$allocator@D@2@@std@@U?$less@V?$basic_string@DU?$char_traits@D@std@@V?$allocator@D@2@@std@@@2@V?$allocator@V?$basic_string@DU?$char_traits@D@std@@V?$allocator@D@2@@std@@@2@$0A@@std@@@std@@QEAA?AViterator@12@XZ ; std::_Tree<std::_Tset_traits<std::basic_string<char,std::char_traits<char>,std::allocator<char> >,std::less<std::basic_string<char,std::char_traits<char>,std::allocator<char> > >,std::allocator<std::basic_string<char,std::char_traits<char>,std::allocator<char> > >,0> >::end
	mov	QWORD PTR tv654[rsp], rax
	mov	rax, QWORD PTR tv654[rsp]
	mov	QWORD PTR tv946[rsp], rax
	mov	rdx, QWORD PTR tv946[rsp]
	lea	rcx, QWORD PTR i$127863[rsp]
	call	??9const_iterator@?$_Tree@V?$_Tset_traits@V?$basic_string@DU?$char_traits@D@std@@V?$allocator@D@2@@std@@U?$less@V?$basic_string@DU?$char_traits@D@std@@V?$allocator@D@2@@std@@@2@V?$allocator@V?$basic_string@DU?$char_traits@D@std@@V?$allocator@D@2@@std@@@2@$0A@@std@@@std@@QEBA_NAEBV012@@Z ; std::_Tree<std::_Tset_traits<std::basic_string<char,std::char_traits<char>,std::allocator<char> >,std::less<std::basic_string<char,std::char_traits<char>,std::allocator<char> > >,std::allocator<std::basic_string<char,std::char_traits<char>,std::allocator<char> > >,0> >::const_iterator::operator!=
	mov	BYTE PTR $T135334[rsp], al
	lea	rcx, QWORD PTR $T135335[rsp]
	call	??1iterator@?$_Tree@V?$_Tset_traits@V?$basic_string@DU?$char_traits@D@std@@V?$allocator@D@2@@std@@U?$less@V?$basic_string@DU?$char_traits@D@std@@V?$allocator@D@2@@std@@@2@V?$allocator@V?$basic_string@DU?$char_traits@D@std@@V?$allocator@D@2@@std@@@2@$0A@@std@@@std@@QEAA@XZ
	movzx	r11d, BYTE PTR $T135334[rsp]
	test	r11d, r11d
	je	$LN10@DoClick

; 307  : 						{
; 308  : 							const std::string &item = *i;

	lea	rcx, QWORD PTR i$127863[rsp]
	call	??Dconst_iterator@?$_Tree@V?$_Tset_traits@V?$basic_string@DU?$char_traits@D@std@@V?$allocator@D@2@@std@@U?$less@V?$basic_string@DU?$char_traits@D@std@@V?$allocator@D@2@@std@@@2@V?$allocator@V?$basic_string@DU?$char_traits@D@std@@V?$allocator@D@2@@std@@@2@$0A@@std@@@std@@QEBAAEBV?$basic_string@DU?$char_traits@D@std@@V?$allocator@D@2@@2@XZ ; std::_Tree<std::_Tset_traits<std::basic_string<char,std::char_traits<char>,std::allocator<char> >,std::less<std::basic_string<char,std::char_traits<char>,std::allocator<char> > >,std::allocator<std::basic_string<char,std::char_traits<char>,std::allocator<char> > >,0> >::const_iterator::operator*
	mov	QWORD PTR item$127870[rsp], rax

; 309  : 							
; 310  : 							for(std::set<std::string>::iterator j = newSelection.begin(); j != newSelection.end(); ++j)

	lea	rdx, QWORD PTR j$127879[rsp]
	lea	rcx, QWORD PTR newSelection$127210[rsp]
	call	?begin@?$_Tree@V?$_Tset_traits@V?$basic_string@DU?$char_traits@D@std@@V?$allocator@D@2@@std@@U?$less@V?$basic_string@DU?$char_traits@D@std@@V?$allocator@D@2@@std@@@2@V?$allocator@V?$basic_string@DU?$char_traits@D@std@@V?$allocator@D@2@@std@@@2@$0A@@std@@@std@@QEAA?AViterator@12@XZ ; std::_Tree<std::_Tset_traits<std::basic_string<char,std::char_traits<char>,std::allocator<char> >,std::less<std::basic_string<char,std::char_traits<char>,std::allocator<char> > >,std::allocator<std::basic_string<char,std::char_traits<char>,std::allocator<char> > >,0> >::begin
	npad	1
	jmp	SHORT $LN9@DoClick
$LN8@DoClick:
	lea	rcx, QWORD PTR j$127879[rsp]
	call	??Eiterator@?$_Tree@V?$_Tset_traits@V?$basic_string@DU?$char_traits@D@std@@V?$allocator@D@2@@std@@U?$less@V?$basic_string@DU?$char_traits@D@std@@V?$allocator@D@2@@std@@@2@V?$allocator@V?$basic_string@DU?$char_traits@D@std@@V?$allocator@D@2@@std@@@2@$0A@@std@@@std@@QEAAAEAV012@XZ ; std::_Tree<std::_Tset_traits<std::basic_string<char,std::char_traits<char>,std::allocator<char> >,std::less<std::basic_string<char,std::char_traits<char>,std::allocator<char> > >,std::allocator<std::basic_string<char,std::char_traits<char>,std::allocator<char> > >,0> >::iterator::operator++
$LN9@DoClick:
	lea	rdx, QWORD PTR $T135337[rsp]
	lea	rcx, QWORD PTR newSelection$127210[rsp]
	call	?end@?$_Tree@V?$_Tset_traits@V?$basic_string@DU?$char_traits@D@std@@V?$allocator@D@2@@std@@U?$less@V?$basic_string@DU?$char_traits@D@std@@V?$allocator@D@2@@std@@@2@V?$allocator@V?$basic_string@DU?$char_traits@D@std@@V?$allocator@D@2@@std@@@2@$0A@@std@@@std@@QEAA?AViterator@12@XZ ; std::_Tree<std::_Tset_traits<std::basic_string<char,std::char_traits<char>,std::allocator<char> >,std::less<std::basic_string<char,std::char_traits<char>,std::allocator<char> > >,std::allocator<std::basic_string<char,std::char_traits<char>,std::allocator<char> > >,0> >::end
	mov	QWORD PTR tv696[rsp], rax
	mov	rax, QWORD PTR tv696[rsp]
	mov	QWORD PTR tv949[rsp], rax
	mov	rdx, QWORD PTR tv949[rsp]
	lea	rcx, QWORD PTR j$127879[rsp]
	call	??9const_iterator@?$_Tree@V?$_Tset_traits@V?$basic_string@DU?$char_traits@D@std@@V?$allocator@D@2@@std@@U?$less@V?$basic_string@DU?$char_traits@D@std@@V?$allocator@D@2@@std@@@2@V?$allocator@V?$basic_string@DU?$char_traits@D@std@@V?$allocator@D@2@@std@@@2@$0A@@std@@@std@@QEBA_NAEBV012@@Z ; std::_Tree<std::_Tset_traits<std::basic_string<char,std::char_traits<char>,std::allocator<char> >,std::less<std::basic_string<char,std::char_traits<char>,std::allocator<char> > >,std::allocator<std::basic_string<char,std::char_traits<char>,std::allocator<char> > >,0> >::const_iterator::operator!=
	mov	BYTE PTR $T135336[rsp], al
	lea	rcx, QWORD PTR $T135337[rsp]
	call	??1iterator@?$_Tree@V?$_Tset_traits@V?$basic_string@DU?$char_traits@D@std@@V?$allocator@D@2@@std@@U?$less@V?$basic_string@DU?$char_traits@D@std@@V?$allocator@D@2@@std@@@2@V?$allocator@V?$basic_string@DU?$char_traits@D@std@@V?$allocator@D@2@@std@@@2@$0A@@std@@@std@@QEAA@XZ
	movzx	r11d, BYTE PTR $T135336[rsp]
	test	r11d, r11d
	je	$LN7@DoClick

; 311  : 							{
; 312  : 								const std::string &currItem = *j;

	lea	rcx, QWORD PTR j$127879[rsp]
	call	??Diterator@?$_Tree@V?$_Tset_traits@V?$basic_string@DU?$char_traits@D@std@@V?$allocator@D@2@@std@@U?$less@V?$basic_string@DU?$char_traits@D@std@@V?$allocator@D@2@@std@@@2@V?$allocator@V?$basic_string@DU?$char_traits@D@std@@V?$allocator@D@2@@std@@@2@$0A@@std@@@std@@QEBAAEAV?$basic_string@DU?$char_traits@D@std@@V?$allocator@D@2@@2@XZ ; std::_Tree<std::_Tset_traits<std::basic_string<char,std::char_traits<char>,std::allocator<char> >,std::less<std::basic_string<char,std::char_traits<char>,std::allocator<char> > >,std::allocator<std::basic_string<char,std::char_traits<char>,std::allocator<char> > >,0> >::iterator::operator*
	mov	QWORD PTR currItem$127886[rsp], rax

; 313  : 								
; 314  : 								if(item == currItem || item == CryptomatteContext::deQuote(currItem))

	mov	rdx, QWORD PTR currItem$127886[rsp]
	mov	rcx, QWORD PTR item$127870[rsp]
	call	QWORD PTR __imp_??$?8DU?$char_traits@D@std@@V?$allocator@D@1@@std@@YA_NAEBV?$basic_string@DU?$char_traits@D@std@@V?$allocator@D@2@@0@0@Z
	movzx	eax, al
	test	eax, eax
	jne	SHORT $LN53@DoClick
	mov	rdx, QWORD PTR currItem$127886[rsp]
	lea	rcx, QWORD PTR $T135339[rsp]
	call	?deQuote@CryptomatteContext@@SA?AV?$basic_string@DU?$char_traits@D@std@@V?$allocator@D@2@@std@@AEBV23@@Z ; CryptomatteContext::deQuote
	mov	QWORD PTR tv748[rsp], rax
	mov	rax, QWORD PTR tv748[rsp]
	mov	QWORD PTR tv954[rsp], rax
	mov	eax, DWORD PTR $T135419[rsp]
	or	eax, 1
	mov	DWORD PTR $T135419[rsp], eax
	mov	rdx, QWORD PTR tv954[rsp]
	mov	rcx, QWORD PTR item$127870[rsp]
	call	QWORD PTR __imp_??$?8DU?$char_traits@D@std@@V?$allocator@D@1@@std@@YA_NAEBV?$basic_string@DU?$char_traits@D@std@@V?$allocator@D@2@@0@0@Z
	movzx	eax, al
	test	eax, eax
	jne	SHORT $LN53@DoClick
	mov	DWORD PTR tv739[rsp], 0
	jmp	SHORT $LN54@DoClick
$LN53@DoClick:
	mov	DWORD PTR tv739[rsp], 1
$LN54@DoClick:
	movzx	eax, BYTE PTR tv739[rsp]
	mov	BYTE PTR $T135338[rsp], al
	mov	eax, DWORD PTR $T135419[rsp]
	and	eax, 1
	test	eax, eax
	je	SHORT $LN91@DoClick
	and	DWORD PTR $T135419[rsp], -2
	lea	rcx, QWORD PTR $T135339[rsp]
	call	QWORD PTR __imp_??1?$basic_string@DU?$char_traits@D@std@@V?$allocator@D@2@@std@@QEAA@XZ
$LN91@DoClick:
	movzx	eax, BYTE PTR $T135338[rsp]
	test	eax, eax
	je	$LN6@DoClick

; 315  : 								{
; 316  : 									newSelection.erase(j);

	lea	rax, QWORD PTR $T135342[rsp]
	mov	QWORD PTR $T135343[rsp], rax
	lea	rdx, QWORD PTR j$127879[rsp]
	mov	rcx, QWORD PTR $T135343[rsp]
	call	??0const_iterator@?$_Tree@V?$_Tset_traits@V?$basic_string@DU?$char_traits@D@std@@V?$allocator@D@2@@std@@U?$less@V?$basic_string@DU?$char_traits@D@std@@V?$allocator@D@2@@std@@@2@V?$allocator@V?$basic_string@DU?$char_traits@D@std@@V?$allocator@D@2@@std@@@2@$0A@@std@@@std@@QEAA@AEBV012@@Z
	mov	QWORD PTR tv958[rsp], rax
	mov	r8, QWORD PTR tv958[rsp]
	lea	rdx, QWORD PTR $T135344[rsp]
	lea	rcx, QWORD PTR newSelection$127210[rsp]
	call	?erase@?$_Tree@V?$_Tset_traits@V?$basic_string@DU?$char_traits@D@std@@V?$allocator@D@2@@std@@U?$less@V?$basic_string@DU?$char_traits@D@std@@V?$allocator@D@2@@std@@@2@V?$allocator@V?$basic_string@DU?$char_traits@D@std@@V?$allocator@D@2@@std@@@2@$0A@@std@@@std@@QEAA?AViterator@12@Vconst_iterator@12@@Z ; std::_Tree<std::_Tset_traits<std::basic_string<char,std::char_traits<char>,std::allocator<char> >,std::less<std::basic_string<char,std::char_traits<char>,std::allocator<char> > >,std::allocator<std::basic_string<char,std::char_traits<char>,std::allocator<char> > >,0> >::erase
	lea	rcx, QWORD PTR $T135344[rsp]
	call	??1iterator@?$_Tree@V?$_Tset_traits@V?$basic_string@DU?$char_traits@D@std@@V?$allocator@D@2@@std@@U?$less@V?$basic_string@DU?$char_traits@D@std@@V?$allocator@D@2@@std@@@2@V?$allocator@V?$basic_string@DU?$char_traits@D@std@@V?$allocator@D@2@@std@@@2@$0A@@std@@@std@@QEAA@XZ

; 317  : 
; 318  : 									if(i != clickedItems.begin())

	lea	rdx, QWORD PTR $T135346[rsp]
	lea	rcx, QWORD PTR clickedItems$127173[rsp]
	call	?begin@?$_Tree@V?$_Tset_traits@V?$basic_string@DU?$char_traits@D@std@@V?$allocator@D@2@@std@@U?$less@V?$basic_string@DU?$char_traits@D@std@@V?$allocator@D@2@@std@@@2@V?$allocator@V?$basic_string@DU?$char_traits@D@std@@V?$allocator@D@2@@std@@@2@$0A@@std@@@std@@QEAA?AViterator@12@XZ ; std::_Tree<std::_Tset_traits<std::basic_string<char,std::char_traits<char>,std::allocator<char> >,std::less<std::basic_string<char,std::char_traits<char>,std::allocator<char> > >,std::allocator<std::basic_string<char,std::char_traits<char>,std::allocator<char> > >,0> >::begin
	mov	QWORD PTR tv523[rsp], rax
	mov	rax, QWORD PTR tv523[rsp]
	mov	QWORD PTR tv961[rsp], rax
	mov	rdx, QWORD PTR tv961[rsp]
	lea	rcx, QWORD PTR i$127863[rsp]
	call	??9const_iterator@?$_Tree@V?$_Tset_traits@V?$basic_string@DU?$char_traits@D@std@@V?$allocator@D@2@@std@@U?$less@V?$basic_string@DU?$char_traits@D@std@@V?$allocator@D@2@@std@@@2@V?$allocator@V?$basic_string@DU?$char_traits@D@std@@V?$allocator@D@2@@std@@@2@$0A@@std@@@std@@QEBA_NAEBV012@@Z ; std::_Tree<std::_Tset_traits<std::basic_string<char,std::char_traits<char>,std::allocator<char> >,std::less<std::basic_string<char,std::char_traits<char>,std::allocator<char> > >,std::allocator<std::basic_string<char,std::char_traits<char>,std::allocator<char> > >,0> >::const_iterator::operator!=
	mov	BYTE PTR $T135345[rsp], al
	lea	rcx, QWORD PTR $T135346[rsp]
	call	??1iterator@?$_Tree@V?$_Tset_traits@V?$basic_string@DU?$char_traits@D@std@@V?$allocator@D@2@@std@@U?$less@V?$basic_string@DU?$char_traits@D@std@@V?$allocator@D@2@@std@@@2@V?$allocator@V?$basic_string@DU?$char_traits@D@std@@V?$allocator@D@2@@std@@@2@$0A@@std@@@std@@QEAA@XZ
	movzx	r11d, BYTE PTR $T135345[rsp]
	test	r11d, r11d
	je	SHORT $LN5@DoClick

; 319  : 										selectionInfoList += ", ";

	lea	rdx, OFFSET FLAT:$SG127895
	lea	rcx, QWORD PTR selectionInfoList$127213[rsp]
	call	QWORD PTR __imp_??Y?$basic_string@DU?$char_traits@D@std@@V?$allocator@D@2@@std@@QEAAAEAV01@PEBD@Z
$LN5@DoClick:

; 320  : 									
; 321  : 									selectionInfoList += item;

	mov	rdx, QWORD PTR item$127870[rsp]
	lea	rcx, QWORD PTR selectionInfoList$127213[rsp]
	call	QWORD PTR __imp_??Y?$basic_string@DU?$char_traits@D@std@@V?$allocator@D@2@@std@@QEAAAEAV01@AEBV01@@Z

; 322  : 
; 323  : 									break;

	jmp	SHORT $LN7@DoClick
$LN6@DoClick:

; 324  : 								}

	jmp	$LN8@DoClick
$LN7@DoClick:

; 325  : 							}

	lea	rcx, QWORD PTR j$127879[rsp]
	call	??1iterator@?$_Tree@V?$_Tset_traits@V?$basic_string@DU?$char_traits@D@std@@V?$allocator@D@2@@std@@U?$less@V?$basic_string@DU?$char_traits@D@std@@V?$allocator@D@2@@std@@@2@V?$allocator@V?$basic_string@DU?$char_traits@D@std@@V?$allocator@D@2@@std@@@2@$0A@@std@@@std@@QEAA@XZ
	jmp	$LN11@DoClick
$LN10@DoClick:

; 326  : 						}

	lea	rcx, QWORD PTR i$127863[rsp]
	call	??1const_iterator@?$_Tree@V?$_Tset_traits@V?$basic_string@DU?$char_traits@D@std@@V?$allocator@D@2@@std@@U?$less@V?$basic_string@DU?$char_traits@D@std@@V?$allocator@D@2@@std@@@2@V?$allocator@V?$basic_string@DU?$char_traits@D@std@@V?$allocator@D@2@@std@@@2@$0A@@std@@@std@@QEAA@XZ
	npad	1
$LN15@DoClick:

; 327  : 					}
; 328  : 				}

	lea	rcx, QWORD PTR currenSelection$127632[rsp]
	call	??1?$vector@V?$basic_string@DU?$char_traits@D@std@@V?$allocator@D@2@@std@@V?$allocator@V?$basic_string@DU?$char_traits@D@std@@V?$allocator@D@2@@std@@@2@@std@@QEAA@XZ ; std::vector<std::basic_string<char,std::char_traits<char>,std::allocator<char> >,std::allocator<std::basic_string<char,std::char_traits<char>,std::allocator<char> > > >::~vector<std::basic_string<char,std::char_traits<char>,std::allocator<char> >,std::allocator<std::basic_string<char,std::char_traits<char>,std::allocator<char> > > >
$LN28@DoClick:

; 329  : 				
; 330  : 				
; 331  : 				std::string selectedString;

	mov	dl, 1
	lea	rcx, QWORD PTR $T135347[rsp]
	call	??0_Has_debug_it@?$basic_string@DU?$char_traits@D@std@@V?$allocator@D@2@@std@@QEAA@_N@Z ; std::basic_string<char,std::char_traits<char>,std::allocator<char> >::_Has_debug_it::_Has_debug_it
	movzx	edx, BYTE PTR [rax]
	lea	rcx, QWORD PTR selectedString$127896[rsp]
	call	QWORD PTR __imp_??0?$basic_string@DU?$char_traits@D@std@@V?$allocator@D@2@@std@@QEAA@U_Has_debug_it@01@@Z
	npad	1

; 332  : 				
; 333  : 				for(std::set<std::string>::const_iterator i = newSelection.begin(); i != newSelection.end(); ++i)

	lea	rdx, QWORD PTR $T135348[rsp]
	lea	rcx, QWORD PTR newSelection$127210[rsp]
	call	?begin@?$_Tree@V?$_Tset_traits@V?$basic_string@DU?$char_traits@D@std@@V?$allocator@D@2@@std@@U?$less@V?$basic_string@DU?$char_traits@D@std@@V?$allocator@D@2@@std@@@2@V?$allocator@V?$basic_string@DU?$char_traits@D@std@@V?$allocator@D@2@@std@@@2@$0A@@std@@@std@@QEAA?AViterator@12@XZ ; std::_Tree<std::_Tset_traits<std::basic_string<char,std::char_traits<char>,std::allocator<char> >,std::less<std::basic_string<char,std::char_traits<char>,std::allocator<char> > >,std::allocator<std::basic_string<char,std::char_traits<char>,std::allocator<char> > >,0> >::begin
	mov	QWORD PTR tv788[rsp], rax
	mov	rax, QWORD PTR tv788[rsp]
	mov	QWORD PTR tv964[rsp], rax
	mov	rdx, QWORD PTR tv964[rsp]
	lea	rcx, QWORD PTR i$127906[rsp]
	call	??0const_iterator@?$_Tree@V?$_Tset_traits@V?$basic_string@DU?$char_traits@D@std@@V?$allocator@D@2@@std@@U?$less@V?$basic_string@DU?$char_traits@D@std@@V?$allocator@D@2@@std@@@2@V?$allocator@V?$basic_string@DU?$char_traits@D@std@@V?$allocator@D@2@@std@@@2@$0A@@std@@@std@@QEAA@AEBV012@@Z
	npad	1
	lea	rcx, QWORD PTR $T135348[rsp]
	call	??1iterator@?$_Tree@V?$_Tset_traits@V?$basic_string@DU?$char_traits@D@std@@V?$allocator@D@2@@std@@U?$less@V?$basic_string@DU?$char_traits@D@std@@V?$allocator@D@2@@std@@@2@V?$allocator@V?$basic_string@DU?$char_traits@D@std@@V?$allocator@D@2@@std@@@2@$0A@@std@@@std@@QEAA@XZ
	jmp	SHORT $LN4@DoClick
$LN3@DoClick:
	lea	rcx, QWORD PTR i$127906[rsp]
	call	??Econst_iterator@?$_Tree@V?$_Tset_traits@V?$basic_string@DU?$char_traits@D@std@@V?$allocator@D@2@@std@@U?$less@V?$basic_string@DU?$char_traits@D@std@@V?$allocator@D@2@@std@@@2@V?$allocator@V?$basic_string@DU?$char_traits@D@std@@V?$allocator@D@2@@std@@@2@$0A@@std@@@std@@QEAAAEAV012@XZ ; std::_Tree<std::_Tset_traits<std::basic_string<char,std::char_traits<char>,std::allocator<char> >,std::less<std::basic_string<char,std::char_traits<char>,std::allocator<char> > >,std::allocator<std::basic_string<char,std::char_traits<char>,std::allocator<char> > >,0> >::const_iterator::operator++
$LN4@DoClick:
	lea	rdx, QWORD PTR $T135350[rsp]
	lea	rcx, QWORD PTR newSelection$127210[rsp]
	call	?end@?$_Tree@V?$_Tset_traits@V?$basic_string@DU?$char_traits@D@std@@V?$allocator@D@2@@std@@U?$less@V?$basic_string@DU?$char_traits@D@std@@V?$allocator@D@2@@std@@@2@V?$allocator@V?$basic_string@DU?$char_traits@D@std@@V?$allocator@D@2@@std@@@2@$0A@@std@@@std@@QEAA?AViterator@12@XZ ; std::_Tree<std::_Tset_traits<std::basic_string<char,std::char_traits<char>,std::allocator<char> >,std::less<std::basic_string<char,std::char_traits<char>,std::allocator<char> > >,std::allocator<std::basic_string<char,std::char_traits<char>,std::allocator<char> > >,0> >::end
	mov	QWORD PTR tv795[rsp], rax
	mov	rax, QWORD PTR tv795[rsp]
	mov	QWORD PTR tv967[rsp], rax
	mov	rdx, QWORD PTR tv967[rsp]
	lea	rcx, QWORD PTR i$127906[rsp]
	call	??9const_iterator@?$_Tree@V?$_Tset_traits@V?$basic_string@DU?$char_traits@D@std@@V?$allocator@D@2@@std@@U?$less@V?$basic_string@DU?$char_traits@D@std@@V?$allocator@D@2@@std@@@2@V?$allocator@V?$basic_string@DU?$char_traits@D@std@@V?$allocator@D@2@@std@@@2@$0A@@std@@@std@@QEBA_NAEBV012@@Z ; std::_Tree<std::_Tset_traits<std::basic_string<char,std::char_traits<char>,std::allocator<char> >,std::less<std::basic_string<char,std::char_traits<char>,std::allocator<char> > >,std::allocator<std::basic_string<char,std::char_traits<char>,std::allocator<char> > >,0> >::const_iterator::operator!=
	mov	BYTE PTR $T135349[rsp], al
	lea	rcx, QWORD PTR $T135350[rsp]
	call	??1iterator@?$_Tree@V?$_Tset_traits@V?$basic_string@DU?$char_traits@D@std@@V?$allocator@D@2@@std@@U?$less@V?$basic_string@DU?$char_traits@D@std@@V?$allocator@D@2@@std@@@2@V?$allocator@V?$basic_string@DU?$char_traits@D@std@@V?$allocator@D@2@@std@@@2@$0A@@std@@@std@@QEAA@XZ
	movzx	r11d, BYTE PTR $T135349[rsp]
	test	r11d, r11d
	je	SHORT $LN2@DoClick

; 334  : 				{
; 335  : 					if( !selectedString.empty() )

	lea	rcx, QWORD PTR selectedString$127896[rsp]
	call	QWORD PTR __imp_?empty@?$basic_string@DU?$char_traits@D@std@@V?$allocator@D@2@@std@@QEBA_NXZ
	movzx	eax, al
	test	eax, eax
	jne	SHORT $LN1@DoClick

; 336  : 					{
; 337  : 						selectedString += ", ";

	lea	rdx, OFFSET FLAT:$SG127914
	lea	rcx, QWORD PTR selectedString$127896[rsp]
	call	QWORD PTR __imp_??Y?$basic_string@DU?$char_traits@D@std@@V?$allocator@D@2@@std@@QEAAAEAV01@PEBD@Z
$LN1@DoClick:

; 338  : 					}
; 339  : 					
; 340  : 					selectedString += *i;

	lea	rcx, QWORD PTR i$127906[rsp]
	call	??Dconst_iterator@?$_Tree@V?$_Tset_traits@V?$basic_string@DU?$char_traits@D@std@@V?$allocator@D@2@@std@@U?$less@V?$basic_string@DU?$char_traits@D@std@@V?$allocator@D@2@@std@@@2@V?$allocator@V?$basic_string@DU?$char_traits@D@std@@V?$allocator@D@2@@std@@@2@$0A@@std@@@std@@QEBAAEBV?$basic_string@DU?$char_traits@D@std@@V?$allocator@D@2@@2@XZ ; std::_Tree<std::_Tset_traits<std::basic_string<char,std::char_traits<char>,std::allocator<char> >,std::less<std::basic_string<char,std::char_traits<char>,std::allocator<char> > >,std::allocator<std::basic_string<char,std::char_traits<char>,std::allocator<char> > >,0> >::const_iterator::operator*
	mov	rdx, rax
	lea	rcx, QWORD PTR selectedString$127896[rsp]
	call	QWORD PTR __imp_??Y?$basic_string@DU?$char_traits@D@std@@V?$allocator@D@2@@std@@QEAAAEAV01@AEBV01@@Z
	jmp	$LN3@DoClick
$LN2@DoClick:

; 341  : 				}

	lea	rcx, QWORD PTR i$127906[rsp]
	call	??1const_iterator@?$_Tree@V?$_Tset_traits@V?$basic_string@DU?$char_traits@D@std@@V?$allocator@D@2@@std@@U?$less@V?$basic_string@DU?$char_traits@D@std@@V?$allocator@D@2@@std@@@2@V?$allocator@V?$basic_string@DU?$char_traits@D@std@@V?$allocator@D@2@@std@@@2@$0A@@std@@@std@@QEAA@XZ

; 342  : 				
; 343  : 				
; 344  : 				SetArbSelection(in_data, &params[CRYPTO_DATA]->u.arb_d.value, selectedString);

	mov	rdx, QWORD PTR params$[rsp]
	mov	rdx, QWORD PTR [rdx+8]
	add	rdx, 72					; 00000048H
	lea	r8, QWORD PTR selectedString$127896[rsp]
	mov	rcx, QWORD PTR in_data$[rsp]
	call	SetArbSelection

; 345  : 				
; 346  : 				params[CRYPTO_DATA]->uu.change_flags = PF_ChangeFlag_CHANGED_VALUE;

	mov	rax, QWORD PTR params$[rsp]
	mov	rax, QWORD PTR [rax+8]
	mov	DWORD PTR [rax], 1

; 347  : 				
; 348  : 			#if !AE135_RENDER_THREAD_MADNESS
; 349  : 				if(!(event_extra->u.do_click.modifiers & PF_Mod_CAPS_LOCK_KEY))
; 350  : 					seq_data->selectionChanged = TRUE;
; 351  : 			#endif
; 352  : 
; 353  : 				suites.AdvAppSuite()->PF_InfoDrawText(selectionInfo.c_str(), selectionInfoList.c_str());

	lea	rcx, QWORD PTR selectionInfoList$127213[rsp]
	call	QWORD PTR __imp_?c_str@?$basic_string@DU?$char_traits@D@std@@V?$allocator@D@2@@std@@QEBAPEBDXZ
	mov	rdi, rax
	lea	rcx, QWORD PTR selectionInfo$127211[rsp]
	call	QWORD PTR __imp_?c_str@?$basic_string@DU?$char_traits@D@std@@V?$allocator@D@2@@std@@QEBAPEBDXZ
	mov	rbx, rax
	lea	rcx, QWORD PTR suites$126628[rsp]
	call	?AdvAppSuite@AEGP_SuiteHandler@@QEBAPEAUPF_AdvAppSuite1@@XZ ; AEGP_SuiteHandler::AdvAppSuite
	mov	rdx, rdi
	mov	rcx, rbx
	call	QWORD PTR [rax+48]
	npad	1

; 354  : 					
; 355  : 			#if !AE135_RENDER_THREAD_MADNESS
; 356  : 				event_extra->u.do_click.send_drag = TRUE;
; 357  : 			#endif
; 358  : 			}

	lea	rcx, QWORD PTR selectedString$127896[rsp]
	call	QWORD PTR __imp_??1?$basic_string@DU?$char_traits@D@std@@V?$allocator@D@2@@std@@QEAA@XZ
	npad	1
	lea	rcx, QWORD PTR selectionInfoList$127213[rsp]
	call	QWORD PTR __imp_??1?$basic_string@DU?$char_traits@D@std@@V?$allocator@D@2@@std@@QEAA@XZ
	npad	1
	lea	rcx, QWORD PTR selectionInfo$127211[rsp]
	call	QWORD PTR __imp_??1?$basic_string@DU?$char_traits@D@std@@V?$allocator@D@2@@std@@QEAA@XZ
	npad	1
	lea	rcx, QWORD PTR newSelection$127210[rsp]
	call	??1?$set@V?$basic_string@DU?$char_traits@D@std@@V?$allocator@D@2@@std@@U?$less@V?$basic_string@DU?$char_traits@D@std@@V?$allocator@D@2@@std@@@2@V?$allocator@V?$basic_string@DU?$char_traits@D@std@@V?$allocator@D@2@@std@@@2@@std@@QEAA@XZ
	npad	1
$LN38@DoClick:

; 359  : 		}

	lea	rcx, QWORD PTR clickedItems$127173[rsp]
	call	??1?$set@V?$basic_string@DU?$char_traits@D@std@@V?$allocator@D@2@@std@@U?$less@V?$basic_string@DU?$char_traits@D@std@@V?$allocator@D@2@@std@@@2@V?$allocator@V?$basic_string@DU?$char_traits@D@std@@V?$allocator@D@2@@std@@@2@@std@@QEAA@XZ
$LN43@DoClick:

; 360  : 		
; 361  : 		PF_UNLOCK_HANDLE(params[CRYPTO_DATA]->u.arb_d.value);

	mov	rcx, QWORD PTR params$[rsp]
	mov	rcx, QWORD PTR [rcx+8]
	mov	rax, QWORD PTR in_data$[rsp]
	mov	rax, QWORD PTR [rax+176]
	mov	rcx, QWORD PTR [rcx+72]
	call	QWORD PTR [rax+176]

; 362  : 		PF_UNLOCK_HANDLE(in_data->sequence_data);

	mov	rax, QWORD PTR in_data$[rsp]
	mov	rax, QWORD PTR [rax+176]
	mov	rcx, QWORD PTR in_data$[rsp]
	mov	rcx, QWORD PTR [rcx+320]
	call	QWORD PTR [rax+176]
	npad	1

; 363  : 	}

	lea	rcx, QWORD PTR suites$126628[rsp]
	call	??1AEGP_SuiteHandler@@QEAA@XZ		; AEGP_SuiteHandler::~AEGP_SuiteHandler
$LN47@DoClick:

; 364  : 	
; 365  : 	return PF_Err_NONE;

	xor	eax, eax

; 366  : }

	mov	rcx, QWORD PTR __$ArrayPad$[rsp]
	xor	rcx, rsp
	call	__security_check_cookie
	add	rsp, 2648				; 00000a58H
	pop	rdi
	pop	rbx
	ret	0
?DoClick@@YAJPEAUPF_InData@@PEAUPF_OutData@@QEAPEAUPF_ParamDef@@PEAUPF_LayerDef@@PEAUPF_EventExtra@@@Z ENDP ; DoClick
; Function compile flags: /Odtp
_TEXT	ENDS
text$x	SEGMENT
suites$126628 = 48
arb_data$126629 = 464
seq_data$126632 = 472
context$126642 = 480
renderErr$127187 = 488
mouse_downFixPt$127176 = 496
optionsH$127184 = 504
streamRefH$127183 = 512
clickedItems$127173 = 520
selectionVal$127185 = 576
effectRefH$127182 = 616
validClick$126647 = 624
context$126645 = 632
frameReceiptH$127186 = 640
mouse_downPt$127174 = 648
worldH$127189 = 656
effectWorld$127191 = 672
row$127197 = 800
format$127193 = 808
selectionInfo$127211 = 824
newSelection$127210 = 872
selectionInfoList$127213 = 928
selectedString$127896 = 976
i$127342 = 1024
item$127349 = 1048
currenSelection$127632 = 1096
i$127760 = 1136
i$127829 = 1160
item$127836 = 1184
i$127863 = 1232
item$127870 = 1256
j$127879 = 1264
currItem$127886 = 1288
i$127906 = 1296
$T135304 = 1320
$T135305 = 1328
$T135309 = 1336
$T135310 = 1392
$T135311 = 1393
$T135312 = 1394
$T135313 = 1400
$T135314 = 1424
$T135315 = 1432
$T135316 = 1456
$T135317 = 1504
$T135318 = 1552
$T135319 = 1584
$T135320 = 1632
$T135321 = 1680
$T135322 = 1704
$T135323 = 1712
$T135324 = 1736
$T135325 = 1768
$T135326 = 1792
$T135327 = 1800
$T135328 = 1824
$T135329 = 1832
$T135330 = 1856
$T135331 = 1904
$T135332 = 1952
$T135333 = 1984
$T135334 = 2008
$T135335 = 2016
$T135336 = 2040
$T135337 = 2048
$T135338 = 2072
$T135339 = 2080
$T135342 = 2128
$T135343 = 2152
$T135344 = 2160
$T135345 = 2184
$T135346 = 2192
$T135347 = 2216
$T135348 = 2224
$T135349 = 2248
$T135350 = 2256
$T135419 = 2280
$T135443 = 2288
tv130 = 2296
tv136 = 2304
tv905 = 2312
tv351 = 2320
tv911 = 2328
tv378 = 2336
tv914 = 2344
tv324 = 2352
tv916 = 2360
tv317 = 2368
tv918 = 2376
tv452 = 2384
tv924 = 2392
tv459 = 2400
tv927 = 2408
tv446 = 2416
tv930 = 2424
tv546 = 2432
tv933 = 2440
tv582 = 2448
tv936 = 2456
tv443 = 2464
tv938 = 2472
tv314 = 2480
tv940 = 2488
tv70 = 2496
tv943 = 2504
tv654 = 2512
tv946 = 2520
tv696 = 2528
tv949 = 2536
tv748 = 2544
tv954 = 2552
tv739 = 2560
tv958 = 2568
tv523 = 2576
tv961 = 2584
tv788 = 2592
tv964 = 2600
tv795 = 2608
tv967 = 2616
__$ArrayPad$ = 2624
in_data$ = 2672
out_data$ = 2680
params$ = 2688
output$ = 2696
event_extra$ = 2704
?dtor$0@?0??DoClick@@YAJPEAUPF_InData@@PEAUPF_OutData@@QEAPEAUPF_ParamDef@@PEAUPF_LayerDef@@PEAUPF_EventExtra@@@Z@4HA PROC ; `DoClick'::`1'::dtor$0
	push	rbp
	sub	rsp, 32					; 00000020H
	mov	rbp, rdx
	lea	rcx, QWORD PTR suites$126628[rbp]
	call	??1AEGP_SuiteHandler@@QEAA@XZ		; AEGP_SuiteHandler::~AEGP_SuiteHandler
	add	rsp, 32					; 00000020H
	pop	rbp
	ret	0
?dtor$0@?0??DoClick@@YAJPEAUPF_InData@@PEAUPF_OutData@@QEAPEAUPF_ParamDef@@PEAUPF_LayerDef@@PEAUPF_EventExtra@@@Z@4HA ENDP ; `DoClick'::`1'::dtor$0
; Function compile flags: /Odtp
suites$126628 = 48
arb_data$126629 = 464
seq_data$126632 = 472
context$126642 = 480
renderErr$127187 = 488
mouse_downFixPt$127176 = 496
optionsH$127184 = 504
streamRefH$127183 = 512
clickedItems$127173 = 520
selectionVal$127185 = 576
effectRefH$127182 = 616
validClick$126647 = 624
context$126645 = 632
frameReceiptH$127186 = 640
mouse_downPt$127174 = 648
worldH$127189 = 656
effectWorld$127191 = 672
row$127197 = 800
format$127193 = 808
selectionInfo$127211 = 824
newSelection$127210 = 872
selectionInfoList$127213 = 928
selectedString$127896 = 976
i$127342 = 1024
item$127349 = 1048
currenSelection$127632 = 1096
i$127760 = 1136
i$127829 = 1160
item$127836 = 1184
i$127863 = 1232
item$127870 = 1256
j$127879 = 1264
currItem$127886 = 1288
i$127906 = 1296
$T135304 = 1320
$T135305 = 1328
$T135309 = 1336
$T135310 = 1392
$T135311 = 1393
$T135312 = 1394
$T135313 = 1400
$T135314 = 1424
$T135315 = 1432
$T135316 = 1456
$T135317 = 1504
$T135318 = 1552
$T135319 = 1584
$T135320 = 1632
$T135321 = 1680
$T135322 = 1704
$T135323 = 1712
$T135324 = 1736
$T135325 = 1768
$T135326 = 1792
$T135327 = 1800
$T135328 = 1824
$T135329 = 1832
$T135330 = 1856
$T135331 = 1904
$T135332 = 1952
$T135333 = 1984
$T135334 = 2008
$T135335 = 2016
$T135336 = 2040
$T135337 = 2048
$T135338 = 2072
$T135339 = 2080
$T135342 = 2128
$T135343 = 2152
$T135344 = 2160
$T135345 = 2184
$T135346 = 2192
$T135347 = 2216
$T135348 = 2224
$T135349 = 2248
$T135350 = 2256
$T135419 = 2280
$T135443 = 2288
tv130 = 2296
tv136 = 2304
tv905 = 2312
tv351 = 2320
tv911 = 2328
tv378 = 2336
tv914 = 2344
tv324 = 2352
tv916 = 2360
tv317 = 2368
tv918 = 2376
tv452 = 2384
tv924 = 2392
tv459 = 2400
tv927 = 2408
tv446 = 2416
tv930 = 2424
tv546 = 2432
tv933 = 2440
tv582 = 2448
tv936 = 2456
tv443 = 2464
tv938 = 2472
tv314 = 2480
tv940 = 2488
tv70 = 2496
tv943 = 2504
tv654 = 2512
tv946 = 2520
tv696 = 2528
tv949 = 2536
tv748 = 2544
tv954 = 2552
tv739 = 2560
tv958 = 2568
tv523 = 2576
tv961 = 2584
tv788 = 2592
tv964 = 2600
tv795 = 2608
tv967 = 2616
__$ArrayPad$ = 2624
in_data$ = 2672
out_data$ = 2680
params$ = 2688
output$ = 2696
event_extra$ = 2704
?dtor$1@?0??DoClick@@YAJPEAUPF_InData@@PEAUPF_OutData@@QEAPEAUPF_ParamDef@@PEAUPF_LayerDef@@PEAUPF_EventExtra@@@Z@4HA PROC ; `DoClick'::`1'::dtor$1
	push	rbp
	sub	rsp, 32					; 00000020H
	mov	rbp, rdx
	mov	rcx, QWORD PTR $T135305[rbp]
	call	??3@YAXPEAX@Z				; operator delete
	add	rsp, 32					; 00000020H
	pop	rbp
	ret	0
?dtor$1@?0??DoClick@@YAJPEAUPF_InData@@PEAUPF_OutData@@QEAPEAUPF_ParamDef@@PEAUPF_LayerDef@@PEAUPF_EventExtra@@@Z@4HA ENDP ; `DoClick'::`1'::dtor$1
; Function compile flags: /Odtp
suites$126628 = 48
arb_data$126629 = 464
seq_data$126632 = 472
context$126642 = 480
renderErr$127187 = 488
mouse_downFixPt$127176 = 496
optionsH$127184 = 504
streamRefH$127183 = 512
clickedItems$127173 = 520
selectionVal$127185 = 576
effectRefH$127182 = 616
validClick$126647 = 624
context$126645 = 632
frameReceiptH$127186 = 640
mouse_downPt$127174 = 648
worldH$127189 = 656
effectWorld$127191 = 672
row$127197 = 800
format$127193 = 808
selectionInfo$127211 = 824
newSelection$127210 = 872
selectionInfoList$127213 = 928
selectedString$127896 = 976
i$127342 = 1024
item$127349 = 1048
currenSelection$127632 = 1096
i$127760 = 1136
i$127829 = 1160
item$127836 = 1184
i$127863 = 1232
item$127870 = 1256
j$127879 = 1264
currItem$127886 = 1288
i$127906 = 1296
$T135304 = 1320
$T135305 = 1328
$T135309 = 1336
$T135310 = 1392
$T135311 = 1393
$T135312 = 1394
$T135313 = 1400
$T135314 = 1424
$T135315 = 1432
$T135316 = 1456
$T135317 = 1504
$T135318 = 1552
$T135319 = 1584
$T135320 = 1632
$T135321 = 1680
$T135322 = 1704
$T135323 = 1712
$T135324 = 1736
$T135325 = 1768
$T135326 = 1792
$T135327 = 1800
$T135328 = 1824
$T135329 = 1832
$T135330 = 1856
$T135331 = 1904
$T135332 = 1952
$T135333 = 1984
$T135334 = 2008
$T135335 = 2016
$T135336 = 2040
$T135337 = 2048
$T135338 = 2072
$T135339 = 2080
$T135342 = 2128
$T135343 = 2152
$T135344 = 2160
$T135345 = 2184
$T135346 = 2192
$T135347 = 2216
$T135348 = 2224
$T135349 = 2248
$T135350 = 2256
$T135419 = 2280
$T135443 = 2288
tv130 = 2296
tv136 = 2304
tv905 = 2312
tv351 = 2320
tv911 = 2328
tv378 = 2336
tv914 = 2344
tv324 = 2352
tv916 = 2360
tv317 = 2368
tv918 = 2376
tv452 = 2384
tv924 = 2392
tv459 = 2400
tv927 = 2408
tv446 = 2416
tv930 = 2424
tv546 = 2432
tv933 = 2440
tv582 = 2448
tv936 = 2456
tv443 = 2464
tv938 = 2472
tv314 = 2480
tv940 = 2488
tv70 = 2496
tv943 = 2504
tv654 = 2512
tv946 = 2520
tv696 = 2528
tv949 = 2536
tv748 = 2544
tv954 = 2552
tv739 = 2560
tv958 = 2568
tv523 = 2576
tv961 = 2584
tv788 = 2592
tv964 = 2600
tv795 = 2608
tv967 = 2616
__$ArrayPad$ = 2624
in_data$ = 2672
out_data$ = 2680
params$ = 2688
output$ = 2696
event_extra$ = 2704
?dtor$2@?0??DoClick@@YAJPEAUPF_InData@@PEAUPF_OutData@@QEAPEAUPF_ParamDef@@PEAUPF_LayerDef@@PEAUPF_EventExtra@@@Z@4HA PROC ; `DoClick'::`1'::dtor$2
	push	rbp
	sub	rsp, 32					; 00000020H
	mov	rbp, rdx
	lea	rcx, QWORD PTR clickedItems$127173[rbp]
	call	??1?$set@V?$basic_string@DU?$char_traits@D@std@@V?$allocator@D@2@@std@@U?$less@V?$basic_string@DU?$char_traits@D@std@@V?$allocator@D@2@@std@@@2@V?$allocator@V?$basic_string@DU?$char_traits@D@std@@V?$allocator@D@2@@std@@@2@@std@@QEAA@XZ
	add	rsp, 32					; 00000020H
	pop	rbp
	ret	0
?dtor$2@?0??DoClick@@YAJPEAUPF_InData@@PEAUPF_OutData@@QEAPEAUPF_ParamDef@@PEAUPF_LayerDef@@PEAUPF_EventExtra@@@Z@4HA ENDP ; `DoClick'::`1'::dtor$2
; Function compile flags: /Odtp
suites$126628 = 48
arb_data$126629 = 464
seq_data$126632 = 472
context$126642 = 480
renderErr$127187 = 488
mouse_downFixPt$127176 = 496
optionsH$127184 = 504
streamRefH$127183 = 512
clickedItems$127173 = 520
selectionVal$127185 = 576
effectRefH$127182 = 616
validClick$126647 = 624
context$126645 = 632
frameReceiptH$127186 = 640
mouse_downPt$127174 = 648
worldH$127189 = 656
effectWorld$127191 = 672
row$127197 = 800
format$127193 = 808
selectionInfo$127211 = 824
newSelection$127210 = 872
selectionInfoList$127213 = 928
selectedString$127896 = 976
i$127342 = 1024
item$127349 = 1048
currenSelection$127632 = 1096
i$127760 = 1136
i$127829 = 1160
item$127836 = 1184
i$127863 = 1232
item$127870 = 1256
j$127879 = 1264
currItem$127886 = 1288
i$127906 = 1296
$T135304 = 1320
$T135305 = 1328
$T135309 = 1336
$T135310 = 1392
$T135311 = 1393
$T135312 = 1394
$T135313 = 1400
$T135314 = 1424
$T135315 = 1432
$T135316 = 1456
$T135317 = 1504
$T135318 = 1552
$T135319 = 1584
$T135320 = 1632
$T135321 = 1680
$T135322 = 1704
$T135323 = 1712
$T135324 = 1736
$T135325 = 1768
$T135326 = 1792
$T135327 = 1800
$T135328 = 1824
$T135329 = 1832
$T135330 = 1856
$T135331 = 1904
$T135332 = 1952
$T135333 = 1984
$T135334 = 2008
$T135335 = 2016
$T135336 = 2040
$T135337 = 2048
$T135338 = 2072
$T135339 = 2080
$T135342 = 2128
$T135343 = 2152
$T135344 = 2160
$T135345 = 2184
$T135346 = 2192
$T135347 = 2216
$T135348 = 2224
$T135349 = 2248
$T135350 = 2256
$T135419 = 2280
$T135443 = 2288
tv130 = 2296
tv136 = 2304
tv905 = 2312
tv351 = 2320
tv911 = 2328
tv378 = 2336
tv914 = 2344
tv324 = 2352
tv916 = 2360
tv317 = 2368
tv918 = 2376
tv452 = 2384
tv924 = 2392
tv459 = 2400
tv927 = 2408
tv446 = 2416
tv930 = 2424
tv546 = 2432
tv933 = 2440
tv582 = 2448
tv936 = 2456
tv443 = 2464
tv938 = 2472
tv314 = 2480
tv940 = 2488
tv70 = 2496
tv943 = 2504
tv654 = 2512
tv946 = 2520
tv696 = 2528
tv949 = 2536
tv748 = 2544
tv954 = 2552
tv739 = 2560
tv958 = 2568
tv523 = 2576
tv961 = 2584
tv788 = 2592
tv964 = 2600
tv795 = 2608
tv967 = 2616
__$ArrayPad$ = 2624
in_data$ = 2672
out_data$ = 2680
params$ = 2688
output$ = 2696
event_extra$ = 2704
?dtor$3@?0??DoClick@@YAJPEAUPF_InData@@PEAUPF_OutData@@QEAPEAUPF_ParamDef@@PEAUPF_LayerDef@@PEAUPF_EventExtra@@@Z@4HA PROC ; `DoClick'::`1'::dtor$3
	push	rbp
	sub	rsp, 32					; 00000020H
	mov	rbp, rdx
	lea	rcx, QWORD PTR $T135309[rbp]
	call	??1?$set@V?$basic_string@DU?$char_traits@D@std@@V?$allocator@D@2@@std@@U?$less@V?$basic_string@DU?$char_traits@D@std@@V?$allocator@D@2@@std@@@2@V?$allocator@V?$basic_string@DU?$char_traits@D@std@@V?$allocator@D@2@@std@@@2@@std@@QEAA@XZ
	add	rsp, 32					; 00000020H
	pop	rbp
	ret	0
?dtor$3@?0??DoClick@@YAJPEAUPF_InData@@PEAUPF_OutData@@QEAPEAUPF_ParamDef@@PEAUPF_LayerDef@@PEAUPF_EventExtra@@@Z@4HA ENDP ; `DoClick'::`1'::dtor$3
; Function compile flags: /Odtp
suites$126628 = 48
arb_data$126629 = 464
seq_data$126632 = 472
context$126642 = 480
renderErr$127187 = 488
mouse_downFixPt$127176 = 496
optionsH$127184 = 504
streamRefH$127183 = 512
clickedItems$127173 = 520
selectionVal$127185 = 576
effectRefH$127182 = 616
validClick$126647 = 624
context$126645 = 632
frameReceiptH$127186 = 640
mouse_downPt$127174 = 648
worldH$127189 = 656
effectWorld$127191 = 672
row$127197 = 800
format$127193 = 808
selectionInfo$127211 = 824
newSelection$127210 = 872
selectionInfoList$127213 = 928
selectedString$127896 = 976
i$127342 = 1024
item$127349 = 1048
currenSelection$127632 = 1096
i$127760 = 1136
i$127829 = 1160
item$127836 = 1184
i$127863 = 1232
item$127870 = 1256
j$127879 = 1264
currItem$127886 = 1288
i$127906 = 1296
$T135304 = 1320
$T135305 = 1328
$T135309 = 1336
$T135310 = 1392
$T135311 = 1393
$T135312 = 1394
$T135313 = 1400
$T135314 = 1424
$T135315 = 1432
$T135316 = 1456
$T135317 = 1504
$T135318 = 1552
$T135319 = 1584
$T135320 = 1632
$T135321 = 1680
$T135322 = 1704
$T135323 = 1712
$T135324 = 1736
$T135325 = 1768
$T135326 = 1792
$T135327 = 1800
$T135328 = 1824
$T135329 = 1832
$T135330 = 1856
$T135331 = 1904
$T135332 = 1952
$T135333 = 1984
$T135334 = 2008
$T135335 = 2016
$T135336 = 2040
$T135337 = 2048
$T135338 = 2072
$T135339 = 2080
$T135342 = 2128
$T135343 = 2152
$T135344 = 2160
$T135345 = 2184
$T135346 = 2192
$T135347 = 2216
$T135348 = 2224
$T135349 = 2248
$T135350 = 2256
$T135419 = 2280
$T135443 = 2288
tv130 = 2296
tv136 = 2304
tv905 = 2312
tv351 = 2320
tv911 = 2328
tv378 = 2336
tv914 = 2344
tv324 = 2352
tv916 = 2360
tv317 = 2368
tv918 = 2376
tv452 = 2384
tv924 = 2392
tv459 = 2400
tv927 = 2408
tv446 = 2416
tv930 = 2424
tv546 = 2432
tv933 = 2440
tv582 = 2448
tv936 = 2456
tv443 = 2464
tv938 = 2472
tv314 = 2480
tv940 = 2488
tv70 = 2496
tv943 = 2504
tv654 = 2512
tv946 = 2520
tv696 = 2528
tv949 = 2536
tv748 = 2544
tv954 = 2552
tv739 = 2560
tv958 = 2568
tv523 = 2576
tv961 = 2584
tv788 = 2592
tv964 = 2600
tv795 = 2608
tv967 = 2616
__$ArrayPad$ = 2624
in_data$ = 2672
out_data$ = 2680
params$ = 2688
output$ = 2696
event_extra$ = 2704
?dtor$4@?0??DoClick@@YAJPEAUPF_InData@@PEAUPF_OutData@@QEAPEAUPF_ParamDef@@PEAUPF_LayerDef@@PEAUPF_EventExtra@@@Z@4HA PROC ; `DoClick'::`1'::dtor$4
	push	rbp
	sub	rsp, 32					; 00000020H
	mov	rbp, rdx
	lea	rcx, QWORD PTR newSelection$127210[rbp]
	call	??1?$set@V?$basic_string@DU?$char_traits@D@std@@V?$allocator@D@2@@std@@U?$less@V?$basic_string@DU?$char_traits@D@std@@V?$allocator@D@2@@std@@@2@V?$allocator@V?$basic_string@DU?$char_traits@D@std@@V?$allocator@D@2@@std@@@2@@std@@QEAA@XZ
	add	rsp, 32					; 00000020H
	pop	rbp
	ret	0
?dtor$4@?0??DoClick@@YAJPEAUPF_InData@@PEAUPF_OutData@@QEAPEAUPF_ParamDef@@PEAUPF_LayerDef@@PEAUPF_EventExtra@@@Z@4HA ENDP ; `DoClick'::`1'::dtor$4
; Function compile flags: /Odtp
suites$126628 = 48
arb_data$126629 = 464
seq_data$126632 = 472
context$126642 = 480
renderErr$127187 = 488
mouse_downFixPt$127176 = 496
optionsH$127184 = 504
streamRefH$127183 = 512
clickedItems$127173 = 520
selectionVal$127185 = 576
effectRefH$127182 = 616
validClick$126647 = 624
context$126645 = 632
frameReceiptH$127186 = 640
mouse_downPt$127174 = 648
worldH$127189 = 656
effectWorld$127191 = 672
row$127197 = 800
format$127193 = 808
selectionInfo$127211 = 824
newSelection$127210 = 872
selectionInfoList$127213 = 928
selectedString$127896 = 976
i$127342 = 1024
item$127349 = 1048
currenSelection$127632 = 1096
i$127760 = 1136
i$127829 = 1160
item$127836 = 1184
i$127863 = 1232
item$127870 = 1256
j$127879 = 1264
currItem$127886 = 1288
i$127906 = 1296
$T135304 = 1320
$T135305 = 1328
$T135309 = 1336
$T135310 = 1392
$T135311 = 1393
$T135312 = 1394
$T135313 = 1400
$T135314 = 1424
$T135315 = 1432
$T135316 = 1456
$T135317 = 1504
$T135318 = 1552
$T135319 = 1584
$T135320 = 1632
$T135321 = 1680
$T135322 = 1704
$T135323 = 1712
$T135324 = 1736
$T135325 = 1768
$T135326 = 1792
$T135327 = 1800
$T135328 = 1824
$T135329 = 1832
$T135330 = 1856
$T135331 = 1904
$T135332 = 1952
$T135333 = 1984
$T135334 = 2008
$T135335 = 2016
$T135336 = 2040
$T135337 = 2048
$T135338 = 2072
$T135339 = 2080
$T135342 = 2128
$T135343 = 2152
$T135344 = 2160
$T135345 = 2184
$T135346 = 2192
$T135347 = 2216
$T135348 = 2224
$T135349 = 2248
$T135350 = 2256
$T135419 = 2280
$T135443 = 2288
tv130 = 2296
tv136 = 2304
tv905 = 2312
tv351 = 2320
tv911 = 2328
tv378 = 2336
tv914 = 2344
tv324 = 2352
tv916 = 2360
tv317 = 2368
tv918 = 2376
tv452 = 2384
tv924 = 2392
tv459 = 2400
tv927 = 2408
tv446 = 2416
tv930 = 2424
tv546 = 2432
tv933 = 2440
tv582 = 2448
tv936 = 2456
tv443 = 2464
tv938 = 2472
tv314 = 2480
tv940 = 2488
tv70 = 2496
tv943 = 2504
tv654 = 2512
tv946 = 2520
tv696 = 2528
tv949 = 2536
tv748 = 2544
tv954 = 2552
tv739 = 2560
tv958 = 2568
tv523 = 2576
tv961 = 2584
tv788 = 2592
tv964 = 2600
tv795 = 2608
tv967 = 2616
__$ArrayPad$ = 2624
in_data$ = 2672
out_data$ = 2680
params$ = 2688
output$ = 2696
event_extra$ = 2704
?dtor$5@?0??DoClick@@YAJPEAUPF_InData@@PEAUPF_OutData@@QEAPEAUPF_ParamDef@@PEAUPF_LayerDef@@PEAUPF_EventExtra@@@Z@4HA PROC ; `DoClick'::`1'::dtor$5
	push	rbp
	sub	rsp, 32					; 00000020H
	mov	rbp, rdx
	lea	rcx, QWORD PTR selectionInfo$127211[rbp]
	call	QWORD PTR __imp_??1?$basic_string@DU?$char_traits@D@std@@V?$allocator@D@2@@std@@QEAA@XZ
	add	rsp, 32					; 00000020H
	pop	rbp
	ret	0
?dtor$5@?0??DoClick@@YAJPEAUPF_InData@@PEAUPF_OutData@@QEAPEAUPF_ParamDef@@PEAUPF_LayerDef@@PEAUPF_EventExtra@@@Z@4HA ENDP ; `DoClick'::`1'::dtor$5
; Function compile flags: /Odtp
suites$126628 = 48
arb_data$126629 = 464
seq_data$126632 = 472
context$126642 = 480
renderErr$127187 = 488
mouse_downFixPt$127176 = 496
optionsH$127184 = 504
streamRefH$127183 = 512
clickedItems$127173 = 520
selectionVal$127185 = 576
effectRefH$127182 = 616
validClick$126647 = 624
context$126645 = 632
frameReceiptH$127186 = 640
mouse_downPt$127174 = 648
worldH$127189 = 656
effectWorld$127191 = 672
row$127197 = 800
format$127193 = 808
selectionInfo$127211 = 824
newSelection$127210 = 872
selectionInfoList$127213 = 928
selectedString$127896 = 976
i$127342 = 1024
item$127349 = 1048
currenSelection$127632 = 1096
i$127760 = 1136
i$127829 = 1160
item$127836 = 1184
i$127863 = 1232
item$127870 = 1256
j$127879 = 1264
currItem$127886 = 1288
i$127906 = 1296
$T135304 = 1320
$T135305 = 1328
$T135309 = 1336
$T135310 = 1392
$T135311 = 1393
$T135312 = 1394
$T135313 = 1400
$T135314 = 1424
$T135315 = 1432
$T135316 = 1456
$T135317 = 1504
$T135318 = 1552
$T135319 = 1584
$T135320 = 1632
$T135321 = 1680
$T135322 = 1704
$T135323 = 1712
$T135324 = 1736
$T135325 = 1768
$T135326 = 1792
$T135327 = 1800
$T135328 = 1824
$T135329 = 1832
$T135330 = 1856
$T135331 = 1904
$T135332 = 1952
$T135333 = 1984
$T135334 = 2008
$T135335 = 2016
$T135336 = 2040
$T135337 = 2048
$T135338 = 2072
$T135339 = 2080
$T135342 = 2128
$T135343 = 2152
$T135344 = 2160
$T135345 = 2184
$T135346 = 2192
$T135347 = 2216
$T135348 = 2224
$T135349 = 2248
$T135350 = 2256
$T135419 = 2280
$T135443 = 2288
tv130 = 2296
tv136 = 2304
tv905 = 2312
tv351 = 2320
tv911 = 2328
tv378 = 2336
tv914 = 2344
tv324 = 2352
tv916 = 2360
tv317 = 2368
tv918 = 2376
tv452 = 2384
tv924 = 2392
tv459 = 2400
tv927 = 2408
tv446 = 2416
tv930 = 2424
tv546 = 2432
tv933 = 2440
tv582 = 2448
tv936 = 2456
tv443 = 2464
tv938 = 2472
tv314 = 2480
tv940 = 2488
tv70 = 2496
tv943 = 2504
tv654 = 2512
tv946 = 2520
tv696 = 2528
tv949 = 2536
tv748 = 2544
tv954 = 2552
tv739 = 2560
tv958 = 2568
tv523 = 2576
tv961 = 2584
tv788 = 2592
tv964 = 2600
tv795 = 2608
tv967 = 2616
__$ArrayPad$ = 2624
in_data$ = 2672
out_data$ = 2680
params$ = 2688
output$ = 2696
event_extra$ = 2704
?dtor$6@?0??DoClick@@YAJPEAUPF_InData@@PEAUPF_OutData@@QEAPEAUPF_ParamDef@@PEAUPF_LayerDef@@PEAUPF_EventExtra@@@Z@4HA PROC ; `DoClick'::`1'::dtor$6
	push	rbp
	sub	rsp, 32					; 00000020H
	mov	rbp, rdx
	lea	rcx, QWORD PTR selectionInfoList$127213[rbp]
	call	QWORD PTR __imp_??1?$basic_string@DU?$char_traits@D@std@@V?$allocator@D@2@@std@@QEAA@XZ
	add	rsp, 32					; 00000020H
	pop	rbp
	ret	0
?dtor$6@?0??DoClick@@YAJPEAUPF_InData@@PEAUPF_OutData@@QEAPEAUPF_ParamDef@@PEAUPF_LayerDef@@PEAUPF_EventExtra@@@Z@4HA ENDP ; `DoClick'::`1'::dtor$6
; Function compile flags: /Odtp
suites$126628 = 48
arb_data$126629 = 464
seq_data$126632 = 472
context$126642 = 480
renderErr$127187 = 488
mouse_downFixPt$127176 = 496
optionsH$127184 = 504
streamRefH$127183 = 512
clickedItems$127173 = 520
selectionVal$127185 = 576
effectRefH$127182 = 616
validClick$126647 = 624
context$126645 = 632
frameReceiptH$127186 = 640
mouse_downPt$127174 = 648
worldH$127189 = 656
effectWorld$127191 = 672
row$127197 = 800
format$127193 = 808
selectionInfo$127211 = 824
newSelection$127210 = 872
selectionInfoList$127213 = 928
selectedString$127896 = 976
i$127342 = 1024
item$127349 = 1048
currenSelection$127632 = 1096
i$127760 = 1136
i$127829 = 1160
item$127836 = 1184
i$127863 = 1232
item$127870 = 1256
j$127879 = 1264
currItem$127886 = 1288
i$127906 = 1296
$T135304 = 1320
$T135305 = 1328
$T135309 = 1336
$T135310 = 1392
$T135311 = 1393
$T135312 = 1394
$T135313 = 1400
$T135314 = 1424
$T135315 = 1432
$T135316 = 1456
$T135317 = 1504
$T135318 = 1552
$T135319 = 1584
$T135320 = 1632
$T135321 = 1680
$T135322 = 1704
$T135323 = 1712
$T135324 = 1736
$T135325 = 1768
$T135326 = 1792
$T135327 = 1800
$T135328 = 1824
$T135329 = 1832
$T135330 = 1856
$T135331 = 1904
$T135332 = 1952
$T135333 = 1984
$T135334 = 2008
$T135335 = 2016
$T135336 = 2040
$T135337 = 2048
$T135338 = 2072
$T135339 = 2080
$T135342 = 2128
$T135343 = 2152
$T135344 = 2160
$T135345 = 2184
$T135346 = 2192
$T135347 = 2216
$T135348 = 2224
$T135349 = 2248
$T135350 = 2256
$T135419 = 2280
$T135443 = 2288
tv130 = 2296
tv136 = 2304
tv905 = 2312
tv351 = 2320
tv911 = 2328
tv378 = 2336
tv914 = 2344
tv324 = 2352
tv916 = 2360
tv317 = 2368
tv918 = 2376
tv452 = 2384
tv924 = 2392
tv459 = 2400
tv927 = 2408
tv446 = 2416
tv930 = 2424
tv546 = 2432
tv933 = 2440
tv582 = 2448
tv936 = 2456
tv443 = 2464
tv938 = 2472
tv314 = 2480
tv940 = 2488
tv70 = 2496
tv943 = 2504
tv654 = 2512
tv946 = 2520
tv696 = 2528
tv949 = 2536
tv748 = 2544
tv954 = 2552
tv739 = 2560
tv958 = 2568
tv523 = 2576
tv961 = 2584
tv788 = 2592
tv964 = 2600
tv795 = 2608
tv967 = 2616
__$ArrayPad$ = 2624
in_data$ = 2672
out_data$ = 2680
params$ = 2688
output$ = 2696
event_extra$ = 2704
?dtor$7@?0??DoClick@@YAJPEAUPF_InData@@PEAUPF_OutData@@QEAPEAUPF_ParamDef@@PEAUPF_LayerDef@@PEAUPF_EventExtra@@@Z@4HA PROC ; `DoClick'::`1'::dtor$7
	push	rbp
	sub	rsp, 32					; 00000020H
	mov	rbp, rdx
	lea	rcx, QWORD PTR i$127342[rbp]
	call	??1iterator@?$_Tree@V?$_Tset_traits@V?$basic_string@DU?$char_traits@D@std@@V?$allocator@D@2@@std@@U?$less@V?$basic_string@DU?$char_traits@D@std@@V?$allocator@D@2@@std@@@2@V?$allocator@V?$basic_string@DU?$char_traits@D@std@@V?$allocator@D@2@@std@@@2@$0A@@std@@@std@@QEAA@XZ
	add	rsp, 32					; 00000020H
	pop	rbp
	ret	0
?dtor$7@?0??DoClick@@YAJPEAUPF_InData@@PEAUPF_OutData@@QEAPEAUPF_ParamDef@@PEAUPF_LayerDef@@PEAUPF_EventExtra@@@Z@4HA ENDP ; `DoClick'::`1'::dtor$7
; Function compile flags: /Odtp
suites$126628 = 48
arb_data$126629 = 464
seq_data$126632 = 472
context$126642 = 480
renderErr$127187 = 488
mouse_downFixPt$127176 = 496
optionsH$127184 = 504
streamRefH$127183 = 512
clickedItems$127173 = 520
selectionVal$127185 = 576
effectRefH$127182 = 616
validClick$126647 = 624
context$126645 = 632
frameReceiptH$127186 = 640
mouse_downPt$127174 = 648
worldH$127189 = 656
effectWorld$127191 = 672
row$127197 = 800
format$127193 = 808
selectionInfo$127211 = 824
newSelection$127210 = 872
selectionInfoList$127213 = 928
selectedString$127896 = 976
i$127342 = 1024
item$127349 = 1048
currenSelection$127632 = 1096
i$127760 = 1136
i$127829 = 1160
item$127836 = 1184
i$127863 = 1232
item$127870 = 1256
j$127879 = 1264
currItem$127886 = 1288
i$127906 = 1296
$T135304 = 1320
$T135305 = 1328
$T135309 = 1336
$T135310 = 1392
$T135311 = 1393
$T135312 = 1394
$T135313 = 1400
$T135314 = 1424
$T135315 = 1432
$T135316 = 1456
$T135317 = 1504
$T135318 = 1552
$T135319 = 1584
$T135320 = 1632
$T135321 = 1680
$T135322 = 1704
$T135323 = 1712
$T135324 = 1736
$T135325 = 1768
$T135326 = 1792
$T135327 = 1800
$T135328 = 1824
$T135329 = 1832
$T135330 = 1856
$T135331 = 1904
$T135332 = 1952
$T135333 = 1984
$T135334 = 2008
$T135335 = 2016
$T135336 = 2040
$T135337 = 2048
$T135338 = 2072
$T135339 = 2080
$T135342 = 2128
$T135343 = 2152
$T135344 = 2160
$T135345 = 2184
$T135346 = 2192
$T135347 = 2216
$T135348 = 2224
$T135349 = 2248
$T135350 = 2256
$T135419 = 2280
$T135443 = 2288
tv130 = 2296
tv136 = 2304
tv905 = 2312
tv351 = 2320
tv911 = 2328
tv378 = 2336
tv914 = 2344
tv324 = 2352
tv916 = 2360
tv317 = 2368
tv918 = 2376
tv452 = 2384
tv924 = 2392
tv459 = 2400
tv927 = 2408
tv446 = 2416
tv930 = 2424
tv546 = 2432
tv933 = 2440
tv582 = 2448
tv936 = 2456
tv443 = 2464
tv938 = 2472
tv314 = 2480
tv940 = 2488
tv70 = 2496
tv943 = 2504
tv654 = 2512
tv946 = 2520
tv696 = 2528
tv949 = 2536
tv748 = 2544
tv954 = 2552
tv739 = 2560
tv958 = 2568
tv523 = 2576
tv961 = 2584
tv788 = 2592
tv964 = 2600
tv795 = 2608
tv967 = 2616
__$ArrayPad$ = 2624
in_data$ = 2672
out_data$ = 2680
params$ = 2688
output$ = 2696
event_extra$ = 2704
?dtor$8@?0??DoClick@@YAJPEAUPF_InData@@PEAUPF_OutData@@QEAPEAUPF_ParamDef@@PEAUPF_LayerDef@@PEAUPF_EventExtra@@@Z@4HA PROC ; `DoClick'::`1'::dtor$8
	push	rbp
	sub	rsp, 32					; 00000020H
	mov	rbp, rdx
	lea	rcx, QWORD PTR $T135313[rbp]
	call	??1iterator@?$_Tree@V?$_Tset_traits@V?$basic_string@DU?$char_traits@D@std@@V?$allocator@D@2@@std@@U?$less@V?$basic_string@DU?$char_traits@D@std@@V?$allocator@D@2@@std@@@2@V?$allocator@V?$basic_string@DU?$char_traits@D@std@@V?$allocator@D@2@@std@@@2@$0A@@std@@@std@@QEAA@XZ
	add	rsp, 32					; 00000020H
	pop	rbp
	ret	0
?dtor$8@?0??DoClick@@YAJPEAUPF_InData@@PEAUPF_OutData@@QEAPEAUPF_ParamDef@@PEAUPF_LayerDef@@PEAUPF_EventExtra@@@Z@4HA ENDP ; `DoClick'::`1'::dtor$8
; Function compile flags: /Odtp
suites$126628 = 48
arb_data$126629 = 464
seq_data$126632 = 472
context$126642 = 480
renderErr$127187 = 488
mouse_downFixPt$127176 = 496
optionsH$127184 = 504
streamRefH$127183 = 512
clickedItems$127173 = 520
selectionVal$127185 = 576
effectRefH$127182 = 616
validClick$126647 = 624
context$126645 = 632
frameReceiptH$127186 = 640
mouse_downPt$127174 = 648
worldH$127189 = 656
effectWorld$127191 = 672
row$127197 = 800
format$127193 = 808
selectionInfo$127211 = 824
newSelection$127210 = 872
selectionInfoList$127213 = 928
selectedString$127896 = 976
i$127342 = 1024
item$127349 = 1048
currenSelection$127632 = 1096
i$127760 = 1136
i$127829 = 1160
item$127836 = 1184
i$127863 = 1232
item$127870 = 1256
j$127879 = 1264
currItem$127886 = 1288
i$127906 = 1296
$T135304 = 1320
$T135305 = 1328
$T135309 = 1336
$T135310 = 1392
$T135311 = 1393
$T135312 = 1394
$T135313 = 1400
$T135314 = 1424
$T135315 = 1432
$T135316 = 1456
$T135317 = 1504
$T135318 = 1552
$T135319 = 1584
$T135320 = 1632
$T135321 = 1680
$T135322 = 1704
$T135323 = 1712
$T135324 = 1736
$T135325 = 1768
$T135326 = 1792
$T135327 = 1800
$T135328 = 1824
$T135329 = 1832
$T135330 = 1856
$T135331 = 1904
$T135332 = 1952
$T135333 = 1984
$T135334 = 2008
$T135335 = 2016
$T135336 = 2040
$T135337 = 2048
$T135338 = 2072
$T135339 = 2080
$T135342 = 2128
$T135343 = 2152
$T135344 = 2160
$T135345 = 2184
$T135346 = 2192
$T135347 = 2216
$T135348 = 2224
$T135349 = 2248
$T135350 = 2256
$T135419 = 2280
$T135443 = 2288
tv130 = 2296
tv136 = 2304
tv905 = 2312
tv351 = 2320
tv911 = 2328
tv378 = 2336
tv914 = 2344
tv324 = 2352
tv916 = 2360
tv317 = 2368
tv918 = 2376
tv452 = 2384
tv924 = 2392
tv459 = 2400
tv927 = 2408
tv446 = 2416
tv930 = 2424
tv546 = 2432
tv933 = 2440
tv582 = 2448
tv936 = 2456
tv443 = 2464
tv938 = 2472
tv314 = 2480
tv940 = 2488
tv70 = 2496
tv943 = 2504
tv654 = 2512
tv946 = 2520
tv696 = 2528
tv949 = 2536
tv748 = 2544
tv954 = 2552
tv739 = 2560
tv958 = 2568
tv523 = 2576
tv961 = 2584
tv788 = 2592
tv964 = 2600
tv795 = 2608
tv967 = 2616
__$ArrayPad$ = 2624
in_data$ = 2672
out_data$ = 2680
params$ = 2688
output$ = 2696
event_extra$ = 2704
?dtor$9@?0??DoClick@@YAJPEAUPF_InData@@PEAUPF_OutData@@QEAPEAUPF_ParamDef@@PEAUPF_LayerDef@@PEAUPF_EventExtra@@@Z@4HA PROC ; `DoClick'::`1'::dtor$9
	push	rbp
	sub	rsp, 32					; 00000020H
	mov	rbp, rdx
	lea	rcx, QWORD PTR item$127349[rbp]
	call	QWORD PTR __imp_??1?$basic_string@DU?$char_traits@D@std@@V?$allocator@D@2@@std@@QEAA@XZ
	add	rsp, 32					; 00000020H
	pop	rbp
	ret	0
?dtor$9@?0??DoClick@@YAJPEAUPF_InData@@PEAUPF_OutData@@QEAPEAUPF_ParamDef@@PEAUPF_LayerDef@@PEAUPF_EventExtra@@@Z@4HA ENDP ; `DoClick'::`1'::dtor$9
; Function compile flags: /Odtp
suites$126628 = 48
arb_data$126629 = 464
seq_data$126632 = 472
context$126642 = 480
renderErr$127187 = 488
mouse_downFixPt$127176 = 496
optionsH$127184 = 504
streamRefH$127183 = 512
clickedItems$127173 = 520
selectionVal$127185 = 576
effectRefH$127182 = 616
validClick$126647 = 624
context$126645 = 632
frameReceiptH$127186 = 640
mouse_downPt$127174 = 648
worldH$127189 = 656
effectWorld$127191 = 672
row$127197 = 800
format$127193 = 808
selectionInfo$127211 = 824
newSelection$127210 = 872
selectionInfoList$127213 = 928
selectedString$127896 = 976
i$127342 = 1024
item$127349 = 1048
currenSelection$127632 = 1096
i$127760 = 1136
i$127829 = 1160
item$127836 = 1184
i$127863 = 1232
item$127870 = 1256
j$127879 = 1264
currItem$127886 = 1288
i$127906 = 1296
$T135304 = 1320
$T135305 = 1328
$T135309 = 1336
$T135310 = 1392
$T135311 = 1393
$T135312 = 1394
$T135313 = 1400
$T135314 = 1424
$T135315 = 1432
$T135316 = 1456
$T135317 = 1504
$T135318 = 1552
$T135319 = 1584
$T135320 = 1632
$T135321 = 1680
$T135322 = 1704
$T135323 = 1712
$T135324 = 1736
$T135325 = 1768
$T135326 = 1792
$T135327 = 1800
$T135328 = 1824
$T135329 = 1832
$T135330 = 1856
$T135331 = 1904
$T135332 = 1952
$T135333 = 1984
$T135334 = 2008
$T135335 = 2016
$T135336 = 2040
$T135337 = 2048
$T135338 = 2072
$T135339 = 2080
$T135342 = 2128
$T135343 = 2152
$T135344 = 2160
$T135345 = 2184
$T135346 = 2192
$T135347 = 2216
$T135348 = 2224
$T135349 = 2248
$T135350 = 2256
$T135419 = 2280
$T135443 = 2288
tv130 = 2296
tv136 = 2304
tv905 = 2312
tv351 = 2320
tv911 = 2328
tv378 = 2336
tv914 = 2344
tv324 = 2352
tv916 = 2360
tv317 = 2368
tv918 = 2376
tv452 = 2384
tv924 = 2392
tv459 = 2400
tv927 = 2408
tv446 = 2416
tv930 = 2424
tv546 = 2432
tv933 = 2440
tv582 = 2448
tv936 = 2456
tv443 = 2464
tv938 = 2472
tv314 = 2480
tv940 = 2488
tv70 = 2496
tv943 = 2504
tv654 = 2512
tv946 = 2520
tv696 = 2528
tv949 = 2536
tv748 = 2544
tv954 = 2552
tv739 = 2560
tv958 = 2568
tv523 = 2576
tv961 = 2584
tv788 = 2592
tv964 = 2600
tv795 = 2608
tv967 = 2616
__$ArrayPad$ = 2624
in_data$ = 2672
out_data$ = 2680
params$ = 2688
output$ = 2696
event_extra$ = 2704
?dtor$10@?0??DoClick@@YAJPEAUPF_InData@@PEAUPF_OutData@@QEAPEAUPF_ParamDef@@PEAUPF_LayerDef@@PEAUPF_EventExtra@@@Z@4HA PROC ; `DoClick'::`1'::dtor$10
	push	rbp
	sub	rsp, 32					; 00000020H
	mov	rbp, rdx
	lea	rcx, QWORD PTR $T135315[rbp]
	call	??1iterator@?$_Tree@V?$_Tset_traits@V?$basic_string@DU?$char_traits@D@std@@V?$allocator@D@2@@std@@U?$less@V?$basic_string@DU?$char_traits@D@std@@V?$allocator@D@2@@std@@@2@V?$allocator@V?$basic_string@DU?$char_traits@D@std@@V?$allocator@D@2@@std@@@2@$0A@@std@@@std@@QEAA@XZ
	add	rsp, 32					; 00000020H
	pop	rbp
	ret	0
?dtor$10@?0??DoClick@@YAJPEAUPF_InData@@PEAUPF_OutData@@QEAPEAUPF_ParamDef@@PEAUPF_LayerDef@@PEAUPF_EventExtra@@@Z@4HA ENDP ; `DoClick'::`1'::dtor$10
; Function compile flags: /Odtp
suites$126628 = 48
arb_data$126629 = 464
seq_data$126632 = 472
context$126642 = 480
renderErr$127187 = 488
mouse_downFixPt$127176 = 496
optionsH$127184 = 504
streamRefH$127183 = 512
clickedItems$127173 = 520
selectionVal$127185 = 576
effectRefH$127182 = 616
validClick$126647 = 624
context$126645 = 632
frameReceiptH$127186 = 640
mouse_downPt$127174 = 648
worldH$127189 = 656
effectWorld$127191 = 672
row$127197 = 800
format$127193 = 808
selectionInfo$127211 = 824
newSelection$127210 = 872
selectionInfoList$127213 = 928
selectedString$127896 = 976
i$127342 = 1024
item$127349 = 1048
currenSelection$127632 = 1096
i$127760 = 1136
i$127829 = 1160
item$127836 = 1184
i$127863 = 1232
item$127870 = 1256
j$127879 = 1264
currItem$127886 = 1288
i$127906 = 1296
$T135304 = 1320
$T135305 = 1328
$T135309 = 1336
$T135310 = 1392
$T135311 = 1393
$T135312 = 1394
$T135313 = 1400
$T135314 = 1424
$T135315 = 1432
$T135316 = 1456
$T135317 = 1504
$T135318 = 1552
$T135319 = 1584
$T135320 = 1632
$T135321 = 1680
$T135322 = 1704
$T135323 = 1712
$T135324 = 1736
$T135325 = 1768
$T135326 = 1792
$T135327 = 1800
$T135328 = 1824
$T135329 = 1832
$T135330 = 1856
$T135331 = 1904
$T135332 = 1952
$T135333 = 1984
$T135334 = 2008
$T135335 = 2016
$T135336 = 2040
$T135337 = 2048
$T135338 = 2072
$T135339 = 2080
$T135342 = 2128
$T135343 = 2152
$T135344 = 2160
$T135345 = 2184
$T135346 = 2192
$T135347 = 2216
$T135348 = 2224
$T135349 = 2248
$T135350 = 2256
$T135419 = 2280
$T135443 = 2288
tv130 = 2296
tv136 = 2304
tv905 = 2312
tv351 = 2320
tv911 = 2328
tv378 = 2336
tv914 = 2344
tv324 = 2352
tv916 = 2360
tv317 = 2368
tv918 = 2376
tv452 = 2384
tv924 = 2392
tv459 = 2400
tv927 = 2408
tv446 = 2416
tv930 = 2424
tv546 = 2432
tv933 = 2440
tv582 = 2448
tv936 = 2456
tv443 = 2464
tv938 = 2472
tv314 = 2480
tv940 = 2488
tv70 = 2496
tv943 = 2504
tv654 = 2512
tv946 = 2520
tv696 = 2528
tv949 = 2536
tv748 = 2544
tv954 = 2552
tv739 = 2560
tv958 = 2568
tv523 = 2576
tv961 = 2584
tv788 = 2592
tv964 = 2600
tv795 = 2608
tv967 = 2616
__$ArrayPad$ = 2624
in_data$ = 2672
out_data$ = 2680
params$ = 2688
output$ = 2696
event_extra$ = 2704
?dtor$11@?0??DoClick@@YAJPEAUPF_InData@@PEAUPF_OutData@@QEAPEAUPF_ParamDef@@PEAUPF_LayerDef@@PEAUPF_EventExtra@@@Z@4HA PROC ; `DoClick'::`1'::dtor$11
	push	rbp
	sub	rsp, 32					; 00000020H
	mov	rbp, rdx
	lea	rcx, QWORD PTR $T135316[rbp]
	call	QWORD PTR __imp_??1?$basic_string@DU?$char_traits@D@std@@V?$allocator@D@2@@std@@QEAA@XZ
	add	rsp, 32					; 00000020H
	pop	rbp
	ret	0
?dtor$11@?0??DoClick@@YAJPEAUPF_InData@@PEAUPF_OutData@@QEAPEAUPF_ParamDef@@PEAUPF_LayerDef@@PEAUPF_EventExtra@@@Z@4HA ENDP ; `DoClick'::`1'::dtor$11
; Function compile flags: /Odtp
suites$126628 = 48
arb_data$126629 = 464
seq_data$126632 = 472
context$126642 = 480
renderErr$127187 = 488
mouse_downFixPt$127176 = 496
optionsH$127184 = 504
streamRefH$127183 = 512
clickedItems$127173 = 520
selectionVal$127185 = 576
effectRefH$127182 = 616
validClick$126647 = 624
context$126645 = 632
frameReceiptH$127186 = 640
mouse_downPt$127174 = 648
worldH$127189 = 656
effectWorld$127191 = 672
row$127197 = 800
format$127193 = 808
selectionInfo$127211 = 824
newSelection$127210 = 872
selectionInfoList$127213 = 928
selectedString$127896 = 976
i$127342 = 1024
item$127349 = 1048
currenSelection$127632 = 1096
i$127760 = 1136
i$127829 = 1160
item$127836 = 1184
i$127863 = 1232
item$127870 = 1256
j$127879 = 1264
currItem$127886 = 1288
i$127906 = 1296
$T135304 = 1320
$T135305 = 1328
$T135309 = 1336
$T135310 = 1392
$T135311 = 1393
$T135312 = 1394
$T135313 = 1400
$T135314 = 1424
$T135315 = 1432
$T135316 = 1456
$T135317 = 1504
$T135318 = 1552
$T135319 = 1584
$T135320 = 1632
$T135321 = 1680
$T135322 = 1704
$T135323 = 1712
$T135324 = 1736
$T135325 = 1768
$T135326 = 1792
$T135327 = 1800
$T135328 = 1824
$T135329 = 1832
$T135330 = 1856
$T135331 = 1904
$T135332 = 1952
$T135333 = 1984
$T135334 = 2008
$T135335 = 2016
$T135336 = 2040
$T135337 = 2048
$T135338 = 2072
$T135339 = 2080
$T135342 = 2128
$T135343 = 2152
$T135344 = 2160
$T135345 = 2184
$T135346 = 2192
$T135347 = 2216
$T135348 = 2224
$T135349 = 2248
$T135350 = 2256
$T135419 = 2280
$T135443 = 2288
tv130 = 2296
tv136 = 2304
tv905 = 2312
tv351 = 2320
tv911 = 2328
tv378 = 2336
tv914 = 2344
tv324 = 2352
tv916 = 2360
tv317 = 2368
tv918 = 2376
tv452 = 2384
tv924 = 2392
tv459 = 2400
tv927 = 2408
tv446 = 2416
tv930 = 2424
tv546 = 2432
tv933 = 2440
tv582 = 2448
tv936 = 2456
tv443 = 2464
tv938 = 2472
tv314 = 2480
tv940 = 2488
tv70 = 2496
tv943 = 2504
tv654 = 2512
tv946 = 2520
tv696 = 2528
tv949 = 2536
tv748 = 2544
tv954 = 2552
tv739 = 2560
tv958 = 2568
tv523 = 2576
tv961 = 2584
tv788 = 2592
tv964 = 2600
tv795 = 2608
tv967 = 2616
__$ArrayPad$ = 2624
in_data$ = 2672
out_data$ = 2680
params$ = 2688
output$ = 2696
event_extra$ = 2704
?dtor$12@?0??DoClick@@YAJPEAUPF_InData@@PEAUPF_OutData@@QEAPEAUPF_ParamDef@@PEAUPF_LayerDef@@PEAUPF_EventExtra@@@Z@4HA PROC ; `DoClick'::`1'::dtor$12
	push	rbp
	sub	rsp, 32					; 00000020H
	mov	rbp, rdx
	lea	rcx, QWORD PTR $T135317[rbp]
	call	QWORD PTR __imp_??1?$basic_string@DU?$char_traits@D@std@@V?$allocator@D@2@@std@@QEAA@XZ
	add	rsp, 32					; 00000020H
	pop	rbp
	ret	0
?dtor$12@?0??DoClick@@YAJPEAUPF_InData@@PEAUPF_OutData@@QEAPEAUPF_ParamDef@@PEAUPF_LayerDef@@PEAUPF_EventExtra@@@Z@4HA ENDP ; `DoClick'::`1'::dtor$12
; Function compile flags: /Odtp
suites$126628 = 48
arb_data$126629 = 464
seq_data$126632 = 472
context$126642 = 480
renderErr$127187 = 488
mouse_downFixPt$127176 = 496
optionsH$127184 = 504
streamRefH$127183 = 512
clickedItems$127173 = 520
selectionVal$127185 = 576
effectRefH$127182 = 616
validClick$126647 = 624
context$126645 = 632
frameReceiptH$127186 = 640
mouse_downPt$127174 = 648
worldH$127189 = 656
effectWorld$127191 = 672
row$127197 = 800
format$127193 = 808
selectionInfo$127211 = 824
newSelection$127210 = 872
selectionInfoList$127213 = 928
selectedString$127896 = 976
i$127342 = 1024
item$127349 = 1048
currenSelection$127632 = 1096
i$127760 = 1136
i$127829 = 1160
item$127836 = 1184
i$127863 = 1232
item$127870 = 1256
j$127879 = 1264
currItem$127886 = 1288
i$127906 = 1296
$T135304 = 1320
$T135305 = 1328
$T135309 = 1336
$T135310 = 1392
$T135311 = 1393
$T135312 = 1394
$T135313 = 1400
$T135314 = 1424
$T135315 = 1432
$T135316 = 1456
$T135317 = 1504
$T135318 = 1552
$T135319 = 1584
$T135320 = 1632
$T135321 = 1680
$T135322 = 1704
$T135323 = 1712
$T135324 = 1736
$T135325 = 1768
$T135326 = 1792
$T135327 = 1800
$T135328 = 1824
$T135329 = 1832
$T135330 = 1856
$T135331 = 1904
$T135332 = 1952
$T135333 = 1984
$T135334 = 2008
$T135335 = 2016
$T135336 = 2040
$T135337 = 2048
$T135338 = 2072
$T135339 = 2080
$T135342 = 2128
$T135343 = 2152
$T135344 = 2160
$T135345 = 2184
$T135346 = 2192
$T135347 = 2216
$T135348 = 2224
$T135349 = 2248
$T135350 = 2256
$T135419 = 2280
$T135443 = 2288
tv130 = 2296
tv136 = 2304
tv905 = 2312
tv351 = 2320
tv911 = 2328
tv378 = 2336
tv914 = 2344
tv324 = 2352
tv916 = 2360
tv317 = 2368
tv918 = 2376
tv452 = 2384
tv924 = 2392
tv459 = 2400
tv927 = 2408
tv446 = 2416
tv930 = 2424
tv546 = 2432
tv933 = 2440
tv582 = 2448
tv936 = 2456
tv443 = 2464
tv938 = 2472
tv314 = 2480
tv940 = 2488
tv70 = 2496
tv943 = 2504
tv654 = 2512
tv946 = 2520
tv696 = 2528
tv949 = 2536
tv748 = 2544
tv954 = 2552
tv739 = 2560
tv958 = 2568
tv523 = 2576
tv961 = 2584
tv788 = 2592
tv964 = 2600
tv795 = 2608
tv967 = 2616
__$ArrayPad$ = 2624
in_data$ = 2672
out_data$ = 2680
params$ = 2688
output$ = 2696
event_extra$ = 2704
?dtor$14@?0??DoClick@@YAJPEAUPF_InData@@PEAUPF_OutData@@QEAPEAUPF_ParamDef@@PEAUPF_LayerDef@@PEAUPF_EventExtra@@@Z@4HA PROC ; `DoClick'::`1'::dtor$14
	push	rbp
	sub	rsp, 32					; 00000020H
	mov	rbp, rdx
	lea	rcx, QWORD PTR currenSelection$127632[rbp]
	call	??1?$vector@V?$basic_string@DU?$char_traits@D@std@@V?$allocator@D@2@@std@@V?$allocator@V?$basic_string@DU?$char_traits@D@std@@V?$allocator@D@2@@std@@@2@@std@@QEAA@XZ ; std::vector<std::basic_string<char,std::char_traits<char>,std::allocator<char> >,std::allocator<std::basic_string<char,std::char_traits<char>,std::allocator<char> > > >::~vector<std::basic_string<char,std::char_traits<char>,std::allocator<char> >,std::allocator<std::basic_string<char,std::char_traits<char>,std::allocator<char> > > >
	add	rsp, 32					; 00000020H
	pop	rbp
	ret	0
?dtor$14@?0??DoClick@@YAJPEAUPF_InData@@PEAUPF_OutData@@QEAPEAUPF_ParamDef@@PEAUPF_LayerDef@@PEAUPF_EventExtra@@@Z@4HA ENDP ; `DoClick'::`1'::dtor$14
; Function compile flags: /Odtp
suites$126628 = 48
arb_data$126629 = 464
seq_data$126632 = 472
context$126642 = 480
renderErr$127187 = 488
mouse_downFixPt$127176 = 496
optionsH$127184 = 504
streamRefH$127183 = 512
clickedItems$127173 = 520
selectionVal$127185 = 576
effectRefH$127182 = 616
validClick$126647 = 624
context$126645 = 632
frameReceiptH$127186 = 640
mouse_downPt$127174 = 648
worldH$127189 = 656
effectWorld$127191 = 672
row$127197 = 800
format$127193 = 808
selectionInfo$127211 = 824
newSelection$127210 = 872
selectionInfoList$127213 = 928
selectedString$127896 = 976
i$127342 = 1024
item$127349 = 1048
currenSelection$127632 = 1096
i$127760 = 1136
i$127829 = 1160
item$127836 = 1184
i$127863 = 1232
item$127870 = 1256
j$127879 = 1264
currItem$127886 = 1288
i$127906 = 1296
$T135304 = 1320
$T135305 = 1328
$T135309 = 1336
$T135310 = 1392
$T135311 = 1393
$T135312 = 1394
$T135313 = 1400
$T135314 = 1424
$T135315 = 1432
$T135316 = 1456
$T135317 = 1504
$T135318 = 1552
$T135319 = 1584
$T135320 = 1632
$T135321 = 1680
$T135322 = 1704
$T135323 = 1712
$T135324 = 1736
$T135325 = 1768
$T135326 = 1792
$T135327 = 1800
$T135328 = 1824
$T135329 = 1832
$T135330 = 1856
$T135331 = 1904
$T135332 = 1952
$T135333 = 1984
$T135334 = 2008
$T135335 = 2016
$T135336 = 2040
$T135337 = 2048
$T135338 = 2072
$T135339 = 2080
$T135342 = 2128
$T135343 = 2152
$T135344 = 2160
$T135345 = 2184
$T135346 = 2192
$T135347 = 2216
$T135348 = 2224
$T135349 = 2248
$T135350 = 2256
$T135419 = 2280
$T135443 = 2288
tv130 = 2296
tv136 = 2304
tv905 = 2312
tv351 = 2320
tv911 = 2328
tv378 = 2336
tv914 = 2344
tv324 = 2352
tv916 = 2360
tv317 = 2368
tv918 = 2376
tv452 = 2384
tv924 = 2392
tv459 = 2400
tv927 = 2408
tv446 = 2416
tv930 = 2424
tv546 = 2432
tv933 = 2440
tv582 = 2448
tv936 = 2456
tv443 = 2464
tv938 = 2472
tv314 = 2480
tv940 = 2488
tv70 = 2496
tv943 = 2504
tv654 = 2512
tv946 = 2520
tv696 = 2528
tv949 = 2536
tv748 = 2544
tv954 = 2552
tv739 = 2560
tv958 = 2568
tv523 = 2576
tv961 = 2584
tv788 = 2592
tv964 = 2600
tv795 = 2608
tv967 = 2616
__$ArrayPad$ = 2624
in_data$ = 2672
out_data$ = 2680
params$ = 2688
output$ = 2696
event_extra$ = 2704
?dtor$15@?0??DoClick@@YAJPEAUPF_InData@@PEAUPF_OutData@@QEAPEAUPF_ParamDef@@PEAUPF_LayerDef@@PEAUPF_EventExtra@@@Z@4HA PROC ; `DoClick'::`1'::dtor$15
	push	rbp
	sub	rsp, 32					; 00000020H
	mov	rbp, rdx
	lea	rcx, QWORD PTR $T135319[rbp]
	call	QWORD PTR __imp_??1?$basic_string@DU?$char_traits@D@std@@V?$allocator@D@2@@std@@QEAA@XZ
	add	rsp, 32					; 00000020H
	pop	rbp
	ret	0
?dtor$15@?0??DoClick@@YAJPEAUPF_InData@@PEAUPF_OutData@@QEAPEAUPF_ParamDef@@PEAUPF_LayerDef@@PEAUPF_EventExtra@@@Z@4HA ENDP ; `DoClick'::`1'::dtor$15
; Function compile flags: /Odtp
suites$126628 = 48
arb_data$126629 = 464
seq_data$126632 = 472
context$126642 = 480
renderErr$127187 = 488
mouse_downFixPt$127176 = 496
optionsH$127184 = 504
streamRefH$127183 = 512
clickedItems$127173 = 520
selectionVal$127185 = 576
effectRefH$127182 = 616
validClick$126647 = 624
context$126645 = 632
frameReceiptH$127186 = 640
mouse_downPt$127174 = 648
worldH$127189 = 656
effectWorld$127191 = 672
row$127197 = 800
format$127193 = 808
selectionInfo$127211 = 824
newSelection$127210 = 872
selectionInfoList$127213 = 928
selectedString$127896 = 976
i$127342 = 1024
item$127349 = 1048
currenSelection$127632 = 1096
i$127760 = 1136
i$127829 = 1160
item$127836 = 1184
i$127863 = 1232
item$127870 = 1256
j$127879 = 1264
currItem$127886 = 1288
i$127906 = 1296
$T135304 = 1320
$T135305 = 1328
$T135309 = 1336
$T135310 = 1392
$T135311 = 1393
$T135312 = 1394
$T135313 = 1400
$T135314 = 1424
$T135315 = 1432
$T135316 = 1456
$T135317 = 1504
$T135318 = 1552
$T135319 = 1584
$T135320 = 1632
$T135321 = 1680
$T135322 = 1704
$T135323 = 1712
$T135324 = 1736
$T135325 = 1768
$T135326 = 1792
$T135327 = 1800
$T135328 = 1824
$T135329 = 1832
$T135330 = 1856
$T135331 = 1904
$T135332 = 1952
$T135333 = 1984
$T135334 = 2008
$T135335 = 2016
$T135336 = 2040
$T135337 = 2048
$T135338 = 2072
$T135339 = 2080
$T135342 = 2128
$T135343 = 2152
$T135344 = 2160
$T135345 = 2184
$T135346 = 2192
$T135347 = 2216
$T135348 = 2224
$T135349 = 2248
$T135350 = 2256
$T135419 = 2280
$T135443 = 2288
tv130 = 2296
tv136 = 2304
tv905 = 2312
tv351 = 2320
tv911 = 2328
tv378 = 2336
tv914 = 2344
tv324 = 2352
tv916 = 2360
tv317 = 2368
tv918 = 2376
tv452 = 2384
tv924 = 2392
tv459 = 2400
tv927 = 2408
tv446 = 2416
tv930 = 2424
tv546 = 2432
tv933 = 2440
tv582 = 2448
tv936 = 2456
tv443 = 2464
tv938 = 2472
tv314 = 2480
tv940 = 2488
tv70 = 2496
tv943 = 2504
tv654 = 2512
tv946 = 2520
tv696 = 2528
tv949 = 2536
tv748 = 2544
tv954 = 2552
tv739 = 2560
tv958 = 2568
tv523 = 2576
tv961 = 2584
tv788 = 2592
tv964 = 2600
tv795 = 2608
tv967 = 2616
__$ArrayPad$ = 2624
in_data$ = 2672
out_data$ = 2680
params$ = 2688
output$ = 2696
event_extra$ = 2704
?dtor$16@?0??DoClick@@YAJPEAUPF_InData@@PEAUPF_OutData@@QEAPEAUPF_ParamDef@@PEAUPF_LayerDef@@PEAUPF_EventExtra@@@Z@4HA PROC ; `DoClick'::`1'::dtor$16
	push	rbp
	sub	rsp, 32					; 00000020H
	mov	rbp, rdx
	lea	rcx, QWORD PTR $T135320[rbp]
	call	QWORD PTR __imp_??1?$basic_string@DU?$char_traits@D@std@@V?$allocator@D@2@@std@@QEAA@XZ
	add	rsp, 32					; 00000020H
	pop	rbp
	ret	0
?dtor$16@?0??DoClick@@YAJPEAUPF_InData@@PEAUPF_OutData@@QEAPEAUPF_ParamDef@@PEAUPF_LayerDef@@PEAUPF_EventExtra@@@Z@4HA ENDP ; `DoClick'::`1'::dtor$16
; Function compile flags: /Odtp
suites$126628 = 48
arb_data$126629 = 464
seq_data$126632 = 472
context$126642 = 480
renderErr$127187 = 488
mouse_downFixPt$127176 = 496
optionsH$127184 = 504
streamRefH$127183 = 512
clickedItems$127173 = 520
selectionVal$127185 = 576
effectRefH$127182 = 616
validClick$126647 = 624
context$126645 = 632
frameReceiptH$127186 = 640
mouse_downPt$127174 = 648
worldH$127189 = 656
effectWorld$127191 = 672
row$127197 = 800
format$127193 = 808
selectionInfo$127211 = 824
newSelection$127210 = 872
selectionInfoList$127213 = 928
selectedString$127896 = 976
i$127342 = 1024
item$127349 = 1048
currenSelection$127632 = 1096
i$127760 = 1136
i$127829 = 1160
item$127836 = 1184
i$127863 = 1232
item$127870 = 1256
j$127879 = 1264
currItem$127886 = 1288
i$127906 = 1296
$T135304 = 1320
$T135305 = 1328
$T135309 = 1336
$T135310 = 1392
$T135311 = 1393
$T135312 = 1394
$T135313 = 1400
$T135314 = 1424
$T135315 = 1432
$T135316 = 1456
$T135317 = 1504
$T135318 = 1552
$T135319 = 1584
$T135320 = 1632
$T135321 = 1680
$T135322 = 1704
$T135323 = 1712
$T135324 = 1736
$T135325 = 1768
$T135326 = 1792
$T135327 = 1800
$T135328 = 1824
$T135329 = 1832
$T135330 = 1856
$T135331 = 1904
$T135332 = 1952
$T135333 = 1984
$T135334 = 2008
$T135335 = 2016
$T135336 = 2040
$T135337 = 2048
$T135338 = 2072
$T135339 = 2080
$T135342 = 2128
$T135343 = 2152
$T135344 = 2160
$T135345 = 2184
$T135346 = 2192
$T135347 = 2216
$T135348 = 2224
$T135349 = 2248
$T135350 = 2256
$T135419 = 2280
$T135443 = 2288
tv130 = 2296
tv136 = 2304
tv905 = 2312
tv351 = 2320
tv911 = 2328
tv378 = 2336
tv914 = 2344
tv324 = 2352
tv916 = 2360
tv317 = 2368
tv918 = 2376
tv452 = 2384
tv924 = 2392
tv459 = 2400
tv927 = 2408
tv446 = 2416
tv930 = 2424
tv546 = 2432
tv933 = 2440
tv582 = 2448
tv936 = 2456
tv443 = 2464
tv938 = 2472
tv314 = 2480
tv940 = 2488
tv70 = 2496
tv943 = 2504
tv654 = 2512
tv946 = 2520
tv696 = 2528
tv949 = 2536
tv748 = 2544
tv954 = 2552
tv739 = 2560
tv958 = 2568
tv523 = 2576
tv961 = 2584
tv788 = 2592
tv964 = 2600
tv795 = 2608
tv967 = 2616
__$ArrayPad$ = 2624
in_data$ = 2672
out_data$ = 2680
params$ = 2688
output$ = 2696
event_extra$ = 2704
?dtor$17@?0??DoClick@@YAJPEAUPF_InData@@PEAUPF_OutData@@QEAPEAUPF_ParamDef@@PEAUPF_LayerDef@@PEAUPF_EventExtra@@@Z@4HA PROC ; `DoClick'::`1'::dtor$17
	push	rbp
	sub	rsp, 32					; 00000020H
	mov	rbp, rdx
	lea	rcx, QWORD PTR $T135321[rbp]
	call	??1?$_Vector_iterator@V?$basic_string@DU?$char_traits@D@std@@V?$allocator@D@2@@std@@V?$allocator@V?$basic_string@DU?$char_traits@D@std@@V?$allocator@D@2@@std@@@2@@std@@QEAA@XZ
	add	rsp, 32					; 00000020H
	pop	rbp
	ret	0
?dtor$17@?0??DoClick@@YAJPEAUPF_InData@@PEAUPF_OutData@@QEAPEAUPF_ParamDef@@PEAUPF_LayerDef@@PEAUPF_EventExtra@@@Z@4HA ENDP ; `DoClick'::`1'::dtor$17
; Function compile flags: /Odtp
suites$126628 = 48
arb_data$126629 = 464
seq_data$126632 = 472
context$126642 = 480
renderErr$127187 = 488
mouse_downFixPt$127176 = 496
optionsH$127184 = 504
streamRefH$127183 = 512
clickedItems$127173 = 520
selectionVal$127185 = 576
effectRefH$127182 = 616
validClick$126647 = 624
context$126645 = 632
frameReceiptH$127186 = 640
mouse_downPt$127174 = 648
worldH$127189 = 656
effectWorld$127191 = 672
row$127197 = 800
format$127193 = 808
selectionInfo$127211 = 824
newSelection$127210 = 872
selectionInfoList$127213 = 928
selectedString$127896 = 976
i$127342 = 1024
item$127349 = 1048
currenSelection$127632 = 1096
i$127760 = 1136
i$127829 = 1160
item$127836 = 1184
i$127863 = 1232
item$127870 = 1256
j$127879 = 1264
currItem$127886 = 1288
i$127906 = 1296
$T135304 = 1320
$T135305 = 1328
$T135309 = 1336
$T135310 = 1392
$T135311 = 1393
$T135312 = 1394
$T135313 = 1400
$T135314 = 1424
$T135315 = 1432
$T135316 = 1456
$T135317 = 1504
$T135318 = 1552
$T135319 = 1584
$T135320 = 1632
$T135321 = 1680
$T135322 = 1704
$T135323 = 1712
$T135324 = 1736
$T135325 = 1768
$T135326 = 1792
$T135327 = 1800
$T135328 = 1824
$T135329 = 1832
$T135330 = 1856
$T135331 = 1904
$T135332 = 1952
$T135333 = 1984
$T135334 = 2008
$T135335 = 2016
$T135336 = 2040
$T135337 = 2048
$T135338 = 2072
$T135339 = 2080
$T135342 = 2128
$T135343 = 2152
$T135344 = 2160
$T135345 = 2184
$T135346 = 2192
$T135347 = 2216
$T135348 = 2224
$T135349 = 2248
$T135350 = 2256
$T135419 = 2280
$T135443 = 2288
tv130 = 2296
tv136 = 2304
tv905 = 2312
tv351 = 2320
tv911 = 2328
tv378 = 2336
tv914 = 2344
tv324 = 2352
tv916 = 2360
tv317 = 2368
tv918 = 2376
tv452 = 2384
tv924 = 2392
tv459 = 2400
tv927 = 2408
tv446 = 2416
tv930 = 2424
tv546 = 2432
tv933 = 2440
tv582 = 2448
tv936 = 2456
tv443 = 2464
tv938 = 2472
tv314 = 2480
tv940 = 2488
tv70 = 2496
tv943 = 2504
tv654 = 2512
tv946 = 2520
tv696 = 2528
tv949 = 2536
tv748 = 2544
tv954 = 2552
tv739 = 2560
tv958 = 2568
tv523 = 2576
tv961 = 2584
tv788 = 2592
tv964 = 2600
tv795 = 2608
tv967 = 2616
__$ArrayPad$ = 2624
in_data$ = 2672
out_data$ = 2680
params$ = 2688
output$ = 2696
event_extra$ = 2704
?dtor$18@?0??DoClick@@YAJPEAUPF_InData@@PEAUPF_OutData@@QEAPEAUPF_ParamDef@@PEAUPF_LayerDef@@PEAUPF_EventExtra@@@Z@4HA PROC ; `DoClick'::`1'::dtor$18
	push	rbp
	sub	rsp, 32					; 00000020H
	mov	rbp, rdx
	lea	rcx, QWORD PTR i$127760[rbp]
	call	??1?$_Vector_const_iterator@V?$basic_string@DU?$char_traits@D@std@@V?$allocator@D@2@@std@@V?$allocator@V?$basic_string@DU?$char_traits@D@std@@V?$allocator@D@2@@std@@@2@@std@@QEAA@XZ
	add	rsp, 32					; 00000020H
	pop	rbp
	ret	0
?dtor$18@?0??DoClick@@YAJPEAUPF_InData@@PEAUPF_OutData@@QEAPEAUPF_ParamDef@@PEAUPF_LayerDef@@PEAUPF_EventExtra@@@Z@4HA ENDP ; `DoClick'::`1'::dtor$18
; Function compile flags: /Odtp
suites$126628 = 48
arb_data$126629 = 464
seq_data$126632 = 472
context$126642 = 480
renderErr$127187 = 488
mouse_downFixPt$127176 = 496
optionsH$127184 = 504
streamRefH$127183 = 512
clickedItems$127173 = 520
selectionVal$127185 = 576
effectRefH$127182 = 616
validClick$126647 = 624
context$126645 = 632
frameReceiptH$127186 = 640
mouse_downPt$127174 = 648
worldH$127189 = 656
effectWorld$127191 = 672
row$127197 = 800
format$127193 = 808
selectionInfo$127211 = 824
newSelection$127210 = 872
selectionInfoList$127213 = 928
selectedString$127896 = 976
i$127342 = 1024
item$127349 = 1048
currenSelection$127632 = 1096
i$127760 = 1136
i$127829 = 1160
item$127836 = 1184
i$127863 = 1232
item$127870 = 1256
j$127879 = 1264
currItem$127886 = 1288
i$127906 = 1296
$T135304 = 1320
$T135305 = 1328
$T135309 = 1336
$T135310 = 1392
$T135311 = 1393
$T135312 = 1394
$T135313 = 1400
$T135314 = 1424
$T135315 = 1432
$T135316 = 1456
$T135317 = 1504
$T135318 = 1552
$T135319 = 1584
$T135320 = 1632
$T135321 = 1680
$T135322 = 1704
$T135323 = 1712
$T135324 = 1736
$T135325 = 1768
$T135326 = 1792
$T135327 = 1800
$T135328 = 1824
$T135329 = 1832
$T135330 = 1856
$T135331 = 1904
$T135332 = 1952
$T135333 = 1984
$T135334 = 2008
$T135335 = 2016
$T135336 = 2040
$T135337 = 2048
$T135338 = 2072
$T135339 = 2080
$T135342 = 2128
$T135343 = 2152
$T135344 = 2160
$T135345 = 2184
$T135346 = 2192
$T135347 = 2216
$T135348 = 2224
$T135349 = 2248
$T135350 = 2256
$T135419 = 2280
$T135443 = 2288
tv130 = 2296
tv136 = 2304
tv905 = 2312
tv351 = 2320
tv911 = 2328
tv378 = 2336
tv914 = 2344
tv324 = 2352
tv916 = 2360
tv317 = 2368
tv918 = 2376
tv452 = 2384
tv924 = 2392
tv459 = 2400
tv927 = 2408
tv446 = 2416
tv930 = 2424
tv546 = 2432
tv933 = 2440
tv582 = 2448
tv936 = 2456
tv443 = 2464
tv938 = 2472
tv314 = 2480
tv940 = 2488
tv70 = 2496
tv943 = 2504
tv654 = 2512
tv946 = 2520
tv696 = 2528
tv949 = 2536
tv748 = 2544
tv954 = 2552
tv739 = 2560
tv958 = 2568
tv523 = 2576
tv961 = 2584
tv788 = 2592
tv964 = 2600
tv795 = 2608
tv967 = 2616
__$ArrayPad$ = 2624
in_data$ = 2672
out_data$ = 2680
params$ = 2688
output$ = 2696
event_extra$ = 2704
?dtor$19@?0??DoClick@@YAJPEAUPF_InData@@PEAUPF_OutData@@QEAPEAUPF_ParamDef@@PEAUPF_LayerDef@@PEAUPF_EventExtra@@@Z@4HA PROC ; `DoClick'::`1'::dtor$19
	push	rbp
	sub	rsp, 32					; 00000020H
	mov	rbp, rdx
	lea	rcx, QWORD PTR $T135323[rbp]
	call	??1?$_Vector_iterator@V?$basic_string@DU?$char_traits@D@std@@V?$allocator@D@2@@std@@V?$allocator@V?$basic_string@DU?$char_traits@D@std@@V?$allocator@D@2@@std@@@2@@std@@QEAA@XZ
	add	rsp, 32					; 00000020H
	pop	rbp
	ret	0
?dtor$19@?0??DoClick@@YAJPEAUPF_InData@@PEAUPF_OutData@@QEAPEAUPF_ParamDef@@PEAUPF_LayerDef@@PEAUPF_EventExtra@@@Z@4HA ENDP ; `DoClick'::`1'::dtor$19
; Function compile flags: /Odtp
suites$126628 = 48
arb_data$126629 = 464
seq_data$126632 = 472
context$126642 = 480
renderErr$127187 = 488
mouse_downFixPt$127176 = 496
optionsH$127184 = 504
streamRefH$127183 = 512
clickedItems$127173 = 520
selectionVal$127185 = 576
effectRefH$127182 = 616
validClick$126647 = 624
context$126645 = 632
frameReceiptH$127186 = 640
mouse_downPt$127174 = 648
worldH$127189 = 656
effectWorld$127191 = 672
row$127197 = 800
format$127193 = 808
selectionInfo$127211 = 824
newSelection$127210 = 872
selectionInfoList$127213 = 928
selectedString$127896 = 976
i$127342 = 1024
item$127349 = 1048
currenSelection$127632 = 1096
i$127760 = 1136
i$127829 = 1160
item$127836 = 1184
i$127863 = 1232
item$127870 = 1256
j$127879 = 1264
currItem$127886 = 1288
i$127906 = 1296
$T135304 = 1320
$T135305 = 1328
$T135309 = 1336
$T135310 = 1392
$T135311 = 1393
$T135312 = 1394
$T135313 = 1400
$T135314 = 1424
$T135315 = 1432
$T135316 = 1456
$T135317 = 1504
$T135318 = 1552
$T135319 = 1584
$T135320 = 1632
$T135321 = 1680
$T135322 = 1704
$T135323 = 1712
$T135324 = 1736
$T135325 = 1768
$T135326 = 1792
$T135327 = 1800
$T135328 = 1824
$T135329 = 1832
$T135330 = 1856
$T135331 = 1904
$T135332 = 1952
$T135333 = 1984
$T135334 = 2008
$T135335 = 2016
$T135336 = 2040
$T135337 = 2048
$T135338 = 2072
$T135339 = 2080
$T135342 = 2128
$T135343 = 2152
$T135344 = 2160
$T135345 = 2184
$T135346 = 2192
$T135347 = 2216
$T135348 = 2224
$T135349 = 2248
$T135350 = 2256
$T135419 = 2280
$T135443 = 2288
tv130 = 2296
tv136 = 2304
tv905 = 2312
tv351 = 2320
tv911 = 2328
tv378 = 2336
tv914 = 2344
tv324 = 2352
tv916 = 2360
tv317 = 2368
tv918 = 2376
tv452 = 2384
tv924 = 2392
tv459 = 2400
tv927 = 2408
tv446 = 2416
tv930 = 2424
tv546 = 2432
tv933 = 2440
tv582 = 2448
tv936 = 2456
tv443 = 2464
tv938 = 2472
tv314 = 2480
tv940 = 2488
tv70 = 2496
tv943 = 2504
tv654 = 2512
tv946 = 2520
tv696 = 2528
tv949 = 2536
tv748 = 2544
tv954 = 2552
tv739 = 2560
tv958 = 2568
tv523 = 2576
tv961 = 2584
tv788 = 2592
tv964 = 2600
tv795 = 2608
tv967 = 2616
__$ArrayPad$ = 2624
in_data$ = 2672
out_data$ = 2680
params$ = 2688
output$ = 2696
event_extra$ = 2704
?dtor$21@?0??DoClick@@YAJPEAUPF_InData@@PEAUPF_OutData@@QEAPEAUPF_ParamDef@@PEAUPF_LayerDef@@PEAUPF_EventExtra@@@Z@4HA PROC ; `DoClick'::`1'::dtor$21
	push	rbp
	sub	rsp, 32					; 00000020H
	mov	rbp, rdx
	lea	rcx, QWORD PTR $T135325[rbp]
	call	??1iterator@?$_Tree@V?$_Tset_traits@V?$basic_string@DU?$char_traits@D@std@@V?$allocator@D@2@@std@@U?$less@V?$basic_string@DU?$char_traits@D@std@@V?$allocator@D@2@@std@@@2@V?$allocator@V?$basic_string@DU?$char_traits@D@std@@V?$allocator@D@2@@std@@@2@$0A@@std@@@std@@QEAA@XZ
	add	rsp, 32					; 00000020H
	pop	rbp
	ret	0
?dtor$21@?0??DoClick@@YAJPEAUPF_InData@@PEAUPF_OutData@@QEAPEAUPF_ParamDef@@PEAUPF_LayerDef@@PEAUPF_EventExtra@@@Z@4HA ENDP ; `DoClick'::`1'::dtor$21
; Function compile flags: /Odtp
suites$126628 = 48
arb_data$126629 = 464
seq_data$126632 = 472
context$126642 = 480
renderErr$127187 = 488
mouse_downFixPt$127176 = 496
optionsH$127184 = 504
streamRefH$127183 = 512
clickedItems$127173 = 520
selectionVal$127185 = 576
effectRefH$127182 = 616
validClick$126647 = 624
context$126645 = 632
frameReceiptH$127186 = 640
mouse_downPt$127174 = 648
worldH$127189 = 656
effectWorld$127191 = 672
row$127197 = 800
format$127193 = 808
selectionInfo$127211 = 824
newSelection$127210 = 872
selectionInfoList$127213 = 928
selectedString$127896 = 976
i$127342 = 1024
item$127349 = 1048
currenSelection$127632 = 1096
i$127760 = 1136
i$127829 = 1160
item$127836 = 1184
i$127863 = 1232
item$127870 = 1256
j$127879 = 1264
currItem$127886 = 1288
i$127906 = 1296
$T135304 = 1320
$T135305 = 1328
$T135309 = 1336
$T135310 = 1392
$T135311 = 1393
$T135312 = 1394
$T135313 = 1400
$T135314 = 1424
$T135315 = 1432
$T135316 = 1456
$T135317 = 1504
$T135318 = 1552
$T135319 = 1584
$T135320 = 1632
$T135321 = 1680
$T135322 = 1704
$T135323 = 1712
$T135324 = 1736
$T135325 = 1768
$T135326 = 1792
$T135327 = 1800
$T135328 = 1824
$T135329 = 1832
$T135330 = 1856
$T135331 = 1904
$T135332 = 1952
$T135333 = 1984
$T135334 = 2008
$T135335 = 2016
$T135336 = 2040
$T135337 = 2048
$T135338 = 2072
$T135339 = 2080
$T135342 = 2128
$T135343 = 2152
$T135344 = 2160
$T135345 = 2184
$T135346 = 2192
$T135347 = 2216
$T135348 = 2224
$T135349 = 2248
$T135350 = 2256
$T135419 = 2280
$T135443 = 2288
tv130 = 2296
tv136 = 2304
tv905 = 2312
tv351 = 2320
tv911 = 2328
tv378 = 2336
tv914 = 2344
tv324 = 2352
tv916 = 2360
tv317 = 2368
tv918 = 2376
tv452 = 2384
tv924 = 2392
tv459 = 2400
tv927 = 2408
tv446 = 2416
tv930 = 2424
tv546 = 2432
tv933 = 2440
tv582 = 2448
tv936 = 2456
tv443 = 2464
tv938 = 2472
tv314 = 2480
tv940 = 2488
tv70 = 2496
tv943 = 2504
tv654 = 2512
tv946 = 2520
tv696 = 2528
tv949 = 2536
tv748 = 2544
tv954 = 2552
tv739 = 2560
tv958 = 2568
tv523 = 2576
tv961 = 2584
tv788 = 2592
tv964 = 2600
tv795 = 2608
tv967 = 2616
__$ArrayPad$ = 2624
in_data$ = 2672
out_data$ = 2680
params$ = 2688
output$ = 2696
event_extra$ = 2704
?dtor$22@?0??DoClick@@YAJPEAUPF_InData@@PEAUPF_OutData@@QEAPEAUPF_ParamDef@@PEAUPF_LayerDef@@PEAUPF_EventExtra@@@Z@4HA PROC ; `DoClick'::`1'::dtor$22
	push	rbp
	sub	rsp, 32					; 00000020H
	mov	rbp, rdx
	lea	rcx, QWORD PTR i$127829[rbp]
	call	??1const_iterator@?$_Tree@V?$_Tset_traits@V?$basic_string@DU?$char_traits@D@std@@V?$allocator@D@2@@std@@U?$less@V?$basic_string@DU?$char_traits@D@std@@V?$allocator@D@2@@std@@@2@V?$allocator@V?$basic_string@DU?$char_traits@D@std@@V?$allocator@D@2@@std@@@2@$0A@@std@@@std@@QEAA@XZ
	add	rsp, 32					; 00000020H
	pop	rbp
	ret	0
?dtor$22@?0??DoClick@@YAJPEAUPF_InData@@PEAUPF_OutData@@QEAPEAUPF_ParamDef@@PEAUPF_LayerDef@@PEAUPF_EventExtra@@@Z@4HA ENDP ; `DoClick'::`1'::dtor$22
; Function compile flags: /Odtp
suites$126628 = 48
arb_data$126629 = 464
seq_data$126632 = 472
context$126642 = 480
renderErr$127187 = 488
mouse_downFixPt$127176 = 496
optionsH$127184 = 504
streamRefH$127183 = 512
clickedItems$127173 = 520
selectionVal$127185 = 576
effectRefH$127182 = 616
validClick$126647 = 624
context$126645 = 632
frameReceiptH$127186 = 640
mouse_downPt$127174 = 648
worldH$127189 = 656
effectWorld$127191 = 672
row$127197 = 800
format$127193 = 808
selectionInfo$127211 = 824
newSelection$127210 = 872
selectionInfoList$127213 = 928
selectedString$127896 = 976
i$127342 = 1024
item$127349 = 1048
currenSelection$127632 = 1096
i$127760 = 1136
i$127829 = 1160
item$127836 = 1184
i$127863 = 1232
item$127870 = 1256
j$127879 = 1264
currItem$127886 = 1288
i$127906 = 1296
$T135304 = 1320
$T135305 = 1328
$T135309 = 1336
$T135310 = 1392
$T135311 = 1393
$T135312 = 1394
$T135313 = 1400
$T135314 = 1424
$T135315 = 1432
$T135316 = 1456
$T135317 = 1504
$T135318 = 1552
$T135319 = 1584
$T135320 = 1632
$T135321 = 1680
$T135322 = 1704
$T135323 = 1712
$T135324 = 1736
$T135325 = 1768
$T135326 = 1792
$T135327 = 1800
$T135328 = 1824
$T135329 = 1832
$T135330 = 1856
$T135331 = 1904
$T135332 = 1952
$T135333 = 1984
$T135334 = 2008
$T135335 = 2016
$T135336 = 2040
$T135337 = 2048
$T135338 = 2072
$T135339 = 2080
$T135342 = 2128
$T135343 = 2152
$T135344 = 2160
$T135345 = 2184
$T135346 = 2192
$T135347 = 2216
$T135348 = 2224
$T135349 = 2248
$T135350 = 2256
$T135419 = 2280
$T135443 = 2288
tv130 = 2296
tv136 = 2304
tv905 = 2312
tv351 = 2320
tv911 = 2328
tv378 = 2336
tv914 = 2344
tv324 = 2352
tv916 = 2360
tv317 = 2368
tv918 = 2376
tv452 = 2384
tv924 = 2392
tv459 = 2400
tv927 = 2408
tv446 = 2416
tv930 = 2424
tv546 = 2432
tv933 = 2440
tv582 = 2448
tv936 = 2456
tv443 = 2464
tv938 = 2472
tv314 = 2480
tv940 = 2488
tv70 = 2496
tv943 = 2504
tv654 = 2512
tv946 = 2520
tv696 = 2528
tv949 = 2536
tv748 = 2544
tv954 = 2552
tv739 = 2560
tv958 = 2568
tv523 = 2576
tv961 = 2584
tv788 = 2592
tv964 = 2600
tv795 = 2608
tv967 = 2616
__$ArrayPad$ = 2624
in_data$ = 2672
out_data$ = 2680
params$ = 2688
output$ = 2696
event_extra$ = 2704
?dtor$23@?0??DoClick@@YAJPEAUPF_InData@@PEAUPF_OutData@@QEAPEAUPF_ParamDef@@PEAUPF_LayerDef@@PEAUPF_EventExtra@@@Z@4HA PROC ; `DoClick'::`1'::dtor$23
	push	rbp
	sub	rsp, 32					; 00000020H
	mov	rbp, rdx
	lea	rcx, QWORD PTR $T135327[rbp]
	call	??1iterator@?$_Tree@V?$_Tset_traits@V?$basic_string@DU?$char_traits@D@std@@V?$allocator@D@2@@std@@U?$less@V?$basic_string@DU?$char_traits@D@std@@V?$allocator@D@2@@std@@@2@V?$allocator@V?$basic_string@DU?$char_traits@D@std@@V?$allocator@D@2@@std@@@2@$0A@@std@@@std@@QEAA@XZ
	add	rsp, 32					; 00000020H
	pop	rbp
	ret	0
?dtor$23@?0??DoClick@@YAJPEAUPF_InData@@PEAUPF_OutData@@QEAPEAUPF_ParamDef@@PEAUPF_LayerDef@@PEAUPF_EventExtra@@@Z@4HA ENDP ; `DoClick'::`1'::dtor$23
; Function compile flags: /Odtp
suites$126628 = 48
arb_data$126629 = 464
seq_data$126632 = 472
context$126642 = 480
renderErr$127187 = 488
mouse_downFixPt$127176 = 496
optionsH$127184 = 504
streamRefH$127183 = 512
clickedItems$127173 = 520
selectionVal$127185 = 576
effectRefH$127182 = 616
validClick$126647 = 624
context$126645 = 632
frameReceiptH$127186 = 640
mouse_downPt$127174 = 648
worldH$127189 = 656
effectWorld$127191 = 672
row$127197 = 800
format$127193 = 808
selectionInfo$127211 = 824
newSelection$127210 = 872
selectionInfoList$127213 = 928
selectedString$127896 = 976
i$127342 = 1024
item$127349 = 1048
currenSelection$127632 = 1096
i$127760 = 1136
i$127829 = 1160
item$127836 = 1184
i$127863 = 1232
item$127870 = 1256
j$127879 = 1264
currItem$127886 = 1288
i$127906 = 1296
$T135304 = 1320
$T135305 = 1328
$T135309 = 1336
$T135310 = 1392
$T135311 = 1393
$T135312 = 1394
$T135313 = 1400
$T135314 = 1424
$T135315 = 1432
$T135316 = 1456
$T135317 = 1504
$T135318 = 1552
$T135319 = 1584
$T135320 = 1632
$T135321 = 1680
$T135322 = 1704
$T135323 = 1712
$T135324 = 1736
$T135325 = 1768
$T135326 = 1792
$T135327 = 1800
$T135328 = 1824
$T135329 = 1832
$T135330 = 1856
$T135331 = 1904
$T135332 = 1952
$T135333 = 1984
$T135334 = 2008
$T135335 = 2016
$T135336 = 2040
$T135337 = 2048
$T135338 = 2072
$T135339 = 2080
$T135342 = 2128
$T135343 = 2152
$T135344 = 2160
$T135345 = 2184
$T135346 = 2192
$T135347 = 2216
$T135348 = 2224
$T135349 = 2248
$T135350 = 2256
$T135419 = 2280
$T135443 = 2288
tv130 = 2296
tv136 = 2304
tv905 = 2312
tv351 = 2320
tv911 = 2328
tv378 = 2336
tv914 = 2344
tv324 = 2352
tv916 = 2360
tv317 = 2368
tv918 = 2376
tv452 = 2384
tv924 = 2392
tv459 = 2400
tv927 = 2408
tv446 = 2416
tv930 = 2424
tv546 = 2432
tv933 = 2440
tv582 = 2448
tv936 = 2456
tv443 = 2464
tv938 = 2472
tv314 = 2480
tv940 = 2488
tv70 = 2496
tv943 = 2504
tv654 = 2512
tv946 = 2520
tv696 = 2528
tv949 = 2536
tv748 = 2544
tv954 = 2552
tv739 = 2560
tv958 = 2568
tv523 = 2576
tv961 = 2584
tv788 = 2592
tv964 = 2600
tv795 = 2608
tv967 = 2616
__$ArrayPad$ = 2624
in_data$ = 2672
out_data$ = 2680
params$ = 2688
output$ = 2696
event_extra$ = 2704
?dtor$24@?0??DoClick@@YAJPEAUPF_InData@@PEAUPF_OutData@@QEAPEAUPF_ParamDef@@PEAUPF_LayerDef@@PEAUPF_EventExtra@@@Z@4HA PROC ; `DoClick'::`1'::dtor$24
	push	rbp
	sub	rsp, 32					; 00000020H
	mov	rbp, rdx
	lea	rcx, QWORD PTR item$127836[rbp]
	call	QWORD PTR __imp_??1?$basic_string@DU?$char_traits@D@std@@V?$allocator@D@2@@std@@QEAA@XZ
	add	rsp, 32					; 00000020H
	pop	rbp
	ret	0
?dtor$24@?0??DoClick@@YAJPEAUPF_InData@@PEAUPF_OutData@@QEAPEAUPF_ParamDef@@PEAUPF_LayerDef@@PEAUPF_EventExtra@@@Z@4HA ENDP ; `DoClick'::`1'::dtor$24
; Function compile flags: /Odtp
suites$126628 = 48
arb_data$126629 = 464
seq_data$126632 = 472
context$126642 = 480
renderErr$127187 = 488
mouse_downFixPt$127176 = 496
optionsH$127184 = 504
streamRefH$127183 = 512
clickedItems$127173 = 520
selectionVal$127185 = 576
effectRefH$127182 = 616
validClick$126647 = 624
context$126645 = 632
frameReceiptH$127186 = 640
mouse_downPt$127174 = 648
worldH$127189 = 656
effectWorld$127191 = 672
row$127197 = 800
format$127193 = 808
selectionInfo$127211 = 824
newSelection$127210 = 872
selectionInfoList$127213 = 928
selectedString$127896 = 976
i$127342 = 1024
item$127349 = 1048
currenSelection$127632 = 1096
i$127760 = 1136
i$127829 = 1160
item$127836 = 1184
i$127863 = 1232
item$127870 = 1256
j$127879 = 1264
currItem$127886 = 1288
i$127906 = 1296
$T135304 = 1320
$T135305 = 1328
$T135309 = 1336
$T135310 = 1392
$T135311 = 1393
$T135312 = 1394
$T135313 = 1400
$T135314 = 1424
$T135315 = 1432
$T135316 = 1456
$T135317 = 1504
$T135318 = 1552
$T135319 = 1584
$T135320 = 1632
$T135321 = 1680
$T135322 = 1704
$T135323 = 1712
$T135324 = 1736
$T135325 = 1768
$T135326 = 1792
$T135327 = 1800
$T135328 = 1824
$T135329 = 1832
$T135330 = 1856
$T135331 = 1904
$T135332 = 1952
$T135333 = 1984
$T135334 = 2008
$T135335 = 2016
$T135336 = 2040
$T135337 = 2048
$T135338 = 2072
$T135339 = 2080
$T135342 = 2128
$T135343 = 2152
$T135344 = 2160
$T135345 = 2184
$T135346 = 2192
$T135347 = 2216
$T135348 = 2224
$T135349 = 2248
$T135350 = 2256
$T135419 = 2280
$T135443 = 2288
tv130 = 2296
tv136 = 2304
tv905 = 2312
tv351 = 2320
tv911 = 2328
tv378 = 2336
tv914 = 2344
tv324 = 2352
tv916 = 2360
tv317 = 2368
tv918 = 2376
tv452 = 2384
tv924 = 2392
tv459 = 2400
tv927 = 2408
tv446 = 2416
tv930 = 2424
tv546 = 2432
tv933 = 2440
tv582 = 2448
tv936 = 2456
tv443 = 2464
tv938 = 2472
tv314 = 2480
tv940 = 2488
tv70 = 2496
tv943 = 2504
tv654 = 2512
tv946 = 2520
tv696 = 2528
tv949 = 2536
tv748 = 2544
tv954 = 2552
tv739 = 2560
tv958 = 2568
tv523 = 2576
tv961 = 2584
tv788 = 2592
tv964 = 2600
tv795 = 2608
tv967 = 2616
__$ArrayPad$ = 2624
in_data$ = 2672
out_data$ = 2680
params$ = 2688
output$ = 2696
event_extra$ = 2704
?dtor$25@?0??DoClick@@YAJPEAUPF_InData@@PEAUPF_OutData@@QEAPEAUPF_ParamDef@@PEAUPF_LayerDef@@PEAUPF_EventExtra@@@Z@4HA PROC ; `DoClick'::`1'::dtor$25
	push	rbp
	sub	rsp, 32					; 00000020H
	mov	rbp, rdx
	lea	rcx, QWORD PTR $T135329[rbp]
	call	??1iterator@?$_Tree@V?$_Tset_traits@V?$basic_string@DU?$char_traits@D@std@@V?$allocator@D@2@@std@@U?$less@V?$basic_string@DU?$char_traits@D@std@@V?$allocator@D@2@@std@@@2@V?$allocator@V?$basic_string@DU?$char_traits@D@std@@V?$allocator@D@2@@std@@@2@$0A@@std@@@std@@QEAA@XZ
	add	rsp, 32					; 00000020H
	pop	rbp
	ret	0
?dtor$25@?0??DoClick@@YAJPEAUPF_InData@@PEAUPF_OutData@@QEAPEAUPF_ParamDef@@PEAUPF_LayerDef@@PEAUPF_EventExtra@@@Z@4HA ENDP ; `DoClick'::`1'::dtor$25
; Function compile flags: /Odtp
suites$126628 = 48
arb_data$126629 = 464
seq_data$126632 = 472
context$126642 = 480
renderErr$127187 = 488
mouse_downFixPt$127176 = 496
optionsH$127184 = 504
streamRefH$127183 = 512
clickedItems$127173 = 520
selectionVal$127185 = 576
effectRefH$127182 = 616
validClick$126647 = 624
context$126645 = 632
frameReceiptH$127186 = 640
mouse_downPt$127174 = 648
worldH$127189 = 656
effectWorld$127191 = 672
row$127197 = 800
format$127193 = 808
selectionInfo$127211 = 824
newSelection$127210 = 872
selectionInfoList$127213 = 928
selectedString$127896 = 976
i$127342 = 1024
item$127349 = 1048
currenSelection$127632 = 1096
i$127760 = 1136
i$127829 = 1160
item$127836 = 1184
i$127863 = 1232
item$127870 = 1256
j$127879 = 1264
currItem$127886 = 1288
i$127906 = 1296
$T135304 = 1320
$T135305 = 1328
$T135309 = 1336
$T135310 = 1392
$T135311 = 1393
$T135312 = 1394
$T135313 = 1400
$T135314 = 1424
$T135315 = 1432
$T135316 = 1456
$T135317 = 1504
$T135318 = 1552
$T135319 = 1584
$T135320 = 1632
$T135321 = 1680
$T135322 = 1704
$T135323 = 1712
$T135324 = 1736
$T135325 = 1768
$T135326 = 1792
$T135327 = 1800
$T135328 = 1824
$T135329 = 1832
$T135330 = 1856
$T135331 = 1904
$T135332 = 1952
$T135333 = 1984
$T135334 = 2008
$T135335 = 2016
$T135336 = 2040
$T135337 = 2048
$T135338 = 2072
$T135339 = 2080
$T135342 = 2128
$T135343 = 2152
$T135344 = 2160
$T135345 = 2184
$T135346 = 2192
$T135347 = 2216
$T135348 = 2224
$T135349 = 2248
$T135350 = 2256
$T135419 = 2280
$T135443 = 2288
tv130 = 2296
tv136 = 2304
tv905 = 2312
tv351 = 2320
tv911 = 2328
tv378 = 2336
tv914 = 2344
tv324 = 2352
tv916 = 2360
tv317 = 2368
tv918 = 2376
tv452 = 2384
tv924 = 2392
tv459 = 2400
tv927 = 2408
tv446 = 2416
tv930 = 2424
tv546 = 2432
tv933 = 2440
tv582 = 2448
tv936 = 2456
tv443 = 2464
tv938 = 2472
tv314 = 2480
tv940 = 2488
tv70 = 2496
tv943 = 2504
tv654 = 2512
tv946 = 2520
tv696 = 2528
tv949 = 2536
tv748 = 2544
tv954 = 2552
tv739 = 2560
tv958 = 2568
tv523 = 2576
tv961 = 2584
tv788 = 2592
tv964 = 2600
tv795 = 2608
tv967 = 2616
__$ArrayPad$ = 2624
in_data$ = 2672
out_data$ = 2680
params$ = 2688
output$ = 2696
event_extra$ = 2704
?dtor$26@?0??DoClick@@YAJPEAUPF_InData@@PEAUPF_OutData@@QEAPEAUPF_ParamDef@@PEAUPF_LayerDef@@PEAUPF_EventExtra@@@Z@4HA PROC ; `DoClick'::`1'::dtor$26
	push	rbp
	sub	rsp, 32					; 00000020H
	mov	rbp, rdx
	lea	rcx, QWORD PTR $T135330[rbp]
	call	QWORD PTR __imp_??1?$basic_string@DU?$char_traits@D@std@@V?$allocator@D@2@@std@@QEAA@XZ
	add	rsp, 32					; 00000020H
	pop	rbp
	ret	0
?dtor$26@?0??DoClick@@YAJPEAUPF_InData@@PEAUPF_OutData@@QEAPEAUPF_ParamDef@@PEAUPF_LayerDef@@PEAUPF_EventExtra@@@Z@4HA ENDP ; `DoClick'::`1'::dtor$26
; Function compile flags: /Odtp
suites$126628 = 48
arb_data$126629 = 464
seq_data$126632 = 472
context$126642 = 480
renderErr$127187 = 488
mouse_downFixPt$127176 = 496
optionsH$127184 = 504
streamRefH$127183 = 512
clickedItems$127173 = 520
selectionVal$127185 = 576
effectRefH$127182 = 616
validClick$126647 = 624
context$126645 = 632
frameReceiptH$127186 = 640
mouse_downPt$127174 = 648
worldH$127189 = 656
effectWorld$127191 = 672
row$127197 = 800
format$127193 = 808
selectionInfo$127211 = 824
newSelection$127210 = 872
selectionInfoList$127213 = 928
selectedString$127896 = 976
i$127342 = 1024
item$127349 = 1048
currenSelection$127632 = 1096
i$127760 = 1136
i$127829 = 1160
item$127836 = 1184
i$127863 = 1232
item$127870 = 1256
j$127879 = 1264
currItem$127886 = 1288
i$127906 = 1296
$T135304 = 1320
$T135305 = 1328
$T135309 = 1336
$T135310 = 1392
$T135311 = 1393
$T135312 = 1394
$T135313 = 1400
$T135314 = 1424
$T135315 = 1432
$T135316 = 1456
