; Listing generated by Microsoft (R) Optimizing Compiler Version 15.00.21022.08 

include listing.inc

INCLUDELIB MSVCRTD
INCLUDELIB OLDNAMES

_DATA	SEGMENT
_bad_alloc_Message DQ FLAT:$SG20509
_DATA	ENDS
CONST	SEGMENT
$SG20509 DB	'bad allocation', 00H
CONST	ENDS
PUBLIC	?SetColor@DrawbotBot@@QEAAXFM@Z			; DrawbotBot::SetColor
PUBLIC	__real@3f800000
PUBLIC	?DBDrawbotSuite@AEGP_SuiteHandler@@QEBAPEAUDRAWBOT_DrawbotSuite1@@XZ ; AEGP_SuiteHandler::DBDrawbotSuite
PUBLIC	?DBSupplierSuite@AEGP_SuiteHandler@@QEBAPEAUDRAWBOT_SupplierSuite1@@XZ ; AEGP_SuiteHandler::DBSupplierSuite
PUBLIC	?PFEffectCustomUISuite@AEGP_SuiteHandler@@QEBAPEAUPF_EffectCustomUISuite1@@XZ ; AEGP_SuiteHandler::PFEffectCustomUISuite
PUBLIC	??0DrawbotBot@@QEAA@PEAUSPBasicSuite@@PEAPEAUPF_Context@@J@Z ; DrawbotBot::DrawbotBot
EXTRN	__CxxFrameHandler3:PROC
EXTRN	??1AEGP_SuiteHandler@@QEAA@XZ:PROC		; AEGP_SuiteHandler::~AEGP_SuiteHandler
EXTRN	??0AEGP_SuiteHandler@@QEAA@PEBUSPBasicSuite@@@Z:PROC ; AEGP_SuiteHandler::AEGP_SuiteHandler
EXTRN	_fltused:DWORD
pdata	SEGMENT
$pdata$??0DrawbotBot@@QEAA@PEAUSPBasicSuite@@PEAPEAUPF_Context@@J@Z DD imagerel $LN4
	DD	imagerel $LN4+371
	DD	imagerel $unwind$??0DrawbotBot@@QEAA@PEAUSPBasicSuite@@PEAPEAUPF_Context@@J@Z
pdata	ENDS
pdata	SEGMENT
$pdata$?dtor$0@?0???0DrawbotBot@@QEAA@PEAUSPBasicSuite@@PEAPEAUPF_Context@@J@Z@4HA DD imagerel ?dtor$0@?0???0DrawbotBot@@QEAA@PEAUSPBasicSuite@@PEAPEAUPF_Context@@J@Z@4HA
	DD	imagerel ?dtor$0@?0???0DrawbotBot@@QEAA@PEAUSPBasicSuite@@PEAPEAUPF_Context@@J@Z@4HA+24
	DD	imagerel $unwind$?dtor$0@?0???0DrawbotBot@@QEAA@PEAUSPBasicSuite@@PEAPEAUPF_Context@@J@Z@4HA
pdata	ENDS
CONST	SEGMENT
	ORG $+1
$cppxdata$??0DrawbotBot@@QEAA@PEAUSPBasicSuite@@PEAPEAUPF_Context@@J@Z DD 019930522H
	DD	01H
	DD	imagerel $stateUnwindMap$??0DrawbotBot@@QEAA@PEAUSPBasicSuite@@PEAPEAUPF_Context@@J@Z
	DD	00H
	DD	00H
	DD	03H
	DD	imagerel $ip2state$??0DrawbotBot@@QEAA@PEAUSPBasicSuite@@PEAPEAUPF_Context@@J@Z
	DD	020H
	DD	00H
	DD	01H
CONST	ENDS
xdata	SEGMENT
$stateUnwindMap$??0DrawbotBot@@QEAA@PEAUSPBasicSuite@@PEAPEAUPF_Context@@J@Z DD 0ffffffffH
	DD	imagerel ?dtor$0@?0???0DrawbotBot@@QEAA@PEAUSPBasicSuite@@PEAPEAUPF_Context@@J@Z@4HA
$unwind$??0DrawbotBot@@QEAA@PEAUSPBasicSuite@@PEAPEAUPF_Context@@J@Z DD 022211H
	DD	030155219H
	DD	imagerel __CxxFrameHandler3
	DD	imagerel $cppxdata$??0DrawbotBot@@QEAA@PEAUSPBasicSuite@@PEAPEAUPF_Context@@J@Z
$unwind$?dtor$0@?0???0DrawbotBot@@QEAA@PEAUSPBasicSuite@@PEAPEAUPF_Context@@J@Z@4HA DD 020601H
	DD	050023206H
$ip2state$??0DrawbotBot@@QEAA@PEAUSPBasicSuite@@PEAPEAUPF_Context@@J@Z DD imagerel ??0DrawbotBot@@QEAA@PEAUSPBasicSuite@@PEAPEAUPF_Context@@J@Z
	DD	0ffffffffH
	DD	imagerel ??0DrawbotBot@@QEAA@PEAUSPBasicSuite@@PEAPEAUPF_Context@@J@Z+50
	DD	00H
	DD	imagerel ??0DrawbotBot@@QEAA@PEAUSPBasicSuite@@PEAPEAUPF_Context@@J@Z+360
	DD	0ffffffffH
xdata	ENDS
;	COMDAT __real@3f800000
; File c:\users\brendan bolles\documents\development\proexr\src\aftereffects\drawbotbot.cpp
CONST	SEGMENT
__real@3f800000 DD 03f800000r			; 1
; Function compile flags: /Odtp
CONST	ENDS
_TEXT	SEGMENT
$T22328 = 32
this$ = 64
pica_basicP$ = 72
contextH$ = 80
appl_id$ = 88
??0DrawbotBot@@QEAA@PEAUSPBasicSuite@@PEAPEAUPF_Context@@J@Z PROC ; DrawbotBot::DrawbotBot

; 40   : {

$LN4:
	mov	DWORD PTR [rsp+32], r9d
	mov	QWORD PTR [rsp+24], r8
	mov	QWORD PTR [rsp+16], rdx
	mov	QWORD PTR [rsp+8], rcx
	push	rbx
	sub	rsp, 48					; 00000030H
	mov	QWORD PTR $T22328[rsp], -2
	mov	rdx, QWORD PTR pica_basicP$[rsp]
	mov	rcx, QWORD PTR this$[rsp]
	call	??0AEGP_SuiteHandler@@QEAA@PEBUSPBasicSuite@@@Z ; AEGP_SuiteHandler::AEGP_SuiteHandler
	npad	1
	mov	rcx, QWORD PTR this$[rsp]
	mov	eax, DWORD PTR appl_id$[rsp]
	mov	DWORD PTR [rcx+416], eax
	mov	rax, QWORD PTR this$[rsp]
	mov	QWORD PTR [rax+420], 0
	mov	rax, QWORD PTR this$[rsp]
	mov	QWORD PTR [rax+428], 0
	mov	rax, QWORD PTR this$[rsp]
	mov	QWORD PTR [rax+436], 0
	mov	rax, QWORD PTR this$[rsp]
	mov	QWORD PTR [rax+444], 0

; 41   :     suites.PFEffectCustomUISuite()->PF_GetDrawingReference(contextH, &_drawbot_ref);

	mov	rbx, QWORD PTR this$[rsp]
	add	rbx, 428				; 000001acH
	mov	rcx, QWORD PTR this$[rsp]
	call	?PFEffectCustomUISuite@AEGP_SuiteHandler@@QEBAPEAUPF_EffectCustomUISuite1@@XZ ; AEGP_SuiteHandler::PFEffectCustomUISuite
	mov	rdx, rbx
	mov	rcx, QWORD PTR contextH$[rsp]
	call	QWORD PTR [rax]

; 42   :     
; 43   :     _suiteP = suites.DBSupplierSuite();

	mov	rcx, QWORD PTR this$[rsp]
	call	?DBSupplierSuite@AEGP_SuiteHandler@@QEBAPEAUDRAWBOT_SupplierSuite1@@XZ ; AEGP_SuiteHandler::DBSupplierSuite
	mov	r11, rax
	mov	rax, QWORD PTR this$[rsp]
	mov	QWORD PTR [rax+420], r11

; 44   :     
; 45   :     suites.DBDrawbotSuite()->GetSupplier(_drawbot_ref, &_supplier_ref);

	mov	rbx, QWORD PTR this$[rsp]
	add	rbx, 436				; 000001b4H
	mov	rcx, QWORD PTR this$[rsp]
	call	?DBDrawbotSuite@AEGP_SuiteHandler@@QEBAPEAUDRAWBOT_DrawbotSuite1@@XZ ; AEGP_SuiteHandler::DBDrawbotSuite
	mov	rdx, rbx
	mov	rcx, QWORD PTR this$[rsp]
	mov	rcx, QWORD PTR [rcx+428]
	call	QWORD PTR [rax]

; 46   :     suites.DBDrawbotSuite()->GetSurface(_drawbot_ref, &_surface_ref);

	mov	rbx, QWORD PTR this$[rsp]
	add	rbx, 444				; 000001bcH
	mov	rcx, QWORD PTR this$[rsp]
	call	?DBDrawbotSuite@AEGP_SuiteHandler@@QEBAPEAUDRAWBOT_DrawbotSuite1@@XZ ; AEGP_SuiteHandler::DBDrawbotSuite
	mov	rdx, rbx
	mov	rcx, QWORD PTR this$[rsp]
	mov	rcx, QWORD PTR [rcx+428]
	call	QWORD PTR [rax+8]

; 47   :     
; 48   :     _brush_pos.x = 0.f;

	mov	r11, QWORD PTR this$[rsp]
	xorps	xmm0, xmm0
	movss	DWORD PTR [r11+452], xmm0

; 49   :     _brush_pos.y = 0.f;

	mov	rax, QWORD PTR this$[rsp]
	xorps	xmm0, xmm0
	movss	DWORD PTR [rax+456], xmm0

; 50   :     
; 51   :     SetColor(PF_App_Color_TEXT);

	movss	xmm2, DWORD PTR __real@3f800000
	mov	dx, 2
	mov	rcx, QWORD PTR this$[rsp]
	call	?SetColor@DrawbotBot@@QEAAXFM@Z		; DrawbotBot::SetColor

; 52   :     
; 53   :     _suiteP->GetDefaultFontSize(_supplier_ref, &_font_size);

	mov	rdx, QWORD PTR this$[rsp]
	add	rdx, 476				; 000001dcH
	mov	rax, QWORD PTR this$[rsp]
	mov	rax, QWORD PTR [rax+420]
	mov	rcx, QWORD PTR this$[rsp]
	mov	rcx, QWORD PTR [rcx+436]
	call	QWORD PTR [rax+24]
	npad	1

; 54   : }

	mov	rax, QWORD PTR this$[rsp]
	add	rsp, 48					; 00000030H
	pop	rbx
	ret	0
??0DrawbotBot@@QEAA@PEAUSPBasicSuite@@PEAPEAUPF_Context@@J@Z ENDP ; DrawbotBot::DrawbotBot
; Function compile flags: /Odtp
_TEXT	ENDS
text$x	SEGMENT
$T22328 = 32
this$ = 64
pica_basicP$ = 72
contextH$ = 80
appl_id$ = 88
?dtor$0@?0???0DrawbotBot@@QEAA@PEAUSPBasicSuite@@PEAPEAUPF_Context@@J@Z@4HA PROC ; `DrawbotBot::DrawbotBot'::`1'::dtor$0
	push	rbp
	sub	rsp, 32					; 00000020H
	mov	rbp, rdx
	mov	rcx, QWORD PTR this$[rbp]
	call	??1AEGP_SuiteHandler@@QEAA@XZ		; AEGP_SuiteHandler::~AEGP_SuiteHandler
	add	rsp, 32					; 00000020H
	pop	rbp
	ret	0
?dtor$0@?0???0DrawbotBot@@QEAA@PEAUSPBasicSuite@@PEAPEAUPF_Context@@J@Z@4HA ENDP ; `DrawbotBot::DrawbotBot'::`1'::dtor$0
text$x	ENDS
PUBLIC	?LoadSuite@AEGP_SuiteHandler@@AEBAPEAXPEADJ@Z	; AEGP_SuiteHandler::LoadSuite
PUBLIC	??_C@_0BD@FLBGPIMI@DRAWBOT?5Draw?5Suite?$AA@	; `string'
;	COMDAT pdata
; File c:\users\brendan bolles\documents\development\proexr\src\aftereffects\fnord_suitehandler.h
pdata	SEGMENT
$pdata$?DBDrawbotSuite@AEGP_SuiteHandler@@QEBAPEAUDRAWBOT_DrawbotSuite1@@XZ DD imagerel $LN4
	DD	imagerel $LN4+79
	DD	imagerel $unwind$?DBDrawbotSuite@AEGP_SuiteHandler@@QEBAPEAUDRAWBOT_DrawbotSuite1@@XZ
pdata	ENDS
;	COMDAT xdata
xdata	SEGMENT
$unwind$?DBDrawbotSuite@AEGP_SuiteHandler@@QEBAPEAUDRAWBOT_DrawbotSuite1@@XZ DD 010901H
	DD	04209H
xdata	ENDS
;	COMDAT ??_C@_0BD@FLBGPIMI@DRAWBOT?5Draw?5Suite?$AA@
CONST	SEGMENT
??_C@_0BD@FLBGPIMI@DRAWBOT?5Draw?5Suite?$AA@ DB 'DRAWBOT Draw Suite', 00H ; `string'
; Function compile flags: /Odtp
CONST	ENDS
;	COMDAT ?DBDrawbotSuite@AEGP_SuiteHandler@@QEBAPEAUDRAWBOT_DrawbotSuite1@@XZ
_TEXT	SEGMENT
this$ = 48
?DBDrawbotSuite@AEGP_SuiteHandler@@QEBAPEAUDRAWBOT_DrawbotSuite1@@XZ PROC ; AEGP_SuiteHandler::DBDrawbotSuite, COMDAT

; 440  : 	AEGP_SUITE_ACCESS_BOILERPLATE(DBDrawbotSuite, DB_DrawbotSuite, db_drawbot_suiteP, kDRAWBOT_DrawSuite, kDRAWBOT_DrawbotSuite_Version);

$LN4:
	mov	QWORD PTR [rsp+8], rcx
	sub	rsp, 40					; 00000028H
	mov	rax, QWORD PTR this$[rsp]
	cmp	QWORD PTR [rax+328], 0
	jne	SHORT $LN1@DBDrawbotS
	mov	r8d, 1
	lea	rdx, OFFSET FLAT:??_C@_0BD@FLBGPIMI@DRAWBOT?5Draw?5Suite?$AA@
	mov	rcx, QWORD PTR this$[rsp]
	call	?LoadSuite@AEGP_SuiteHandler@@AEBAPEAXPEADJ@Z ; AEGP_SuiteHandler::LoadSuite
	mov	r11, rax
	mov	rax, QWORD PTR this$[rsp]
	mov	QWORD PTR [rax+328], r11
$LN1@DBDrawbotS:
	mov	rax, QWORD PTR this$[rsp]
	mov	rax, QWORD PTR [rax+328]
	add	rsp, 40					; 00000028H
	ret	0
?DBDrawbotSuite@AEGP_SuiteHandler@@QEBAPEAUDRAWBOT_DrawbotSuite1@@XZ ENDP ; AEGP_SuiteHandler::DBDrawbotSuite
_TEXT	ENDS
EXTRN	?MissingSuiteError@AEGP_SuiteHandler@@AEBAXXZ:PROC ; AEGP_SuiteHandler::MissingSuiteError
;	COMDAT pdata
pdata	SEGMENT
$pdata$?LoadSuite@AEGP_SuiteHandler@@AEBAPEAXPEADJ@Z DD imagerel $LN5
	DD	imagerel $LN5+82
	DD	imagerel $unwind$?LoadSuite@AEGP_SuiteHandler@@AEBAPEAXPEADJ@Z
pdata	ENDS
;	COMDAT xdata
xdata	SEGMENT
$unwind$?LoadSuite@AEGP_SuiteHandler@@AEBAPEAXPEADJ@Z DD 011301H
	DD	06213H
; Function compile flags: /Odtp
xdata	ENDS
;	COMDAT ?LoadSuite@AEGP_SuiteHandler@@AEBAPEAXPEADJ@Z
_TEXT	SEGMENT
suiteP$ = 32
err$ = 40
this$ = 64
nameZ$ = 72
versionL$ = 80
?LoadSuite@AEGP_SuiteHandler@@AEBAPEAXPEADJ@Z PROC	; AEGP_SuiteHandler::LoadSuite, COMDAT

; 297  : 	{

$LN5:
	mov	DWORD PTR [rsp+24], r8d
	mov	QWORD PTR [rsp+16], rdx
	mov	QWORD PTR [rsp+8], rcx
	sub	rsp, 56					; 00000038H

; 298  : 		const void *suiteP;
; 299  : 		A_long err = i_pica_basicP->AcquireSuite(nameZ, versionL, &suiteP);

	mov	rax, QWORD PTR this$[rsp]
	mov	rax, QWORD PTR [rax]
	lea	r8, QWORD PTR suiteP$[rsp]
	mov	edx, DWORD PTR versionL$[rsp]
	mov	rcx, QWORD PTR nameZ$[rsp]
	call	QWORD PTR [rax]
	mov	DWORD PTR err$[rsp], eax

; 300  : 
; 301  : 		if (err || !suiteP) {

	cmp	DWORD PTR err$[rsp], 0
	jne	SHORT $LN1@LoadSuite
	cmp	QWORD PTR suiteP$[rsp], 0
	jne	SHORT $LN2@LoadSuite
$LN1@LoadSuite:

; 302  : 			MissingSuiteError();

	mov	rcx, QWORD PTR this$[rsp]
	call	?MissingSuiteError@AEGP_SuiteHandler@@AEBAXXZ ; AEGP_SuiteHandler::MissingSuiteError
$LN2@LoadSuite:

; 303  : 		}
; 304  : 
; 305  : 		return (void*)suiteP;

	mov	rax, QWORD PTR suiteP$[rsp]

; 306  : 	}

	add	rsp, 56					; 00000038H
	ret	0
?LoadSuite@AEGP_SuiteHandler@@AEBAPEAXPEADJ@Z ENDP	; AEGP_SuiteHandler::LoadSuite
_TEXT	ENDS
PUBLIC	??_C@_0BH@FIONCCPG@DRAWBOT?5Supplier?5Suite?$AA@ ; `string'
;	COMDAT pdata
pdata	SEGMENT
$pdata$?DBSupplierSuite@AEGP_SuiteHandler@@QEBAPEAUDRAWBOT_SupplierSuite1@@XZ DD imagerel $LN4
	DD	imagerel $LN4+79
	DD	imagerel $unwind$?DBSupplierSuite@AEGP_SuiteHandler@@QEBAPEAUDRAWBOT_SupplierSuite1@@XZ
pdata	ENDS
;	COMDAT xdata
xdata	SEGMENT
$unwind$?DBSupplierSuite@AEGP_SuiteHandler@@QEBAPEAUDRAWBOT_SupplierSuite1@@XZ DD 010901H
	DD	04209H
xdata	ENDS
;	COMDAT ??_C@_0BH@FIONCCPG@DRAWBOT?5Supplier?5Suite?$AA@
CONST	SEGMENT
??_C@_0BH@FIONCCPG@DRAWBOT?5Supplier?5Suite?$AA@ DB 'DRAWBOT Supplier Sui'
	DB	'te', 00H					; `string'
; Function compile flags: /Odtp
CONST	ENDS
;	COMDAT ?DBSupplierSuite@AEGP_SuiteHandler@@QEBAPEAUDRAWBOT_SupplierSuite1@@XZ
_TEXT	SEGMENT
this$ = 48
?DBSupplierSuite@AEGP_SuiteHandler@@QEBAPEAUDRAWBOT_SupplierSuite1@@XZ PROC ; AEGP_SuiteHandler::DBSupplierSuite, COMDAT

; 441  : 	AEGP_SUITE_ACCESS_BOILERPLATE(DBSupplierSuite, DB_SupplierSuite, db_supplier_suiteP, kDRAWBOT_SupplierSuite, kDB_SupplierSuite_Version);

$LN4:
	mov	QWORD PTR [rsp+8], rcx
	sub	rsp, 40					; 00000028H
	mov	rax, QWORD PTR this$[rsp]
	cmp	QWORD PTR [rax+336], 0
	jne	SHORT $LN1@DBSupplier
	mov	r8d, 1
	lea	rdx, OFFSET FLAT:??_C@_0BH@FIONCCPG@DRAWBOT?5Supplier?5Suite?$AA@
	mov	rcx, QWORD PTR this$[rsp]
	call	?LoadSuite@AEGP_SuiteHandler@@AEBAPEAXPEADJ@Z ; AEGP_SuiteHandler::LoadSuite
	mov	r11, rax
	mov	rax, QWORD PTR this$[rsp]
	mov	QWORD PTR [rax+336], r11
$LN1@DBSupplier:
	mov	rax, QWORD PTR this$[rsp]
	mov	rax, QWORD PTR [rax+336]
	add	rsp, 40					; 00000028H
	ret	0
?DBSupplierSuite@AEGP_SuiteHandler@@QEBAPEAUDRAWBOT_SupplierSuite1@@XZ ENDP ; AEGP_SuiteHandler::DBSupplierSuite
_TEXT	ENDS
PUBLIC	??_C@_0BK@CMHGHGNL@PF?5Effect?5Custom?5UI?5Suite?$AA@ ; `string'
;	COMDAT pdata
pdata	SEGMENT
$pdata$?PFEffectCustomUISuite@AEGP_SuiteHandler@@QEBAPEAUPF_EffectCustomUISuite1@@XZ DD imagerel $LN4
	DD	imagerel $LN4+79
	DD	imagerel $unwind$?PFEffectCustomUISuite@AEGP_SuiteHandler@@QEBAPEAUPF_EffectCustomUISuite1@@XZ
pdata	ENDS
;	COMDAT xdata
xdata	SEGMENT
$unwind$?PFEffectCustomUISuite@AEGP_SuiteHandler@@QEBAPEAUPF_EffectCustomUISuite1@@XZ DD 010901H
	DD	04209H
xdata	ENDS
;	COMDAT ??_C@_0BK@CMHGHGNL@PF?5Effect?5Custom?5UI?5Suite?$AA@
CONST	SEGMENT
??_C@_0BK@CMHGHGNL@PF?5Effect?5Custom?5UI?5Suite?$AA@ DB 'PF Effect Custo'
	DB	'm UI Suite', 00H				; `string'
; Function compile flags: /Odtp
CONST	ENDS
;	COMDAT ?PFEffectCustomUISuite@AEGP_SuiteHandler@@QEBAPEAUPF_EffectCustomUISuite1@@XZ
_TEXT	SEGMENT
this$ = 48
?PFEffectCustomUISuite@AEGP_SuiteHandler@@QEBAPEAUPF_EffectCustomUISuite1@@XZ PROC ; AEGP_SuiteHandler::PFEffectCustomUISuite, COMDAT

; 444  : 	AEGP_SUITE_ACCESS_BOILERPLATE(PFEffectCustomUISuite, PF_EffectCustomUISuite, pf_effect_customUI_suiteP, kPFEffectCustomUISuite, kPFEffectCustomUISuiteVersion);

$LN4:
	mov	QWORD PTR [rsp+8], rcx
	sub	rsp, 40					; 00000028H
	mov	rax, QWORD PTR this$[rsp]
	cmp	QWORD PTR [rax+360], 0
	jne	SHORT $LN1@PFEffectCu
	mov	r8d, 1
	lea	rdx, OFFSET FLAT:??_C@_0BK@CMHGHGNL@PF?5Effect?5Custom?5UI?5Suite?$AA@
	mov	rcx, QWORD PTR this$[rsp]
	call	?LoadSuite@AEGP_SuiteHandler@@AEBAPEAXPEADJ@Z ; AEGP_SuiteHandler::LoadSuite
	mov	r11, rax
	mov	rax, QWORD PTR this$[rsp]
	mov	QWORD PTR [rax+360], r11
$LN1@PFEffectCu:
	mov	rax, QWORD PTR this$[rsp]
	mov	rax, QWORD PTR [rax+360]
	add	rsp, 40					; 00000028H
	ret	0
?PFEffectCustomUISuite@AEGP_SuiteHandler@@QEBAPEAUPF_EffectCustomUISuite1@@XZ ENDP ; AEGP_SuiteHandler::PFEffectCustomUISuite
_TEXT	ENDS
PUBLIC	??1DrawbotBot@@QEAA@XZ				; DrawbotBot::~DrawbotBot
pdata	SEGMENT
$pdata$??1DrawbotBot@@QEAA@XZ DD imagerel $LN4
	DD	imagerel $LN4+24
	DD	imagerel $unwind$??1DrawbotBot@@QEAA@XZ
pdata	ENDS
xdata	SEGMENT
$unwind$??1DrawbotBot@@QEAA@XZ DD 010901H
	DD	04209H
; Function compile flags: /Odtp
; File c:\users\brendan bolles\documents\development\proexr\src\aftereffects\drawbotbot.cpp
xdata	ENDS
_TEXT	SEGMENT
this$ = 48
??1DrawbotBot@@QEAA@XZ PROC				; DrawbotBot::~DrawbotBot

; 58   : {

$LN4:
	mov	QWORD PTR [rsp+8], rcx
	sub	rsp, 40					; 00000028H

; 59   : 
; 60   : }

	mov	rcx, QWORD PTR this$[rsp]
	call	??1AEGP_SuiteHandler@@QEAA@XZ		; AEGP_SuiteHandler::~AEGP_SuiteHandler
	add	rsp, 40					; 00000028H
	ret	0
??1DrawbotBot@@QEAA@XZ ENDP				; DrawbotBot::~DrawbotBot
_TEXT	ENDS
PUBLIC	__real@3f666666
PUBLIC	__real@477fff00
PUBLIC	__real@3f000000
PUBLIC	__real@3f333333
PUBLIC	__real@3f4ccccd
PUBLIC	__real@3e99999a
PUBLIC	__real@3f19999a
PUBLIC	__real@47000000
PUBLIC	?AppSuite@AEGP_SuiteHandler@@QEBAPEAUPFAppSuite4@@XZ ; AEGP_SuiteHandler::AppSuite
pdata	SEGMENT
$pdata$?SetColor@DrawbotBot@@QEAAXFM@Z DD imagerel $LN19
	DD	imagerel $LN19+1095
	DD	imagerel $unwind$?SetColor@DrawbotBot@@QEAAXFM@Z
pdata	ENDS
xdata	SEGMENT
$unwind$?SetColor@DrawbotBot@@QEAAXFM@Z DD 011401H
	DD	08214H
xdata	ENDS
;	COMDAT __real@3f666666
CONST	SEGMENT
__real@3f666666 DD 03f666666r			; 0.9
CONST	ENDS
;	COMDAT __real@477fff00
CONST	SEGMENT
__real@477fff00 DD 0477fff00r			; 65535
CONST	ENDS
;	COMDAT __real@3f000000
CONST	SEGMENT
__real@3f000000 DD 03f000000r			; 0.5
CONST	ENDS
;	COMDAT __real@3f333333
CONST	SEGMENT
__real@3f333333 DD 03f333333r			; 0.7
CONST	ENDS
;	COMDAT __real@3f4ccccd
CONST	SEGMENT
__real@3f4ccccd DD 03f4ccccdr			; 0.8
CONST	ENDS
;	COMDAT __real@3e99999a
CONST	SEGMENT
__real@3e99999a DD 03e99999ar			; 0.3
CONST	ENDS
;	COMDAT __real@3f19999a
CONST	SEGMENT
__real@3f19999a DD 03f19999ar			; 0.6
CONST	ENDS
;	COMDAT __real@47000000
CONST	SEGMENT
__real@47000000 DD 047000000r			; 32768
; Function compile flags: /Odtp
CONST	ENDS
_TEXT	SEGMENT
app_color$21738 = 32
app_color$21760 = 40
tv87 = 48
this$ = 80
color$ = 88
a$ = 96
?SetColor@DrawbotBot@@QEAAXFM@Z PROC			; DrawbotBot::SetColor

; 64   : {

$LN19:
	movss	DWORD PTR [rsp+24], xmm2
	mov	WORD PTR [rsp+16], dx
	mov	QWORD PTR [rsp+8], rcx
	sub	rsp, 72					; 00000048H

; 65   :     if(_appl_id == 'FXTC')

	mov	rax, QWORD PTR this$[rsp]
	cmp	DWORD PTR [rax+416], 1180193859		; 46585443H
	jne	$LN15@SetColor

; 66   :     {
; 67   :         PF_App_Color app_color;
; 68   :     
; 69   :         suites.AppSuite()->PF_AppGetColor(color, &app_color);

	mov	rcx, QWORD PTR this$[rsp]
	call	?AppSuite@AEGP_SuiteHandler@@QEBAPEAUPFAppSuite4@@XZ ; AEGP_SuiteHandler::AppSuite
	lea	rdx, QWORD PTR app_color$21738[rsp]
	movzx	ecx, WORD PTR color$[rsp]
	call	QWORD PTR [rax+8]

; 70   :         
; 71   :         _brush_color.red    = (float)app_color.red / (float)PF_MAX_CHAN16;

	movzx	r11d, WORD PTR app_color$21738[rsp]
	movd	xmm0, r11d
	cvtdq2ps xmm0, xmm0
	divss	xmm0, DWORD PTR __real@47000000
	mov	rax, QWORD PTR this$[rsp]
	movss	DWORD PTR [rax+460], xmm0

; 72   :         _brush_color.green  = (float)app_color.green / (float)PF_MAX_CHAN16;

	movzx	eax, WORD PTR app_color$21738[rsp+2]
	movd	xmm0, eax
	cvtdq2ps xmm0, xmm0
	divss	xmm0, DWORD PTR __real@47000000
	mov	rax, QWORD PTR this$[rsp]
	movss	DWORD PTR [rax+464], xmm0

; 73   :         _brush_color.blue   = (float)app_color.blue / (float)PF_MAX_CHAN16;

	movzx	eax, WORD PTR app_color$21738[rsp+4]
	movd	xmm0, eax
	cvtdq2ps xmm0, xmm0
	divss	xmm0, DWORD PTR __real@47000000
	mov	rax, QWORD PTR this$[rsp]
	movss	DWORD PTR [rax+468], xmm0

; 74   :     }
; 75   :     else

	jmp	$LN14@SetColor
$LN15@SetColor:

; 76   :     {
; 77   :         // Premiere isn't doing this properly, so I'll have to.
; 78   :         // Only supporting the colors I'm actually using at the moment.
; 79   :         switch(color)

	movsx	eax, WORD PTR color$[rsp]
	mov	DWORD PTR tv87[rsp], eax
	cmp	DWORD PTR tv87[rsp], 23
	jg	SHORT $LN18@SetColor
	cmp	DWORD PTR tv87[rsp], 23
	je	$LN8@SetColor
	cmp	DWORD PTR tv87[rsp], 3
	je	$LN5@SetColor
	cmp	DWORD PTR tv87[rsp], 5
	je	$LN6@SetColor
	cmp	DWORD PTR tv87[rsp], 6
	je	$LN7@SetColor
	cmp	DWORD PTR tv87[rsp], 8
	je	$LN4@SetColor
	cmp	DWORD PTR tv87[rsp], 15
	je	$LN3@SetColor
	jmp	$LN1@SetColor
$LN18@SetColor:
	cmp	DWORD PTR tv87[rsp], 42			; 0000002aH
	je	SHORT $LN11@SetColor
	cmp	DWORD PTR tv87[rsp], 43			; 0000002bH
	je	SHORT $LN10@SetColor
	cmp	DWORD PTR tv87[rsp], 45			; 0000002dH
	je	$LN9@SetColor
	cmp	DWORD PTR tv87[rsp], 1000		; 000003e8H
	je	$LN2@SetColor
	jmp	$LN1@SetColor
$LN11@SetColor:

; 80   :         {
; 81   :             case PF_App_Color_BLACK:
; 82   :                 _brush_color.red = _brush_color.green = _brush_color.blue = 0.f;

	mov	rax, QWORD PTR this$[rsp]
	xorps	xmm0, xmm0
	movss	DWORD PTR [rax+468], xmm0
	mov	rax, QWORD PTR this$[rsp]
	xorps	xmm0, xmm0
	movss	DWORD PTR [rax+464], xmm0
	mov	rax, QWORD PTR this$[rsp]
	xorps	xmm0, xmm0
	movss	DWORD PTR [rax+460], xmm0

; 83   :                 break;

	jmp	$LN12@SetColor
$LN10@SetColor:

; 84   :             
; 85   :             case PF_App_Color_WHITE:
; 86   :                 _brush_color.red = _brush_color.green = _brush_color.blue = 1.f;

	mov	rax, QWORD PTR this$[rsp]
	movss	xmm0, DWORD PTR __real@3f800000
	movss	DWORD PTR [rax+468], xmm0
	mov	rax, QWORD PTR this$[rsp]
	movss	xmm0, DWORD PTR __real@3f800000
	movss	DWORD PTR [rax+464], xmm0
	mov	rax, QWORD PTR this$[rsp]
	movss	xmm0, DWORD PTR __real@3f800000
	movss	DWORD PTR [rax+460], xmm0

; 87   :                 break;

	jmp	$LN12@SetColor
$LN9@SetColor:

; 88   : 
; 89   :             case PF_App_Color_RED:
; 90   :                 _brush_color.red = 1.f;

	mov	rax, QWORD PTR this$[rsp]
	movss	xmm0, DWORD PTR __real@3f800000
	movss	DWORD PTR [rax+460], xmm0

; 91   :                 _brush_color.green = _brush_color.blue = 0.f;

	mov	rax, QWORD PTR this$[rsp]
	xorps	xmm0, xmm0
	movss	DWORD PTR [rax+468], xmm0
	mov	rax, QWORD PTR this$[rsp]
	xorps	xmm0, xmm0
	movss	DWORD PTR [rax+464], xmm0

; 92   :                 break;

	jmp	$LN12@SetColor
$LN8@SetColor:

; 93   : 
; 94   :             case PF_App_Color_TEXT_DISABLED:
; 95   :                 _brush_color.red = _brush_color.green = _brush_color.blue = 0.6f;

	mov	rax, QWORD PTR this$[rsp]
	movss	xmm0, DWORD PTR __real@3f19999a
	movss	DWORD PTR [rax+468], xmm0
	mov	rax, QWORD PTR this$[rsp]
	movss	xmm0, DWORD PTR __real@3f19999a
	movss	DWORD PTR [rax+464], xmm0
	mov	rax, QWORD PTR this$[rsp]
	movss	xmm0, DWORD PTR __real@3f19999a
	movss	DWORD PTR [rax+460], xmm0

; 96   :                 break;

	jmp	$LN12@SetColor
$LN7@SetColor:

; 97   : 
; 98   :             case PF_App_Color_SHADOW:
; 99   :                 _brush_color.red = _brush_color.green = _brush_color.blue = 0.3f;

	mov	rax, QWORD PTR this$[rsp]
	movss	xmm0, DWORD PTR __real@3e99999a
	movss	DWORD PTR [rax+468], xmm0
	mov	rax, QWORD PTR this$[rsp]
	movss	xmm0, DWORD PTR __real@3e99999a
	movss	DWORD PTR [rax+464], xmm0
	mov	rax, QWORD PTR this$[rsp]
	movss	xmm0, DWORD PTR __real@3e99999a
	movss	DWORD PTR [rax+460], xmm0

; 100  :                 break;

	jmp	$LN12@SetColor
$LN6@SetColor:

; 101  : 
; 102  :             case PF_App_Color_HILITE:
; 103  :                 _brush_color.red = _brush_color.green = _brush_color.blue = 0.8f;

	mov	rax, QWORD PTR this$[rsp]
	movss	xmm0, DWORD PTR __real@3f4ccccd
	movss	DWORD PTR [rax+468], xmm0
	mov	rax, QWORD PTR this$[rsp]
	movss	xmm0, DWORD PTR __real@3f4ccccd
	movss	DWORD PTR [rax+464], xmm0
	mov	rax, QWORD PTR this$[rsp]
	movss	xmm0, DWORD PTR __real@3f4ccccd
	movss	DWORD PTR [rax+460], xmm0

; 104  :                 break;

	jmp	$LN12@SetColor
$LN5@SetColor:

; 105  : 
; 106  :             case PF_App_Color_LIGHT_TINGE:
; 107  :                 _brush_color.red = _brush_color.green = _brush_color.blue = 0.7f;

	mov	rax, QWORD PTR this$[rsp]
	movss	xmm0, DWORD PTR __real@3f333333
	movss	DWORD PTR [rax+468], xmm0
	mov	rax, QWORD PTR this$[rsp]
	movss	xmm0, DWORD PTR __real@3f333333
	movss	DWORD PTR [rax+464], xmm0
	mov	rax, QWORD PTR this$[rsp]
	movss	xmm0, DWORD PTR __real@3f333333
	movss	DWORD PTR [rax+460], xmm0

; 108  :                 break;

	jmp	$LN12@SetColor
$LN4@SetColor:

; 109  : 
; 110  :             case PF_App_Color_BUTTON_FILL:
; 111  :                 _brush_color.red = _brush_color.green = _brush_color.blue = 0.5f;

	mov	rax, QWORD PTR this$[rsp]
	movss	xmm0, DWORD PTR __real@3f000000
	movss	DWORD PTR [rax+468], xmm0
	mov	rax, QWORD PTR this$[rsp]
	movss	xmm0, DWORD PTR __real@3f000000
	movss	DWORD PTR [rax+464], xmm0
	mov	rax, QWORD PTR this$[rsp]
	movss	xmm0, DWORD PTR __real@3f000000
	movss	DWORD PTR [rax+460], xmm0

; 112  :                 break;

	jmp	$LN12@SetColor
$LN3@SetColor:

; 113  :                 
; 114  :             case PF_App_Color_BUTTON_PRESSED_FILL:
; 115  :                 _brush_color.red = _brush_color.green = _brush_color.blue = 0.3f;

	mov	rax, QWORD PTR this$[rsp]
	movss	xmm0, DWORD PTR __real@3e99999a
	movss	DWORD PTR [rax+468], xmm0
	mov	rax, QWORD PTR this$[rsp]
	movss	xmm0, DWORD PTR __real@3e99999a
	movss	DWORD PTR [rax+464], xmm0
	mov	rax, QWORD PTR this$[rsp]
	movss	xmm0, DWORD PTR __real@3e99999a
	movss	DWORD PTR [rax+460], xmm0

; 116  :                 break;

	jmp	$LN12@SetColor
$LN2@SetColor:

; 117  :             
; 118  :             case PF_App_Color_PANEL_BACKGROUND:
; 119  :                 {
; 120  :                     PF_App_Color app_color;
; 121  :                     suites.AppSuite()->PF_AppGetBgColor(&app_color);

	mov	rcx, QWORD PTR this$[rsp]
	call	?AppSuite@AEGP_SuiteHandler@@QEBAPEAUPFAppSuite4@@XZ ; AEGP_SuiteHandler::AppSuite
	lea	rcx, QWORD PTR app_color$21760[rsp]
	call	QWORD PTR [rax]

; 122  :                     
; 123  :                     _brush_color.red    = (float)app_color.red / (float)65535;

	movzx	r11d, WORD PTR app_color$21760[rsp]
	movd	xmm0, r11d
	cvtdq2ps xmm0, xmm0
	divss	xmm0, DWORD PTR __real@477fff00
	mov	rax, QWORD PTR this$[rsp]
	movss	DWORD PTR [rax+460], xmm0

; 124  :                     _brush_color.green  = (float)app_color.green / (float)65535;

	movzx	eax, WORD PTR app_color$21760[rsp+2]
	movd	xmm0, eax
	cvtdq2ps xmm0, xmm0
	divss	xmm0, DWORD PTR __real@477fff00
	mov	rax, QWORD PTR this$[rsp]
	movss	DWORD PTR [rax+464], xmm0

; 125  :                     _brush_color.blue   = (float)app_color.blue / (float)65535;

	movzx	eax, WORD PTR app_color$21760[rsp+4]
	movd	xmm0, eax
	cvtdq2ps xmm0, xmm0
	divss	xmm0, DWORD PTR __real@477fff00
	mov	rax, QWORD PTR this$[rsp]
	movss	DWORD PTR [rax+468], xmm0

; 126  :                 }
; 127  :                 break;

	jmp	SHORT $LN12@SetColor
$LN1@SetColor:

; 128  :             
; 129  :             default:
; 130  :                 _brush_color.red = _brush_color.green = _brush_color.blue = 0.9f;

	mov	rax, QWORD PTR this$[rsp]
	movss	xmm0, DWORD PTR __real@3f666666
	movss	DWORD PTR [rax+468], xmm0
	mov	rax, QWORD PTR this$[rsp]
	movss	xmm0, DWORD PTR __real@3f666666
	movss	DWORD PTR [rax+464], xmm0
	mov	rax, QWORD PTR this$[rsp]
	movss	xmm0, DWORD PTR __real@3f666666
	movss	DWORD PTR [rax+460], xmm0
$LN12@SetColor:
$LN14@SetColor:

; 131  :                 break;
; 132  :         }
; 133  :     }
; 134  :     
; 135  :     _brush_color.alpha  = a;

	mov	rax, QWORD PTR this$[rsp]
	movss	xmm0, DWORD PTR a$[rsp]
	movss	DWORD PTR [rax+472], xmm0

; 136  : }

	add	rsp, 72					; 00000048H
	ret	0
?SetColor@DrawbotBot@@QEAAXFM@Z ENDP			; DrawbotBot::SetColor
_TEXT	ENDS
PUBLIC	??_C@_0BA@OEHNFJMG@PF?5AE?5App?5Suite?$AA@	; `string'
;	COMDAT pdata
; File c:\users\brendan bolles\documents\development\proexr\src\aftereffects\fnord_suitehandler.h
pdata	SEGMENT
$pdata$?AppSuite@AEGP_SuiteHandler@@QEBAPEAUPFAppSuite4@@XZ DD imagerel $LN4
	DD	imagerel $LN4+79
	DD	imagerel $unwind$?AppSuite@AEGP_SuiteHandler@@QEBAPEAUPFAppSuite4@@XZ
pdata	ENDS
;	COMDAT xdata
xdata	SEGMENT
$unwind$?AppSuite@AEGP_SuiteHandler@@QEBAPEAUPFAppSuite4@@XZ DD 010901H
	DD	04209H
xdata	ENDS
;	COMDAT ??_C@_0BA@OEHNFJMG@PF?5AE?5App?5Suite?$AA@
CONST	SEGMENT
??_C@_0BA@OEHNFJMG@PF?5AE?5App?5Suite?$AA@ DB 'PF AE App Suite', 00H ; `string'
; Function compile flags: /Odtp
CONST	ENDS
;	COMDAT ?AppSuite@AEGP_SuiteHandler@@QEBAPEAUPFAppSuite4@@XZ
_TEXT	SEGMENT
this$ = 48
?AppSuite@AEGP_SuiteHandler@@QEBAPEAUPFAppSuite4@@XZ PROC ; AEGP_SuiteHandler::AppSuite, COMDAT

; 433  : 	AEGP_SUITE_ACCESS_BOILERPLATE(AppSuite, PFAppSuite, app_suiteP, kPFAppSuite, kPFAppSuiteVersion);

$LN4:
	mov	QWORD PTR [rsp+8], rcx
	sub	rsp, 40					; 00000028H
	mov	rax, QWORD PTR this$[rsp]
	cmp	QWORD PTR [rax+288], 0
	jne	SHORT $LN1@AppSuite
	mov	r8d, 6
	lea	rdx, OFFSET FLAT:??_C@_0BA@OEHNFJMG@PF?5AE?5App?5Suite?$AA@
	mov	rcx, QWORD PTR this$[rsp]
	call	?LoadSuite@AEGP_SuiteHandler@@AEBAPEAXPEADJ@Z ; AEGP_SuiteHandler::LoadSuite
	mov	r11, rax
	mov	rax, QWORD PTR this$[rsp]
	mov	QWORD PTR [rax+288], r11
$LN1@AppSuite:
	mov	rax, QWORD PTR this$[rsp]
	mov	rax, QWORD PTR [rax+288]
	add	rsp, 40					; 00000028H
	ret	0
?AppSuite@AEGP_SuiteHandler@@QEBAPEAUPFAppSuite4@@XZ ENDP ; AEGP_SuiteHandler::AppSuite
_TEXT	ENDS
PUBLIC	??1DRAWBOT_PathP@@UEAA@XZ			; DRAWBOT_PathP::~DRAWBOT_PathP
PUBLIC	??1DRAWBOT_PenP@@UEAA@XZ			; DRAWBOT_PenP::~DRAWBOT_PenP
PUBLIC	?MoveTo@DrawbotBot@@QEAAXMM@Z			; DrawbotBot::MoveTo
PUBLIC	?DBSurfaceSuite@AEGP_SuiteHandler@@QEBAPEAUDRAWBOT_SurfaceSuite1@@XZ ; AEGP_SuiteHandler::DBSurfaceSuite
PUBLIC	?Get@?$SharedRefImpl@PEAU_DRAWBOT_PenRef@@@@QEBAPEAU_DRAWBOT_PenRef@@XZ ; SharedRefImpl<_DRAWBOT_PenRef * __ptr64>::Get
PUBLIC	?DBPathSuite@AEGP_SuiteHandler@@QEBAPEAUDRAWBOT_PathSuite1@@XZ ; AEGP_SuiteHandler::DBPathSuite
PUBLIC	?Get@?$SharedRefImpl@PEAU_DRAWBOT_PathRef@@@@QEBAPEAU_DRAWBOT_PathRef@@XZ ; SharedRefImpl<_DRAWBOT_PathRef * __ptr64>::Get
PUBLIC	??0DRAWBOT_PenP@@QEAA@PEAUDRAWBOT_SupplierSuite1@@QEAU_DRAWBOT_SupplierRef@@PEBUDRAWBOT_ColorRGBA@@M@Z ; DRAWBOT_PenP::DRAWBOT_PenP
PUBLIC	??0DRAWBOT_PathP@@QEAA@PEAUDRAWBOT_SupplierSuite1@@QEAU_DRAWBOT_SupplierRef@@@Z ; DRAWBOT_PathP::DRAWBOT_PathP
PUBLIC	?DrawLineTo@DrawbotBot@@QEAAXMMM@Z		; DrawbotBot::DrawLineTo
pdata	SEGMENT
$pdata$?DrawLineTo@DrawbotBot@@QEAAXMMM@Z DD imagerel $LN5
	DD	imagerel $LN5+390
	DD	imagerel $unwind$?DrawLineTo@DrawbotBot@@QEAAXMMM@Z
pdata	ENDS
pdata	SEGMENT
$pdata$?dtor$0@?0??DrawLineTo@DrawbotBot@@QEAAXMMM@Z@4HA DD imagerel ?dtor$0@?0??DrawLineTo@DrawbotBot@@QEAAXMMM@Z@4HA
	DD	imagerel ?dtor$0@?0??DrawLineTo@DrawbotBot@@QEAAXMMM@Z@4HA+24
	DD	imagerel $unwind$?dtor$0@?0??DrawLineTo@DrawbotBot@@QEAAXMMM@Z@4HA
$pdata$?dtor$1@?0??DrawLineTo@DrawbotBot@@QEAAXMMM@Z@4HA DD imagerel ?dtor$1@?0??DrawLineTo@DrawbotBot@@QEAAXMMM@Z@4HA
	DD	imagerel ?dtor$1@?0??DrawLineTo@DrawbotBot@@QEAAXMMM@Z@4HA+24
	DD	imagerel $unwind$?dtor$1@?0??DrawLineTo@DrawbotBot@@QEAAXMMM@Z@4HA
pdata	ENDS
CONST	SEGMENT
$cppxdata$?DrawLineTo@DrawbotBot@@QEAAXMMM@Z DD 019930522H
	DD	02H
	DD	imagerel $stateUnwindMap$?DrawLineTo@DrawbotBot@@QEAAXMMM@Z
	DD	00H
	DD	00H
	DD	05H
	DD	imagerel $ip2state$?DrawLineTo@DrawbotBot@@QEAAXMMM@Z
	DD	060H
	DD	00H
	DD	01H
CONST	ENDS
xdata	SEGMENT
$stateUnwindMap$?DrawLineTo@DrawbotBot@@QEAAXMMM@Z DD 0ffffffffH
	DD	imagerel ?dtor$0@?0??DrawLineTo@DrawbotBot@@QEAAXMMM@Z@4HA
	DD	00H
	DD	imagerel ?dtor$1@?0??DrawLineTo@DrawbotBot@@QEAAXMMM@Z@4HA
$unwind$?DrawLineTo@DrawbotBot@@QEAAXMMM@Z DD 032611H
	DD	07019e21dH
	DD	03018H
	DD	imagerel __CxxFrameHandler3
	DD	imagerel $cppxdata$?DrawLineTo@DrawbotBot@@QEAAXMMM@Z
$unwind$?dtor$0@?0??DrawLineTo@DrawbotBot@@QEAAXMMM@Z@4HA DD 020601H
	DD	050023206H
$unwind$?dtor$1@?0??DrawLineTo@DrawbotBot@@QEAAXMMM@Z@4HA DD 020601H
	DD	050023206H
$ip2state$?DrawLineTo@DrawbotBot@@QEAAXMMM@Z DD imagerel ?DrawLineTo@DrawbotBot@@QEAAXMMM@Z
	DD	0ffffffffH
	DD	imagerel ?DrawLineTo@DrawbotBot@@QEAAXMMM@Z+79
	DD	00H
	DD	imagerel ?DrawLineTo@DrawbotBot@@QEAAXMMM@Z+150
	DD	01H
	DD	imagerel ?DrawLineTo@DrawbotBot@@QEAAXMMM@Z+362
	DD	00H
	DD	imagerel ?DrawLineTo@DrawbotBot@@QEAAXMMM@Z+373
	DD	0ffffffffH
; Function compile flags: /Odtp
; File c:\users\brendan bolles\documents\development\proexr\src\aftereffects\drawbotbot.cpp
xdata	ENDS
_TEXT	SEGMENT
pathP$ = 48
penP$ = 72
$T22407 = 96
this$ = 144
x$ = 152
y$ = 160
brush_size$ = 168
?DrawLineTo@DrawbotBot@@QEAAXMMM@Z PROC			; DrawbotBot::DrawLineTo

; 140  : {

$LN5:
	movss	DWORD PTR [rsp+32], xmm3
	movss	DWORD PTR [rsp+24], xmm2
	movss	DWORD PTR [rsp+16], xmm1
	mov	QWORD PTR [rsp+8], rcx
	push	rbx
	push	rdi
	sub	rsp, 120				; 00000078H
	mov	QWORD PTR $T22407[rsp], -2

; 141  :     DRAWBOT_PathP pathP(_suiteP, _supplier_ref);

	mov	r8, QWORD PTR this$[rsp]
	mov	r8, QWORD PTR [r8+436]
	mov	rdx, QWORD PTR this$[rsp]
	mov	rdx, QWORD PTR [rdx+420]
	lea	rcx, QWORD PTR pathP$[rsp]
	call	??0DRAWBOT_PathP@@QEAA@PEAUDRAWBOT_SupplierSuite1@@QEAU_DRAWBOT_SupplierRef@@@Z ; DRAWBOT_PathP::DRAWBOT_PathP
	npad	1

; 142  :     DRAWBOT_PenP penP(_suiteP, _supplier_ref, &_brush_color, brush_size);

	mov	r9, QWORD PTR this$[rsp]
	add	r9, 460					; 000001ccH
	movss	xmm0, DWORD PTR brush_size$[rsp]
	movss	DWORD PTR [rsp+32], xmm0
	mov	r8, QWORD PTR this$[rsp]
	mov	r8, QWORD PTR [r8+436]
	mov	rdx, QWORD PTR this$[rsp]
	mov	rdx, QWORD PTR [rdx+420]
	lea	rcx, QWORD PTR penP$[rsp]
	call	??0DRAWBOT_PenP@@QEAA@PEAUDRAWBOT_SupplierSuite1@@QEAU_DRAWBOT_SupplierRef@@PEBUDRAWBOT_ColorRGBA@@M@Z ; DRAWBOT_PenP::DRAWBOT_PenP
	npad	1

; 143  :     
; 144  :     suites.DBPathSuite()->MoveTo(pathP.Get(), _brush_pos.x, _brush_pos.y);

	lea	rcx, QWORD PTR pathP$[rsp]
	call	?Get@?$SharedRefImpl@PEAU_DRAWBOT_PathRef@@@@QEBAPEAU_DRAWBOT_PathRef@@XZ ; SharedRefImpl<_DRAWBOT_PathRef * __ptr64>::Get
	mov	rbx, rax
	mov	rcx, QWORD PTR this$[rsp]
	call	?DBPathSuite@AEGP_SuiteHandler@@QEBAPEAUDRAWBOT_PathSuite1@@XZ ; AEGP_SuiteHandler::DBPathSuite
	mov	r11, rax
	mov	rax, QWORD PTR this$[rsp]
	movss	xmm2, DWORD PTR [rax+456]
	mov	rax, QWORD PTR this$[rsp]
	movss	xmm1, DWORD PTR [rax+452]
	mov	rcx, rbx
	call	QWORD PTR [r11]

; 145  :     
; 146  :     suites.DBPathSuite()->LineTo(pathP.Get(), x, y);

	lea	rcx, QWORD PTR pathP$[rsp]
	call	?Get@?$SharedRefImpl@PEAU_DRAWBOT_PathRef@@@@QEBAPEAU_DRAWBOT_PathRef@@XZ ; SharedRefImpl<_DRAWBOT_PathRef * __ptr64>::Get
	mov	rbx, rax
	mov	rcx, QWORD PTR this$[rsp]
	call	?DBPathSuite@AEGP_SuiteHandler@@QEBAPEAUDRAWBOT_PathSuite1@@XZ ; AEGP_SuiteHandler::DBPathSuite
	movss	xmm2, DWORD PTR y$[rsp]
	movss	xmm1, DWORD PTR x$[rsp]
	mov	rcx, rbx
	call	QWORD PTR [rax+8]

; 147  :     
; 148  :     suites.DBSurfaceSuite()->StrokePath(_surface_ref, penP.Get(), pathP.Get());

	lea	rcx, QWORD PTR pathP$[rsp]
	call	?Get@?$SharedRefImpl@PEAU_DRAWBOT_PathRef@@@@QEBAPEAU_DRAWBOT_PathRef@@XZ ; SharedRefImpl<_DRAWBOT_PathRef * __ptr64>::Get
	mov	rdi, rax
	lea	rcx, QWORD PTR penP$[rsp]
	call	?Get@?$SharedRefImpl@PEAU_DRAWBOT_PenRef@@@@QEBAPEAU_DRAWBOT_PenRef@@XZ ; SharedRefImpl<_DRAWBOT_PenRef * __ptr64>::Get
	mov	rbx, rax
	mov	rcx, QWORD PTR this$[rsp]
	call	?DBSurfaceSuite@AEGP_SuiteHandler@@QEBAPEAUDRAWBOT_SurfaceSuite1@@XZ ; AEGP_SuiteHandler::DBSurfaceSuite
	mov	r8, rdi
	mov	rdx, rbx
	mov	rcx, QWORD PTR this$[rsp]
	mov	rcx, QWORD PTR [rcx+444]
	call	QWORD PTR [rax+32]

; 149  :     
; 150  :     MoveTo(x, y);

	movss	xmm2, DWORD PTR y$[rsp]
	movss	xmm1, DWORD PTR x$[rsp]
	mov	rcx, QWORD PTR this$[rsp]
	call	?MoveTo@DrawbotBot@@QEAAXMM@Z		; DrawbotBot::MoveTo
	npad	1

; 151  : }

	lea	rcx, QWORD PTR penP$[rsp]
	call	??1DRAWBOT_PenP@@UEAA@XZ
	npad	1
	lea	rcx, QWORD PTR pathP$[rsp]
	call	??1DRAWBOT_PathP@@UEAA@XZ
	add	rsp, 120				; 00000078H
	pop	rdi
	pop	rbx
	ret	0
?DrawLineTo@DrawbotBot@@QEAAXMMM@Z ENDP			; DrawbotBot::DrawLineTo
; Function compile flags: /Odtp
_TEXT	ENDS
text$x	SEGMENT
pathP$ = 48
penP$ = 72
$T22407 = 96
this$ = 144
x$ = 152
y$ = 160
brush_size$ = 168
?dtor$0@?0??DrawLineTo@DrawbotBot@@QEAAXMMM@Z@4HA PROC	; `DrawbotBot::DrawLineTo'::`1'::dtor$0
	push	rbp
	sub	rsp, 32					; 00000020H
	mov	rbp, rdx
	lea	rcx, QWORD PTR pathP$[rbp]
	call	??1DRAWBOT_PathP@@UEAA@XZ
	add	rsp, 32					; 00000020H
	pop	rbp
	ret	0
?dtor$0@?0??DrawLineTo@DrawbotBot@@QEAAXMMM@Z@4HA ENDP	; `DrawbotBot::DrawLineTo'::`1'::dtor$0
; Function compile flags: /Odtp
pathP$ = 48
penP$ = 72
$T22407 = 96
this$ = 144
x$ = 152
y$ = 160
brush_size$ = 168
?dtor$1@?0??DrawLineTo@DrawbotBot@@QEAAXMMM@Z@4HA PROC	; `DrawbotBot::DrawLineTo'::`1'::dtor$1
	push	rbp
	sub	rsp, 32					; 00000020H
	mov	rbp, rdx
	lea	rcx, QWORD PTR penP$[rbp]
	call	??1DRAWBOT_PenP@@UEAA@XZ
	add	rsp, 32					; 00000020H
	pop	rbp
	ret	0
?dtor$1@?0??DrawLineTo@DrawbotBot@@QEAAXMMM@Z@4HA ENDP	; `DrawbotBot::DrawLineTo'::`1'::dtor$1
text$x	ENDS
PUBLIC	??1?$SharedRefImpl@PEAU_DRAWBOT_PenRef@@@@UEAA@XZ ; SharedRefImpl<_DRAWBOT_PenRef * __ptr64>::~SharedRefImpl<_DRAWBOT_PenRef * __ptr64>
PUBLIC	?New@DRAWBOT_PenP@@QEAAXPEAUDRAWBOT_SupplierSuite1@@QEAU_DRAWBOT_SupplierRef@@PEBUDRAWBOT_ColorRGBA@@M@Z ; DRAWBOT_PenP::New
PUBLIC	??_7DRAWBOT_PenP@@6B@				; DRAWBOT_PenP::`vftable'
PUBLIC	??0?$SharedRefImpl@PEAU_DRAWBOT_PenRef@@@@QEAA@PEAUDRAWBOT_SupplierSuite1@@PEAU_DRAWBOT_PenRef@@_N@Z ; SharedRefImpl<_DRAWBOT_PenRef * __ptr64>::SharedRefImpl<_DRAWBOT_PenRef * __ptr64>
PUBLIC	??_R4DRAWBOT_PenP@@6B@				; DRAWBOT_PenP::`RTTI Complete Object Locator'
PUBLIC	??_R0?AVDRAWBOT_PenP@@@8			; DRAWBOT_PenP `RTTI Type Descriptor'
PUBLIC	??_R3DRAWBOT_PenP@@8				; DRAWBOT_PenP::`RTTI Class Hierarchy Descriptor'
PUBLIC	??_R2DRAWBOT_PenP@@8				; DRAWBOT_PenP::`RTTI Base Class Array'
PUBLIC	??_R1A@?0A@EA@DRAWBOT_PenP@@8			; DRAWBOT_PenP::`RTTI Base Class Descriptor at (0,-1,0,64)'
PUBLIC	??_R1A@?0A@EA@?$SharedRefImpl@PEAU_DRAWBOT_PenRef@@@@8 ; SharedRefImpl<_DRAWBOT_PenRef * __ptr64>::`RTTI Base Class Descriptor at (0,-1,0,64)'
PUBLIC	??_R0?AV?$SharedRefImpl@PEAU_DRAWBOT_PenRef@@@@@8 ; SharedRefImpl<_DRAWBOT_PenRef * __ptr64> `RTTI Type Descriptor'
PUBLIC	??_R3?$SharedRefImpl@PEAU_DRAWBOT_PenRef@@@@8	; SharedRefImpl<_DRAWBOT_PenRef * __ptr64>::`RTTI Class Hierarchy Descriptor'
PUBLIC	??_R2?$SharedRefImpl@PEAU_DRAWBOT_PenRef@@@@8	; SharedRefImpl<_DRAWBOT_PenRef * __ptr64>::`RTTI Base Class Array'
EXTRN	??_7type_info@@6B@:BYTE				; type_info::`vftable'
EXTRN	??_EDRAWBOT_PenP@@UEAAPEAXI@Z:PROC		; DRAWBOT_PenP::`vector deleting destructor'
;	COMDAT pdata
; File c:\users\brendan bolles\documents\development\proexr\ext\adobe after effects cc 2015 win sdk\examples\headers\adobesdk\drawbotsuite.h
pdata	SEGMENT
$pdata$??0DRAWBOT_PenP@@QEAA@PEAUDRAWBOT_SupplierSuite1@@QEAU_DRAWBOT_SupplierRef@@PEBUDRAWBOT_ColorRGBA@@M@Z DD imagerel $LN4
	DD	imagerel $LN4+118
	DD	imagerel $unwind$??0DRAWBOT_PenP@@QEAA@PEAUDRAWBOT_SupplierSuite1@@QEAU_DRAWBOT_SupplierRef@@PEBUDRAWBOT_ColorRGBA@@M@Z
pdata	ENDS
;	COMDAT pdata
pdata	SEGMENT
$pdata$?dtor$0@?0???0DRAWBOT_PenP@@QEAA@PEAUDRAWBOT_SupplierSuite1@@QEAU_DRAWBOT_SupplierRef@@PEBUDRAWBOT_ColorRGBA@@M@Z@4HA DD imagerel ?dtor$0@?0???0DRAWBOT_PenP@@QEAA@PEAUDRAWBOT_SupplierSuite1@@QEAU_DRAWBOT_SupplierRef@@PEBUDRAWBOT_ColorRGBA@@M@Z@4HA
	DD	imagerel ?dtor$0@?0???0DRAWBOT_PenP@@QEAA@PEAUDRAWBOT_SupplierSuite1@@QEAU_DRAWBOT_SupplierRef@@PEBUDRAWBOT_ColorRGBA@@M@Z@4HA+24
	DD	imagerel $unwind$?dtor$0@?0???0DRAWBOT_PenP@@QEAA@PEAUDRAWBOT_SupplierSuite1@@QEAU_DRAWBOT_SupplierRef@@PEBUDRAWBOT_ColorRGBA@@M@Z@4HA
pdata	ENDS
;	COMDAT xdata
xdata	SEGMENT
$ip2state$??0DRAWBOT_PenP@@QEAA@PEAUDRAWBOT_SupplierSuite1@@QEAU_DRAWBOT_SupplierRef@@PEBUDRAWBOT_ColorRGBA@@M@Z DD imagerel ??0DRAWBOT_PenP@@QEAA@PEAUDRAWBOT_SupplierSuite1@@QEAU_DRAWBOT_SupplierRef@@PEBUDRAWBOT_ColorRGBA@@M@Z
	DD	0ffffffffH
	DD	imagerel ??0DRAWBOT_PenP@@QEAA@PEAUDRAWBOT_SupplierSuite1@@QEAU_DRAWBOT_SupplierRef@@PEBUDRAWBOT_ColorRGBA@@M@Z+55
	DD	00H
	DD	imagerel ??0DRAWBOT_PenP@@QEAA@PEAUDRAWBOT_SupplierSuite1@@QEAU_DRAWBOT_SupplierRef@@PEBUDRAWBOT_ColorRGBA@@M@Z+108
	DD	0ffffffffH
xdata	ENDS
;	COMDAT ??_R2?$SharedRefImpl@PEAU_DRAWBOT_PenRef@@@@8
rdata$r	SEGMENT
??_R2?$SharedRefImpl@PEAU_DRAWBOT_PenRef@@@@8 DD imagerel ??_R1A@?0A@EA@?$SharedRefImpl@PEAU_DRAWBOT_PenRef@@@@8 ; SharedRefImpl<_DRAWBOT_PenRef * __ptr64>::`RTTI Base Class Array'
	ORG $+3
rdata$r	ENDS
;	COMDAT ??_R3?$SharedRefImpl@PEAU_DRAWBOT_PenRef@@@@8
rdata$r	SEGMENT
??_R3?$SharedRefImpl@PEAU_DRAWBOT_PenRef@@@@8 DD 00H	; SharedRefImpl<_DRAWBOT_PenRef * __ptr64>::`RTTI Class Hierarchy Descriptor'
	DD	00H
	DD	01H
	DD	imagerel ??_R2?$SharedRefImpl@PEAU_DRAWBOT_PenRef@@@@8
rdata$r	ENDS
;	COMDAT ??_R0?AV?$SharedRefImpl@PEAU_DRAWBOT_PenRef@@@@@8
_DATA	SEGMENT
??_R0?AV?$SharedRefImpl@PEAU_DRAWBOT_PenRef@@@@@8 DQ FLAT:??_7type_info@@6B@ ; SharedRefImpl<_DRAWBOT_PenRef * __ptr64> `RTTI Type Descriptor'
	DQ	0000000000000000H
	DB	'.?AV?$SharedRefImpl@PEAU_DRAWBOT_PenRef@@@@', 00H
_DATA	ENDS
;	COMDAT ??_R1A@?0A@EA@?$SharedRefImpl@PEAU_DRAWBOT_PenRef@@@@8
rdata$r	SEGMENT
??_R1A@?0A@EA@?$SharedRefImpl@PEAU_DRAWBOT_PenRef@@@@8 DD imagerel ??_R0?AV?$SharedRefImpl@PEAU_DRAWBOT_PenRef@@@@@8 ; SharedRefImpl<_DRAWBOT_PenRef * __ptr64>::`RTTI Base Class Descriptor at (0,-1,0,64)'
	DD	00H
	DD	00H
	DD	0ffffffffH
	DD	00H
	DD	040H
	DD	imagerel ??_R3?$SharedRefImpl@PEAU_DRAWBOT_PenRef@@@@8
rdata$r	ENDS
;	COMDAT ??_R1A@?0A@EA@DRAWBOT_PenP@@8
rdata$r	SEGMENT
??_R1A@?0A@EA@DRAWBOT_PenP@@8 DD imagerel ??_R0?AVDRAWBOT_PenP@@@8 ; DRAWBOT_PenP::`RTTI Base Class Descriptor at (0,-1,0,64)'
	DD	01H
	DD	00H
	DD	0ffffffffH
	DD	00H
	DD	040H
	DD	imagerel ??_R3DRAWBOT_PenP@@8
rdata$r	ENDS
;	COMDAT ??_R2DRAWBOT_PenP@@8
rdata$r	SEGMENT
??_R2DRAWBOT_PenP@@8 DD imagerel ??_R1A@?0A@EA@DRAWBOT_PenP@@8 ; DRAWBOT_PenP::`RTTI Base Class Array'
	DD	imagerel ??_R1A@?0A@EA@?$SharedRefImpl@PEAU_DRAWBOT_PenRef@@@@8
	ORG $+3
rdata$r	ENDS
;	COMDAT ??_R3DRAWBOT_PenP@@8
rdata$r	SEGMENT
??_R3DRAWBOT_PenP@@8 DD 00H				; DRAWBOT_PenP::`RTTI Class Hierarchy Descriptor'
	DD	00H
	DD	02H
	DD	imagerel ??_R2DRAWBOT_PenP@@8
rdata$r	ENDS
;	COMDAT ??_R0?AVDRAWBOT_PenP@@@8
_DATA	SEGMENT
??_R0?AVDRAWBOT_PenP@@@8 DQ FLAT:??_7type_info@@6B@	; DRAWBOT_PenP `RTTI Type Descriptor'
	DQ	0000000000000000H
	DB	'.?AVDRAWBOT_PenP@@', 00H
_DATA	ENDS
;	COMDAT ??_R4DRAWBOT_PenP@@6B@
rdata$r	SEGMENT
??_R4DRAWBOT_PenP@@6B@ DD 01H				; DRAWBOT_PenP::`RTTI Complete Object Locator'
	DD	00H
	DD	00H
	DD	imagerel ??_R0?AVDRAWBOT_PenP@@@8
	DD	imagerel ??_R3DRAWBOT_PenP@@8
	DD	imagerel ??_R4DRAWBOT_PenP@@6B@
rdata$r	ENDS
;	COMDAT xdata
xdata	SEGMENT
$unwind$?dtor$0@?0???0DRAWBOT_PenP@@QEAA@PEAUDRAWBOT_SupplierSuite1@@QEAU_DRAWBOT_SupplierRef@@PEBUDRAWBOT_ColorRGBA@@M@Z@4HA DD 020601H
	DD	050023206H
xdata	ENDS
;	COMDAT xdata
xdata	SEGMENT
$unwind$??0DRAWBOT_PenP@@QEAA@PEAUDRAWBOT_SupplierSuite1@@QEAU_DRAWBOT_SupplierRef@@PEBUDRAWBOT_ColorRGBA@@M@Z DD 012111H
	DD	08218H
	DD	imagerel __CxxFrameHandler3
	DD	imagerel $cppxdata$??0DRAWBOT_PenP@@QEAA@PEAUDRAWBOT_SupplierSuite1@@QEAU_DRAWBOT_SupplierRef@@PEBUDRAWBOT_ColorRGBA@@M@Z
xdata	ENDS
;	COMDAT CONST
CONST	SEGMENT
$cppxdata$??0DRAWBOT_PenP@@QEAA@PEAUDRAWBOT_SupplierSuite1@@QEAU_DRAWBOT_SupplierRef@@PEBUDRAWBOT_ColorRGBA@@M@Z DD 019930522H
	DD	01H
	DD	imagerel $stateUnwindMap$??0DRAWBOT_PenP@@QEAA@PEAUDRAWBOT_SupplierSuite1@@QEAU_DRAWBOT_SupplierRef@@PEBUDRAWBOT_ColorRGBA@@M@Z
	DD	00H
	DD	00H
	DD	03H
	DD	imagerel $ip2state$??0DRAWBOT_PenP@@QEAA@PEAUDRAWBOT_SupplierSuite1@@QEAU_DRAWBOT_SupplierRef@@PEBUDRAWBOT_ColorRGBA@@M@Z
	DD	030H
	DD	00H
	DD	01H
CONST	ENDS
;	COMDAT xdata
xdata	SEGMENT
$stateUnwindMap$??0DRAWBOT_PenP@@QEAA@PEAUDRAWBOT_SupplierSuite1@@QEAU_DRAWBOT_SupplierRef@@PEBUDRAWBOT_ColorRGBA@@M@Z DD 0ffffffffH
	DD	imagerel ?dtor$0@?0???0DRAWBOT_PenP@@QEAA@PEAUDRAWBOT_SupplierSuite1@@QEAU_DRAWBOT_SupplierRef@@PEBUDRAWBOT_ColorRGBA@@M@Z@4HA
xdata	ENDS
;	COMDAT ??_7DRAWBOT_PenP@@6B@
CONST	SEGMENT
??_7DRAWBOT_PenP@@6B@ DQ FLAT:??_R4DRAWBOT_PenP@@6B@	; DRAWBOT_PenP::`vftable'
	DQ	FLAT:??_EDRAWBOT_PenP@@UEAAPEAXI@Z
; Function compile flags: /Odtp
CONST	ENDS
;	COMDAT ??0DRAWBOT_PenP@@QEAA@PEAUDRAWBOT_SupplierSuite1@@QEAU_DRAWBOT_SupplierRef@@PEBUDRAWBOT_ColorRGBA@@M@Z
_TEXT	SEGMENT
$T22424 = 48
this$ = 80
suiteP$ = 88
supplier_ref$ = 96
colorP$ = 104
sizeF$ = 112
??0DRAWBOT_PenP@@QEAA@PEAUDRAWBOT_SupplierSuite1@@QEAU_DRAWBOT_SupplierRef@@PEBUDRAWBOT_ColorRGBA@@M@Z PROC ; DRAWBOT_PenP::DRAWBOT_PenP, COMDAT

; 536  : 	{

$LN4:
	mov	QWORD PTR [rsp+32], r9
	mov	QWORD PTR [rsp+24], r8
	mov	QWORD PTR [rsp+16], rdx
	mov	QWORD PTR [rsp+8], rcx
	sub	rsp, 72					; 00000048H
	mov	QWORD PTR $T22424[rsp], -2
	mov	r9b, 1
	xor	r8d, r8d
	mov	rdx, QWORD PTR suiteP$[rsp]
	mov	rcx, QWORD PTR this$[rsp]
	call	??0?$SharedRefImpl@PEAU_DRAWBOT_PenRef@@@@QEAA@PEAUDRAWBOT_SupplierSuite1@@PEAU_DRAWBOT_PenRef@@_N@Z ; SharedRefImpl<_DRAWBOT_PenRef * __ptr64>::SharedRefImpl<_DRAWBOT_PenRef * __ptr64>
	npad	1
	mov	rcx, QWORD PTR this$[rsp]
	lea	rax, OFFSET FLAT:??_7DRAWBOT_PenP@@6B@
	mov	QWORD PTR [rcx], rax

; 537  : 		New(suiteP, supplier_ref, colorP, sizeF);

	movss	xmm0, DWORD PTR sizeF$[rsp]
	movss	DWORD PTR [rsp+32], xmm0
	mov	r9, QWORD PTR colorP$[rsp]
	mov	r8, QWORD PTR supplier_ref$[rsp]
	mov	rdx, QWORD PTR suiteP$[rsp]
	mov	rcx, QWORD PTR this$[rsp]
	call	?New@DRAWBOT_PenP@@QEAAXPEAUDRAWBOT_SupplierSuite1@@QEAU_DRAWBOT_SupplierRef@@PEBUDRAWBOT_ColorRGBA@@M@Z ; DRAWBOT_PenP::New
	npad	1

; 538  : 	}

	mov	rax, QWORD PTR this$[rsp]
	add	rsp, 72					; 00000048H
	ret	0
??0DRAWBOT_PenP@@QEAA@PEAUDRAWBOT_SupplierSuite1@@QEAU_DRAWBOT_SupplierRef@@PEBUDRAWBOT_ColorRGBA@@M@Z ENDP ; DRAWBOT_PenP::DRAWBOT_PenP
; Function compile flags: /Odtp
_TEXT	ENDS
;	COMDAT text$x
text$x	SEGMENT
$T22424 = 48
this$ = 80
suiteP$ = 88
supplier_ref$ = 96
colorP$ = 104
sizeF$ = 112
?dtor$0@?0???0DRAWBOT_PenP@@QEAA@PEAUDRAWBOT_SupplierSuite1@@QEAU_DRAWBOT_SupplierRef@@PEBUDRAWBOT_ColorRGBA@@M@Z@4HA PROC ; `DRAWBOT_PenP::DRAWBOT_PenP'::`1'::dtor$0
	push	rbp
	sub	rsp, 32					; 00000020H
	mov	rbp, rdx
	mov	rcx, QWORD PTR this$[rbp]
	call	??1?$SharedRefImpl@PEAU_DRAWBOT_PenRef@@@@UEAA@XZ ; SharedRefImpl<_DRAWBOT_PenRef * __ptr64>::~SharedRefImpl<_DRAWBOT_PenRef * __ptr64>
	add	rsp, 32					; 00000020H
	pop	rbp
	ret	0
?dtor$0@?0???0DRAWBOT_PenP@@QEAA@PEAUDRAWBOT_SupplierSuite1@@QEAU_DRAWBOT_SupplierRef@@PEBUDRAWBOT_ColorRGBA@@M@Z@4HA ENDP ; `DRAWBOT_PenP::DRAWBOT_PenP'::`1'::dtor$0
text$x	ENDS
PUBLIC	?Reset@?$SharedRefImpl@PEAU_DRAWBOT_PenRef@@@@QEAAXPEAU_DRAWBOT_PenRef@@_N@Z ; SharedRefImpl<_DRAWBOT_PenRef * __ptr64>::Reset
PUBLIC	_TI2?AVDRAWBOT_Exception@@
PUBLIC	??0DRAWBOT_Exception@@QEAA@H@Z			; DRAWBOT_Exception::DRAWBOT_Exception
PUBLIC	??1DRAWBOT_Exception@@UEAA@XZ			; DRAWBOT_Exception::~DRAWBOT_Exception
PUBLIC	_CTA2?AVDRAWBOT_Exception@@
PUBLIC	_CT??_R0?AVDRAWBOT_Exception@@@8??0DRAWBOT_Exception@@QEAA@AEBV0@@Z32
PUBLIC	??_R0?AVDRAWBOT_Exception@@@8			; DRAWBOT_Exception `RTTI Type Descriptor'
PUBLIC	??0DRAWBOT_Exception@@QEAA@AEBV0@@Z		; DRAWBOT_Exception::DRAWBOT_Exception
PUBLIC	_CT??_R0?AVexception@std@@@8??0exception@std@@QEAA@AEBV01@@Z24
PUBLIC	??_R0?AVexception@std@@@8			; std::exception `RTTI Type Descriptor'
EXTRN	_CxxThrowException:PROC
EXTRN	??0exception@std@@QEAA@AEBV01@@Z:PROC		; std::exception::exception
;	COMDAT pdata
pdata	SEGMENT
$pdata$?New@DRAWBOT_PenP@@QEAAXPEAUDRAWBOT_SupplierSuite1@@QEAU_DRAWBOT_SupplierRef@@PEBUDRAWBOT_ColorRGBA@@M@Z DD imagerel $LN4
	DD	imagerel $LN4+120
	DD	imagerel $unwind$?New@DRAWBOT_PenP@@QEAAXPEAUDRAWBOT_SupplierSuite1@@QEAU_DRAWBOT_SupplierRef@@PEBUDRAWBOT_ColorRGBA@@M@Z
pdata	ENDS
;	COMDAT ??_R0?AVexception@std@@@8
_DATA	SEGMENT
??_R0?AVexception@std@@@8 DQ FLAT:??_7type_info@@6B@	; std::exception `RTTI Type Descriptor'
	DQ	0000000000000000H
	DB	'.?AVexception@std@@', 00H
_DATA	ENDS
;	COMDAT _CT??_R0?AVexception@std@@@8??0exception@std@@QEAA@AEBV01@@Z24
xdata$x	SEGMENT
_CT??_R0?AVexception@std@@@8??0exception@std@@QEAA@AEBV01@@Z24 DD 00H
	DD	imagerel ??_R0?AVexception@std@@@8
	DD	00H
	DD	0ffffffffH
	ORG $+4
	DD	018H
	DD	imagerel __imp_??0exception@std@@QEAA@AEBV01@@Z
xdata$x	ENDS
;	COMDAT ??_R0?AVDRAWBOT_Exception@@@8
_DATA	SEGMENT
??_R0?AVDRAWBOT_Exception@@@8 DQ FLAT:??_7type_info@@6B@ ; DRAWBOT_Exception `RTTI Type Descriptor'
	DQ	0000000000000000H
	DB	'.?AVDRAWBOT_Exception@@', 00H
_DATA	ENDS
;	COMDAT _CT??_R0?AVDRAWBOT_Exception@@@8??0DRAWBOT_Exception@@QEAA@AEBV0@@Z32
xdata$x	SEGMENT
_CT??_R0?AVDRAWBOT_Exception@@@8??0DRAWBOT_Exception@@QEAA@AEBV0@@Z32 DD 00H
	DD	imagerel ??_R0?AVDRAWBOT_Exception@@@8
	DD	00H
	DD	0ffffffffH
	ORG $+4
	DD	020H
	DD	imagerel ??0DRAWBOT_Exception@@QEAA@AEBV0@@Z
xdata$x	ENDS
;	COMDAT _CTA2?AVDRAWBOT_Exception@@
xdata$x	SEGMENT
_CTA2?AVDRAWBOT_Exception@@ DD 02H
	DD	imagerel _CT??_R0?AVDRAWBOT_Exception@@@8??0DRAWBOT_Exception@@QEAA@AEBV0@@Z32
	DD	imagerel _CT??_R0?AVexception@std@@@8??0exception@std@@QEAA@AEBV01@@Z24
xdata$x	ENDS
;	COMDAT xdata
xdata	SEGMENT
$unwind$?New@DRAWBOT_PenP@@QEAAXPEAUDRAWBOT_SupplierSuite1@@QEAU_DRAWBOT_SupplierRef@@PEBUDRAWBOT_ColorRGBA@@M@Z DD 011801H
	DD	0a218H
xdata	ENDS
;	COMDAT _TI2?AVDRAWBOT_Exception@@
xdata$x	SEGMENT
_TI2?AVDRAWBOT_Exception@@ DD 00H
	DD	imagerel ??1DRAWBOT_Exception@@UEAA@XZ
	DD	00H
	DD	imagerel _CTA2?AVDRAWBOT_Exception@@
; Function compile flags: /Odtp
xdata$x	ENDS
;	COMDAT ?New@DRAWBOT_PenP@@QEAAXPEAUDRAWBOT_SupplierSuite1@@QEAU_DRAWBOT_SupplierRef@@PEBUDRAWBOT_ColorRGBA@@M@Z
_TEXT	SEGMENT
pen_ref$ = 32
_err$20884 = 40
$T22442 = 48
this$ = 96
suiteP$ = 104
supplier_ref$ = 112
colorP$ = 120
sizeF$ = 128
?New@DRAWBOT_PenP@@QEAAXPEAUDRAWBOT_SupplierSuite1@@QEAU_DRAWBOT_SupplierRef@@PEBUDRAWBOT_ColorRGBA@@M@Z PROC ; DRAWBOT_PenP::New, COMDAT

; 544  : 	{

$LN4:
	mov	QWORD PTR [rsp+32], r9
	mov	QWORD PTR [rsp+24], r8
	mov	QWORD PTR [rsp+16], rdx
	mov	QWORD PTR [rsp+8], rcx
	sub	rsp, 88					; 00000058H

; 545  : 		DRAWBOT_PenRef	pen_ref;
; 546  : 
; 547  : 		DRAWBOT_ErrorToException(suiteP->NewPen(supplier_ref, colorP, sizeF, &pen_ref));

	lea	r9, QWORD PTR pen_ref$[rsp]
	movss	xmm2, DWORD PTR sizeF$[rsp]
	mov	rdx, QWORD PTR colorP$[rsp]
	mov	rcx, QWORD PTR supplier_ref$[rsp]
	mov	rax, QWORD PTR suiteP$[rsp]
	call	QWORD PTR [rax]
	mov	DWORD PTR _err$20884[rsp], eax
	cmp	DWORD PTR _err$20884[rsp], 0
	je	SHORT $LN1@New
	mov	edx, DWORD PTR _err$20884[rsp]
	lea	rcx, QWORD PTR $T22442[rsp]
	call	??0DRAWBOT_Exception@@QEAA@H@Z		; DRAWBOT_Exception::DRAWBOT_Exception
	lea	rdx, OFFSET FLAT:_TI2?AVDRAWBOT_Exception@@
	lea	rcx, QWORD PTR $T22442[rsp]
	call	_CxxThrowException
$LN1@New:

; 548  : 
; 549  : 		Reset(pen_ref, false);

	xor	r8d, r8d
	mov	rdx, QWORD PTR pen_ref$[rsp]
	mov	rcx, QWORD PTR this$[rsp]
	call	?Reset@?$SharedRefImpl@PEAU_DRAWBOT_PenRef@@@@QEAAXPEAU_DRAWBOT_PenRef@@_N@Z ; SharedRefImpl<_DRAWBOT_PenRef * __ptr64>::Reset
$LN3@New:

; 550  : 	}

	add	rsp, 88					; 00000058H
	ret	0
?New@DRAWBOT_PenP@@QEAAXPEAUDRAWBOT_SupplierSuite1@@QEAU_DRAWBOT_SupplierRef@@PEBUDRAWBOT_ColorRGBA@@M@Z ENDP ; DRAWBOT_PenP::New
_TEXT	ENDS
PUBLIC	??_7DRAWBOT_Exception@@6B@			; DRAWBOT_Exception::`vftable'
PUBLIC	??_R4DRAWBOT_Exception@@6B@			; DRAWBOT_Exception::`RTTI Complete Object Locator'
PUBLIC	??_R3DRAWBOT_Exception@@8			; DRAWBOT_Exception::`RTTI Class Hierarchy Descriptor'
PUBLIC	??_R2DRAWBOT_Exception@@8			; DRAWBOT_Exception::`RTTI Base Class Array'
PUBLIC	??_R1A@?0A@EA@DRAWBOT_Exception@@8		; DRAWBOT_Exception::`RTTI Base Class Descriptor at (0,-1,0,64)'
PUBLIC	??_R1A@?0A@EA@exception@std@@8			; std::exception::`RTTI Base Class Descriptor at (0,-1,0,64)'
PUBLIC	??_R3exception@std@@8				; std::exception::`RTTI Class Hierarchy Descriptor'
PUBLIC	??_R2exception@std@@8				; std::exception::`RTTI Base Class Array'
EXTRN	__imp_??0exception@std@@QEAA@XZ:PROC
EXTRN	??_EDRAWBOT_Exception@@UEAAPEAXI@Z:PROC		; DRAWBOT_Exception::`vector deleting destructor'
EXTRN	?what@exception@std@@UEBAPEBDXZ:PROC		; std::exception::what
;	COMDAT pdata
pdata	SEGMENT
$pdata$??0DRAWBOT_Exception@@QEAA@H@Z DD imagerel $LN4
	DD	imagerel $LN4+61
	DD	imagerel $unwind$??0DRAWBOT_Exception@@QEAA@H@Z
pdata	ENDS
;	COMDAT ??_R2exception@std@@8
rdata$r	SEGMENT
??_R2exception@std@@8 DD imagerel ??_R1A@?0A@EA@exception@std@@8 ; std::exception::`RTTI Base Class Array'
	ORG $+3
rdata$r	ENDS
;	COMDAT ??_R3exception@std@@8
rdata$r	SEGMENT
??_R3exception@std@@8 DD 00H				; std::exception::`RTTI Class Hierarchy Descriptor'
	DD	00H
	DD	01H
	DD	imagerel ??_R2exception@std@@8
rdata$r	ENDS
;	COMDAT ??_R1A@?0A@EA@exception@std@@8
rdata$r	SEGMENT
??_R1A@?0A@EA@exception@std@@8 DD imagerel ??_R0?AVexception@std@@@8 ; std::exception::`RTTI Base Class Descriptor at (0,-1,0,64)'
	DD	00H
	DD	00H
	DD	0ffffffffH
	DD	00H
	DD	040H
	DD	imagerel ??_R3exception@std@@8
rdata$r	ENDS
;	COMDAT ??_R1A@?0A@EA@DRAWBOT_Exception@@8
rdata$r	SEGMENT
??_R1A@?0A@EA@DRAWBOT_Exception@@8 DD imagerel ??_R0?AVDRAWBOT_Exception@@@8 ; DRAWBOT_Exception::`RTTI Base Class Descriptor at (0,-1,0,64)'
	DD	01H
	DD	00H
	DD	0ffffffffH
	DD	00H
	DD	040H
	DD	imagerel ??_R3DRAWBOT_Exception@@8
rdata$r	ENDS
;	COMDAT ??_R2DRAWBOT_Exception@@8
rdata$r	SEGMENT
??_R2DRAWBOT_Exception@@8 DD imagerel ??_R1A@?0A@EA@DRAWBOT_Exception@@8 ; DRAWBOT_Exception::`RTTI Base Class Array'
	DD	imagerel ??_R1A@?0A@EA@exception@std@@8
	ORG $+3
rdata$r	ENDS
;	COMDAT ??_R3DRAWBOT_Exception@@8
rdata$r	SEGMENT
??_R3DRAWBOT_Exception@@8 DD 00H			; DRAWBOT_Exception::`RTTI Class Hierarchy Descriptor'
	DD	00H
	DD	02H
	DD	imagerel ??_R2DRAWBOT_Exception@@8
rdata$r	ENDS
;	COMDAT ??_R4DRAWBOT_Exception@@6B@
rdata$r	SEGMENT
??_R4DRAWBOT_Exception@@6B@ DD 01H			; DRAWBOT_Exception::`RTTI Complete Object Locator'
	DD	00H
	DD	00H
	DD	imagerel ??_R0?AVDRAWBOT_Exception@@@8
	DD	imagerel ??_R3DRAWBOT_Exception@@8
	DD	imagerel ??_R4DRAWBOT_Exception@@6B@
rdata$r	ENDS
;	COMDAT xdata
xdata	SEGMENT
$unwind$??0DRAWBOT_Exception@@QEAA@H@Z DD 010d01H
	DD	0420dH
xdata	ENDS
;	COMDAT ??_7DRAWBOT_Exception@@6B@
CONST	SEGMENT
??_7DRAWBOT_Exception@@6B@ DQ FLAT:??_R4DRAWBOT_Exception@@6B@ ; DRAWBOT_Exception::`vftable'
	DQ	FLAT:??_EDRAWBOT_Exception@@UEAAPEAXI@Z
	DQ	FLAT:?what@exception@std@@UEBAPEBDXZ
; Function compile flags: /Odtp
CONST	ENDS
;	COMDAT ??0DRAWBOT_Exception@@QEAA@H@Z
_TEXT	SEGMENT
this$ = 48
err$ = 56
??0DRAWBOT_Exception@@QEAA@H@Z PROC			; DRAWBOT_Exception::DRAWBOT_Exception, COMDAT

; 433  : 		{

$LN4:
	mov	DWORD PTR [rsp+16], edx
	mov	QWORD PTR [rsp+8], rcx
	sub	rsp, 40					; 00000028H
	mov	rcx, QWORD PTR this$[rsp]
	call	QWORD PTR __imp_??0exception@std@@QEAA@XZ
	mov	r11, QWORD PTR this$[rsp]
	lea	rax, OFFSET FLAT:??_7DRAWBOT_Exception@@6B@
	mov	QWORD PTR [r11], rax
	mov	rcx, QWORD PTR this$[rsp]
	mov	eax, DWORD PTR err$[rsp]
	mov	DWORD PTR [rcx+24], eax

; 434  : 		}

	mov	rax, QWORD PTR this$[rsp]
	add	rsp, 40					; 00000028H
	ret	0
??0DRAWBOT_Exception@@QEAA@H@Z ENDP			; DRAWBOT_Exception::DRAWBOT_Exception
_TEXT	ENDS
EXTRN	__imp_??1exception@std@@UEAA@XZ:PROC
;	COMDAT pdata
pdata	SEGMENT
$pdata$??1DRAWBOT_Exception@@UEAA@XZ DD imagerel $LN3
	DD	imagerel $LN3+40
	DD	imagerel $unwind$??1DRAWBOT_Exception@@UEAA@XZ
pdata	ENDS
;	COMDAT xdata
xdata	SEGMENT
$unwind$??1DRAWBOT_Exception@@UEAA@XZ DD 010901H
	DD	04209H
; Function compile flags: /Odtp
xdata	ENDS
;	COMDAT ??1DRAWBOT_Exception@@UEAA@XZ
_TEXT	SEGMENT
this$ = 48
??1DRAWBOT_Exception@@UEAA@XZ PROC			; DRAWBOT_Exception::~DRAWBOT_Exception, COMDAT

; 435  : 		virtual ~DRAWBOT_Exception() throw () {}

$LN3:
	mov	QWORD PTR [rsp+8], rcx
	sub	rsp, 40					; 00000028H
	mov	rcx, QWORD PTR this$[rsp]
	lea	rax, OFFSET FLAT:??_7DRAWBOT_Exception@@6B@
	mov	QWORD PTR [rcx], rax
	mov	rcx, QWORD PTR this$[rsp]
	call	QWORD PTR __imp_??1exception@std@@UEAA@XZ
	add	rsp, 40					; 00000028H
	ret	0
??1DRAWBOT_Exception@@UEAA@XZ ENDP			; DRAWBOT_Exception::~DRAWBOT_Exception
_TEXT	ENDS
EXTRN	??3@YAXPEAX@Z:PROC				; operator delete
;	COMDAT pdata
pdata	SEGMENT
$pdata$??_GDRAWBOT_Exception@@UEAAPEAXI@Z DD imagerel $LN4
	DD	imagerel $LN4+54
	DD	imagerel $unwind$??_GDRAWBOT_Exception@@UEAAPEAXI@Z
pdata	ENDS
;	COMDAT xdata
xdata	SEGMENT
$unwind$??_GDRAWBOT_Exception@@UEAAPEAXI@Z DD 010d01H
	DD	0420dH
; Function compile flags: /Odtp
xdata	ENDS
;	COMDAT ??_GDRAWBOT_Exception@@UEAAPEAXI@Z
_TEXT	SEGMENT
this$ = 48
__flags$ = 56
??_GDRAWBOT_Exception@@UEAAPEAXI@Z PROC			; DRAWBOT_Exception::`scalar deleting destructor', COMDAT
$LN4:
	mov	DWORD PTR [rsp+16], edx
	mov	QWORD PTR [rsp+8], rcx
	sub	rsp, 40					; 00000028H
	mov	rcx, QWORD PTR this$[rsp]
	call	??1DRAWBOT_Exception@@UEAA@XZ		; DRAWBOT_Exception::~DRAWBOT_Exception
	mov	eax, DWORD PTR __flags$[rsp]
	and	eax, 1
	test	eax, eax
	je	SHORT $LN1@scalar
	mov	rcx, QWORD PTR this$[rsp]
	call	??3@YAXPEAX@Z				; operator delete
$LN1@scalar:
	mov	rax, QWORD PTR this$[rsp]
	add	rsp, 40					; 00000028H
	ret	0
??_GDRAWBOT_Exception@@UEAAPEAXI@Z ENDP			; DRAWBOT_Exception::`scalar deleting destructor'
_TEXT	ENDS
;	COMDAT pdata
pdata	SEGMENT
$pdata$??_GDRAWBOT_PenP@@UEAAPEAXI@Z DD imagerel $LN4
	DD	imagerel $LN4+54
	DD	imagerel $unwind$??_GDRAWBOT_PenP@@UEAAPEAXI@Z
pdata	ENDS
;	COMDAT xdata
xdata	SEGMENT
$unwind$??_GDRAWBOT_PenP@@UEAAPEAXI@Z DD 010d01H
	DD	0420dH
; Function compile flags: /Odtp
xdata	ENDS
;	COMDAT ??_GDRAWBOT_PenP@@UEAAPEAXI@Z
_TEXT	SEGMENT
this$ = 48
__flags$ = 56
??_GDRAWBOT_PenP@@UEAAPEAXI@Z PROC			; DRAWBOT_PenP::`scalar deleting destructor', COMDAT
$LN4:
	mov	DWORD PTR [rsp+16], edx
	mov	QWORD PTR [rsp+8], rcx
	sub	rsp, 40					; 00000028H
	mov	rcx, QWORD PTR this$[rsp]
	call	??1DRAWBOT_PenP@@UEAA@XZ
	mov	eax, DWORD PTR __flags$[rsp]
	and	eax, 1
	test	eax, eax
	je	SHORT $LN1@scalar@2
	mov	rcx, QWORD PTR this$[rsp]
	call	??3@YAXPEAX@Z				; operator delete
$LN1@scalar@2:
	mov	rax, QWORD PTR this$[rsp]
	add	rsp, 40					; 00000028H
	ret	0
??_GDRAWBOT_PenP@@UEAAPEAXI@Z ENDP			; DRAWBOT_PenP::`scalar deleting destructor'
_TEXT	ENDS
EXTRN	__imp_??0exception@std@@QEAA@AEBV01@@Z:PROC
;	COMDAT pdata
pdata	SEGMENT
$pdata$??0DRAWBOT_Exception@@QEAA@AEBV0@@Z DD imagerel $LN4
	DD	imagerel $LN4+71
	DD	imagerel $unwind$??0DRAWBOT_Exception@@QEAA@AEBV0@@Z
pdata	ENDS
;	COMDAT xdata
xdata	SEGMENT
$unwind$??0DRAWBOT_Exception@@QEAA@AEBV0@@Z DD 010e01H
	DD	0420eH
; Function compile flags: /Odtp
xdata	ENDS
;	COMDAT ??0DRAWBOT_Exception@@QEAA@AEBV0@@Z
_TEXT	SEGMENT
this$ = 48
__that$ = 56
??0DRAWBOT_Exception@@QEAA@AEBV0@@Z PROC		; DRAWBOT_Exception::DRAWBOT_Exception, COMDAT
$LN4:
	mov	QWORD PTR [rsp+16], rdx
	mov	QWORD PTR [rsp+8], rcx
	sub	rsp, 40					; 00000028H
	mov	rdx, QWORD PTR __that$[rsp]
	mov	rcx, QWORD PTR this$[rsp]
	call	QWORD PTR __imp_??0exception@std@@QEAA@AEBV01@@Z
	mov	r11, QWORD PTR this$[rsp]
	lea	rax, OFFSET FLAT:??_7DRAWBOT_Exception@@6B@
	mov	QWORD PTR [r11], rax
	mov	rcx, QWORD PTR this$[rsp]
	mov	rax, QWORD PTR __that$[rsp]
	mov	eax, DWORD PTR [rax+24]
	mov	DWORD PTR [rcx+24], eax
	mov	rax, QWORD PTR this$[rsp]
	add	rsp, 40					; 00000028H
	ret	0
??0DRAWBOT_Exception@@QEAA@AEBV0@@Z ENDP		; DRAWBOT_Exception::DRAWBOT_Exception
_TEXT	ENDS
;	COMDAT pdata
pdata	SEGMENT
$pdata$??1DRAWBOT_PenP@@UEAA@XZ DD imagerel $LN4
	DD	imagerel $LN4+24
	DD	imagerel $unwind$??1DRAWBOT_PenP@@UEAA@XZ
pdata	ENDS
;	COMDAT xdata
xdata	SEGMENT
$unwind$??1DRAWBOT_PenP@@UEAA@XZ DD 010901H
	DD	04209H
; Function compile flags: /Odtp
xdata	ENDS
;	COMDAT ??1DRAWBOT_PenP@@UEAA@XZ
_TEXT	SEGMENT
this$ = 48
??1DRAWBOT_PenP@@UEAA@XZ PROC				; DRAWBOT_PenP::~DRAWBOT_PenP, COMDAT
$LN4:
	mov	QWORD PTR [rsp+8], rcx
	sub	rsp, 40					; 00000028H
	mov	rcx, QWORD PTR this$[rsp]
	call	??1?$SharedRefImpl@PEAU_DRAWBOT_PenRef@@@@UEAA@XZ ; SharedRefImpl<_DRAWBOT_PenRef * __ptr64>::~SharedRefImpl<_DRAWBOT_PenRef * __ptr64>
	add	rsp, 40					; 00000028H
	ret	0
??1DRAWBOT_PenP@@UEAA@XZ ENDP				; DRAWBOT_PenP::~DRAWBOT_PenP
_TEXT	ENDS
PUBLIC	??1?$SharedRefImpl@PEAU_DRAWBOT_PathRef@@@@UEAA@XZ ; SharedRefImpl<_DRAWBOT_PathRef * __ptr64>::~SharedRefImpl<_DRAWBOT_PathRef * __ptr64>
PUBLIC	?New@DRAWBOT_PathP@@QEAAXPEAUDRAWBOT_SupplierSuite1@@QEAU_DRAWBOT_SupplierRef@@@Z ; DRAWBOT_PathP::New
PUBLIC	??_7DRAWBOT_PathP@@6B@				; DRAWBOT_PathP::`vftable'
PUBLIC	??0?$SharedRefImpl@PEAU_DRAWBOT_PathRef@@@@QEAA@PEAUDRAWBOT_SupplierSuite1@@PEAU_DRAWBOT_PathRef@@_N@Z ; SharedRefImpl<_DRAWBOT_PathRef * __ptr64>::SharedRefImpl<_DRAWBOT_PathRef * __ptr64>
PUBLIC	??_R4DRAWBOT_PathP@@6B@				; DRAWBOT_PathP::`RTTI Complete Object Locator'
PUBLIC	??_R0?AVDRAWBOT_PathP@@@8			; DRAWBOT_PathP `RTTI Type Descriptor'
PUBLIC	??_R3DRAWBOT_PathP@@8				; DRAWBOT_PathP::`RTTI Class Hierarchy Descriptor'
PUBLIC	??_R2DRAWBOT_PathP@@8				; DRAWBOT_PathP::`RTTI Base Class Array'
PUBLIC	??_R1A@?0A@EA@DRAWBOT_PathP@@8			; DRAWBOT_PathP::`RTTI Base Class Descriptor at (0,-1,0,64)'
PUBLIC	??_R1A@?0A@EA@?$SharedRefImpl@PEAU_DRAWBOT_PathRef@@@@8 ; SharedRefImpl<_DRAWBOT_PathRef * __ptr64>::`RTTI Base Class Descriptor at (0,-1,0,64)'
PUBLIC	??_R0?AV?$SharedRefImpl@PEAU_DRAWBOT_PathRef@@@@@8 ; SharedRefImpl<_DRAWBOT_PathRef * __ptr64> `RTTI Type Descriptor'
PUBLIC	??_R3?$SharedRefImpl@PEAU_DRAWBOT_PathRef@@@@8	; SharedRefImpl<_DRAWBOT_PathRef * __ptr64>::`RTTI Class Hierarchy Descriptor'
PUBLIC	??_R2?$SharedRefImpl@PEAU_DRAWBOT_PathRef@@@@8	; SharedRefImpl<_DRAWBOT_PathRef * __ptr64>::`RTTI Base Class Array'
EXTRN	??_EDRAWBOT_PathP@@UEAAPEAXI@Z:PROC		; DRAWBOT_PathP::`vector deleting destructor'
;	COMDAT pdata
pdata	SEGMENT
$pdata$??0DRAWBOT_PathP@@QEAA@PEAUDRAWBOT_SupplierSuite1@@QEAU_DRAWBOT_SupplierRef@@@Z DD imagerel $LN4
	DD	imagerel $LN4+96
	DD	imagerel $unwind$??0DRAWBOT_PathP@@QEAA@PEAUDRAWBOT_SupplierSuite1@@QEAU_DRAWBOT_SupplierRef@@@Z
pdata	ENDS
;	COMDAT pdata
pdata	SEGMENT
$pdata$?dtor$0@?0???0DRAWBOT_PathP@@QEAA@PEAUDRAWBOT_SupplierSuite1@@QEAU_DRAWBOT_SupplierRef@@@Z@4HA DD imagerel ?dtor$0@?0???0DRAWBOT_PathP@@QEAA@PEAUDRAWBOT_SupplierSuite1@@QEAU_DRAWBOT_SupplierRef@@@Z@4HA
	DD	imagerel ?dtor$0@?0???0DRAWBOT_PathP@@QEAA@PEAUDRAWBOT_SupplierSuite1@@QEAU_DRAWBOT_SupplierRef@@@Z@4HA+24
	DD	imagerel $unwind$?dtor$0@?0???0DRAWBOT_PathP@@QEAA@PEAUDRAWBOT_SupplierSuite1@@QEAU_DRAWBOT_SupplierRef@@@Z@4HA
pdata	ENDS
;	COMDAT xdata
xdata	SEGMENT
$ip2state$??0DRAWBOT_PathP@@QEAA@PEAUDRAWBOT_SupplierSuite1@@QEAU_DRAWBOT_SupplierRef@@@Z DD imagerel ??0DRAWBOT_PathP@@QEAA@PEAUDRAWBOT_SupplierSuite1@@QEAU_DRAWBOT_SupplierRef@@@Z
	DD	0ffffffffH
	DD	imagerel ??0DRAWBOT_PathP@@QEAA@PEAUDRAWBOT_SupplierSuite1@@QEAU_DRAWBOT_SupplierRef@@@Z+50
	DD	00H
	DD	imagerel ??0DRAWBOT_PathP@@QEAA@PEAUDRAWBOT_SupplierSuite1@@QEAU_DRAWBOT_SupplierRef@@@Z+86
	DD	0ffffffffH
xdata	ENDS
;	COMDAT ??_R2?$SharedRefImpl@PEAU_DRAWBOT_PathRef@@@@8
rdata$r	SEGMENT
??_R2?$SharedRefImpl@PEAU_DRAWBOT_PathRef@@@@8 DD imagerel ??_R1A@?0A@EA@?$SharedRefImpl@PEAU_DRAWBOT_PathRef@@@@8 ; SharedRefImpl<_DRAWBOT_PathRef * __ptr64>::`RTTI Base Class Array'
	ORG $+3
rdata$r	ENDS
;	COMDAT ??_R3?$SharedRefImpl@PEAU_DRAWBOT_PathRef@@@@8
rdata$r	SEGMENT
??_R3?$SharedRefImpl@PEAU_DRAWBOT_PathRef@@@@8 DD 00H	; SharedRefImpl<_DRAWBOT_PathRef * __ptr64>::`RTTI Class Hierarchy Descriptor'
	DD	00H
	DD	01H
	DD	imagerel ??_R2?$SharedRefImpl@PEAU_DRAWBOT_PathRef@@@@8
rdata$r	ENDS
;	COMDAT ??_R0?AV?$SharedRefImpl@PEAU_DRAWBOT_PathRef@@@@@8
_DATA	SEGMENT
??_R0?AV?$SharedRefImpl@PEAU_DRAWBOT_PathRef@@@@@8 DQ FLAT:??_7type_info@@6B@ ; SharedRefImpl<_DRAWBOT_PathRef * __ptr64> `RTTI Type Descriptor'
	DQ	0000000000000000H
	DB	'.?AV?$SharedRefImpl@PEAU_DRAWBOT_PathRef@@@@', 00H
_DATA	ENDS
;	COMDAT ??_R1A@?0A@EA@?$SharedRefImpl@PEAU_DRAWBOT_PathRef@@@@8
rdata$r	SEGMENT
??_R1A@?0A@EA@?$SharedRefImpl@PEAU_DRAWBOT_PathRef@@@@8 DD imagerel ??_R0?AV?$SharedRefImpl@PEAU_DRAWBOT_PathRef@@@@@8 ; SharedRefImpl<_DRAWBOT_PathRef * __ptr64>::`RTTI Base Class Descriptor at (0,-1,0,64)'
	DD	00H
	DD	00H
	DD	0ffffffffH
	DD	00H
	DD	040H
	DD	imagerel ??_R3?$SharedRefImpl@PEAU_DRAWBOT_PathRef@@@@8
rdata$r	ENDS
;	COMDAT ??_R1A@?0A@EA@DRAWBOT_PathP@@8
rdata$r	SEGMENT
??_R1A@?0A@EA@DRAWBOT_PathP@@8 DD imagerel ??_R0?AVDRAWBOT_PathP@@@8 ; DRAWBOT_PathP::`RTTI Base Class Descriptor at (0,-1,0,64)'
	DD	01H
	DD	00H
	DD	0ffffffffH
	DD	00H
	DD	040H
	DD	imagerel ??_R3DRAWBOT_PathP@@8
rdata$r	ENDS
;	COMDAT ??_R2DRAWBOT_PathP@@8
rdata$r	SEGMENT
??_R2DRAWBOT_PathP@@8 DD imagerel ??_R1A@?0A@EA@DRAWBOT_PathP@@8 ; DRAWBOT_PathP::`RTTI Base Class Array'
	DD	imagerel ??_R1A@?0A@EA@?$SharedRefImpl@PEAU_DRAWBOT_PathRef@@@@8
	ORG $+3
rdata$r	ENDS
;	COMDAT ??_R3DRAWBOT_PathP@@8
rdata$r	SEGMENT
??_R3DRAWBOT_PathP@@8 DD 00H				; DRAWBOT_PathP::`RTTI Class Hierarchy Descriptor'
	DD	00H
	DD	02H
	DD	imagerel ??_R2DRAWBOT_PathP@@8
rdata$r	ENDS
;	COMDAT ??_R0?AVDRAWBOT_PathP@@@8
_DATA	SEGMENT
??_R0?AVDRAWBOT_PathP@@@8 DQ FLAT:??_7type_info@@6B@	; DRAWBOT_PathP `RTTI Type Descriptor'
	DQ	0000000000000000H
	DB	'.?AVDRAWBOT_PathP@@', 00H
_DATA	ENDS
;	COMDAT ??_R4DRAWBOT_PathP@@6B@
rdata$r	SEGMENT
??_R4DRAWBOT_PathP@@6B@ DD 01H				; DRAWBOT_PathP::`RTTI Complete Object Locator'
	DD	00H
	DD	00H
	DD	imagerel ??_R0?AVDRAWBOT_PathP@@@8
	DD	imagerel ??_R3DRAWBOT_PathP@@8
	DD	imagerel ??_R4DRAWBOT_PathP@@6B@
rdata$r	ENDS
;	COMDAT xdata
xdata	SEGMENT
$unwind$?dtor$0@?0???0DRAWBOT_PathP@@QEAA@PEAUDRAWBOT_SupplierSuite1@@QEAU_DRAWBOT_SupplierRef@@@Z@4HA DD 020601H
	DD	050023206H
xdata	ENDS
;	COMDAT xdata
xdata	SEGMENT
$unwind$??0DRAWBOT_PathP@@QEAA@PEAUDRAWBOT_SupplierSuite1@@QEAU_DRAWBOT_SupplierRef@@@Z DD 011c11H
	DD	06213H
	DD	imagerel __CxxFrameHandler3
	DD	imagerel $cppxdata$??0DRAWBOT_PathP@@QEAA@PEAUDRAWBOT_SupplierSuite1@@QEAU_DRAWBOT_SupplierRef@@@Z
xdata	ENDS
;	COMDAT CONST
CONST	SEGMENT
$cppxdata$??0DRAWBOT_PathP@@QEAA@PEAUDRAWBOT_SupplierSuite1@@QEAU_DRAWBOT_SupplierRef@@@Z DD 019930522H
	DD	01H
	DD	imagerel $stateUnwindMap$??0DRAWBOT_PathP@@QEAA@PEAUDRAWBOT_SupplierSuite1@@QEAU_DRAWBOT_SupplierRef@@@Z
	DD	00H
	DD	00H
	DD	03H
	DD	imagerel $ip2state$??0DRAWBOT_PathP@@QEAA@PEAUDRAWBOT_SupplierSuite1@@QEAU_DRAWBOT_SupplierRef@@@Z
	DD	020H
	DD	00H
	DD	01H
CONST	ENDS
;	COMDAT xdata
xdata	SEGMENT
$stateUnwindMap$??0DRAWBOT_PathP@@QEAA@PEAUDRAWBOT_SupplierSuite1@@QEAU_DRAWBOT_SupplierRef@@@Z DD 0ffffffffH
	DD	imagerel ?dtor$0@?0???0DRAWBOT_PathP@@QEAA@PEAUDRAWBOT_SupplierSuite1@@QEAU_DRAWBOT_SupplierRef@@@Z@4HA
xdata	ENDS
;	COMDAT ??_7DRAWBOT_PathP@@6B@
CONST	SEGMENT
??_7DRAWBOT_PathP@@6B@ DQ FLAT:??_R4DRAWBOT_PathP@@6B@	; DRAWBOT_PathP::`vftable'
	DQ	FLAT:??_EDRAWBOT_PathP@@UEAAPEAXI@Z
; Function compile flags: /Odtp
CONST	ENDS
;	COMDAT ??0DRAWBOT_PathP@@QEAA@PEAUDRAWBOT_SupplierSuite1@@QEAU_DRAWBOT_SupplierRef@@@Z
_TEXT	SEGMENT
$T22510 = 32
this$ = 64
suiteP$ = 72
supplier_ref$ = 80
??0DRAWBOT_PathP@@QEAA@PEAUDRAWBOT_SupplierSuite1@@QEAU_DRAWBOT_SupplierRef@@@Z PROC ; DRAWBOT_PathP::DRAWBOT_PathP, COMDAT

; 563  : 	{

$LN4:
	mov	QWORD PTR [rsp+24], r8
	mov	QWORD PTR [rsp+16], rdx
	mov	QWORD PTR [rsp+8], rcx
	sub	rsp, 56					; 00000038H
	mov	QWORD PTR $T22510[rsp], -2
	mov	r9b, 1
	xor	r8d, r8d
	mov	rdx, QWORD PTR suiteP$[rsp]
	mov	rcx, QWORD PTR this$[rsp]
	call	??0?$SharedRefImpl@PEAU_DRAWBOT_PathRef@@@@QEAA@PEAUDRAWBOT_SupplierSuite1@@PEAU_DRAWBOT_PathRef@@_N@Z ; SharedRefImpl<_DRAWBOT_PathRef * __ptr64>::SharedRefImpl<_DRAWBOT_PathRef * __ptr64>
	npad	1
	mov	rcx, QWORD PTR this$[rsp]
	lea	rax, OFFSET FLAT:??_7DRAWBOT_PathP@@6B@
	mov	QWORD PTR [rcx], rax

; 564  : 		New(suiteP, supplier_ref);

	mov	r8, QWORD PTR supplier_ref$[rsp]
	mov	rdx, QWORD PTR suiteP$[rsp]
	mov	rcx, QWORD PTR this$[rsp]
	call	?New@DRAWBOT_PathP@@QEAAXPEAUDRAWBOT_SupplierSuite1@@QEAU_DRAWBOT_SupplierRef@@@Z ; DRAWBOT_PathP::New
	npad	1

; 565  : 	}

	mov	rax, QWORD PTR this$[rsp]
	add	rsp, 56					; 00000038H
	ret	0
??0DRAWBOT_PathP@@QEAA@PEAUDRAWBOT_SupplierSuite1@@QEAU_DRAWBOT_SupplierRef@@@Z ENDP ; DRAWBOT_PathP::DRAWBOT_PathP
; Function compile flags: /Odtp
_TEXT	ENDS
;	COMDAT text$x
text$x	SEGMENT
$T22510 = 32
this$ = 64
suiteP$ = 72
supplier_ref$ = 80
?dtor$0@?0???0DRAWBOT_PathP@@QEAA@PEAUDRAWBOT_SupplierSuite1@@QEAU_DRAWBOT_SupplierRef@@@Z@4HA PROC ; `DRAWBOT_PathP::DRAWBOT_PathP'::`1'::dtor$0
	push	rbp
	sub	rsp, 32					; 00000020H
	mov	rbp, rdx
	mov	rcx, QWORD PTR this$[rbp]
	call	??1?$SharedRefImpl@PEAU_DRAWBOT_PathRef@@@@UEAA@XZ ; SharedRefImpl<_DRAWBOT_PathRef * __ptr64>::~SharedRefImpl<_DRAWBOT_PathRef * __ptr64>
	add	rsp, 32					; 00000020H
	pop	rbp
	ret	0
?dtor$0@?0???0DRAWBOT_PathP@@QEAA@PEAUDRAWBOT_SupplierSuite1@@QEAU_DRAWBOT_SupplierRef@@@Z@4HA ENDP ; `DRAWBOT_PathP::DRAWBOT_PathP'::`1'::dtor$0
text$x	ENDS
PUBLIC	?Reset@?$SharedRefImpl@PEAU_DRAWBOT_PathRef@@@@QEAAXPEAU_DRAWBOT_PathRef@@_N@Z ; SharedRefImpl<_DRAWBOT_PathRef * __ptr64>::Reset
;	COMDAT pdata
pdata	SEGMENT
$pdata$?New@DRAWBOT_PathP@@QEAAXPEAUDRAWBOT_SupplierSuite1@@QEAU_DRAWBOT_SupplierRef@@@Z DD imagerel $LN4
	DD	imagerel $LN4+102
	DD	imagerel $unwind$?New@DRAWBOT_PathP@@QEAAXPEAUDRAWBOT_SupplierSuite1@@QEAU_DRAWBOT_SupplierRef@@@Z
pdata	ENDS
;	COMDAT xdata
xdata	SEGMENT
$unwind$?New@DRAWBOT_PathP@@QEAAXPEAUDRAWBOT_SupplierSuite1@@QEAU_DRAWBOT_SupplierRef@@@Z DD 011301H
	DD	0a213H
; Function compile flags: /Odtp
xdata	ENDS
;	COMDAT ?New@DRAWBOT_PathP@@QEAAXPEAUDRAWBOT_SupplierSuite1@@QEAU_DRAWBOT_SupplierRef@@@Z
_TEXT	SEGMENT
path_ref$ = 32
_err$20958 = 40
$T22528 = 48
this$ = 96
suiteP$ = 104
supplier_ref$ = 112
?New@DRAWBOT_PathP@@QEAAXPEAUDRAWBOT_SupplierSuite1@@QEAU_DRAWBOT_SupplierRef@@@Z PROC ; DRAWBOT_PathP::New, COMDAT

; 569  : 	{

$LN4:
	mov	QWORD PTR [rsp+24], r8
	mov	QWORD PTR [rsp+16], rdx
	mov	QWORD PTR [rsp+8], rcx
	sub	rsp, 88					; 00000058H

; 570  : 		DRAWBOT_PathRef	path_ref;
; 571  : 
; 572  : 		DRAWBOT_ErrorToException(suiteP->NewPath(supplier_ref, &path_ref));

	lea	rdx, QWORD PTR path_ref$[rsp]
	mov	rcx, QWORD PTR supplier_ref$[rsp]
	mov	rax, QWORD PTR suiteP$[rsp]
	call	QWORD PTR [rax+48]
	mov	DWORD PTR _err$20958[rsp], eax
	cmp	DWORD PTR _err$20958[rsp], 0
	je	SHORT $LN1@New@2
	mov	edx, DWORD PTR _err$20958[rsp]
	lea	rcx, QWORD PTR $T22528[rsp]
	call	??0DRAWBOT_Exception@@QEAA@H@Z		; DRAWBOT_Exception::DRAWBOT_Exception
	lea	rdx, OFFSET FLAT:_TI2?AVDRAWBOT_Exception@@
	lea	rcx, QWORD PTR $T22528[rsp]
	call	_CxxThrowException
$LN1@New@2:

; 573  : 
; 574  : 		Reset(path_ref, false);

	xor	r8d, r8d
	mov	rdx, QWORD PTR path_ref$[rsp]
	mov	rcx, QWORD PTR this$[rsp]
	call	?Reset@?$SharedRefImpl@PEAU_DRAWBOT_PathRef@@@@QEAAXPEAU_DRAWBOT_PathRef@@_N@Z ; SharedRefImpl<_DRAWBOT_PathRef * __ptr64>::Reset
$LN3@New@2:

; 575  : 	}

	add	rsp, 88					; 00000058H
	ret	0
?New@DRAWBOT_PathP@@QEAAXPEAUDRAWBOT_SupplierSuite1@@QEAU_DRAWBOT_SupplierRef@@@Z ENDP ; DRAWBOT_PathP::New
_TEXT	ENDS
;	COMDAT pdata
pdata	SEGMENT
$pdata$??_GDRAWBOT_PathP@@UEAAPEAXI@Z DD imagerel $LN4
	DD	imagerel $LN4+54
	DD	imagerel $unwind$??_GDRAWBOT_PathP@@UEAAPEAXI@Z
pdata	ENDS
;	COMDAT xdata
xdata	SEGMENT
$unwind$??_GDRAWBOT_PathP@@UEAAPEAXI@Z DD 010d01H
	DD	0420dH
; Function compile flags: /Odtp
xdata	ENDS
;	COMDAT ??_GDRAWBOT_PathP@@UEAAPEAXI@Z
_TEXT	SEGMENT
this$ = 48
__flags$ = 56
??_GDRAWBOT_PathP@@UEAAPEAXI@Z PROC			; DRAWBOT_PathP::`scalar deleting destructor', COMDAT
$LN4:
	mov	DWORD PTR [rsp+16], edx
	mov	QWORD PTR [rsp+8], rcx
	sub	rsp, 40					; 00000028H
	mov	rcx, QWORD PTR this$[rsp]
	call	??1DRAWBOT_PathP@@UEAA@XZ
	mov	eax, DWORD PTR __flags$[rsp]
	and	eax, 1
	test	eax, eax
	je	SHORT $LN1@scalar@3
	mov	rcx, QWORD PTR this$[rsp]
	call	??3@YAXPEAX@Z				; operator delete
$LN1@scalar@3:
	mov	rax, QWORD PTR this$[rsp]
	add	rsp, 40					; 00000028H
	ret	0
??_GDRAWBOT_PathP@@UEAAPEAXI@Z ENDP			; DRAWBOT_PathP::`scalar deleting destructor'
_TEXT	ENDS
;	COMDAT pdata
pdata	SEGMENT
$pdata$??1DRAWBOT_PathP@@UEAA@XZ DD imagerel $LN4
	DD	imagerel $LN4+24
	DD	imagerel $unwind$??1DRAWBOT_PathP@@UEAA@XZ
pdata	ENDS
;	COMDAT xdata
xdata	SEGMENT
$unwind$??1DRAWBOT_PathP@@UEAA@XZ DD 010901H
	DD	04209H
; Function compile flags: /Odtp
xdata	ENDS
;	COMDAT ??1DRAWBOT_PathP@@UEAA@XZ
_TEXT	SEGMENT
this$ = 48
??1DRAWBOT_PathP@@UEAA@XZ PROC				; DRAWBOT_PathP::~DRAWBOT_PathP, COMDAT
$LN4:
	mov	QWORD PTR [rsp+8], rcx
	sub	rsp, 40					; 00000028H
	mov	rcx, QWORD PTR this$[rsp]
	call	??1?$SharedRefImpl@PEAU_DRAWBOT_PathRef@@@@UEAA@XZ ; SharedRefImpl<_DRAWBOT_PathRef * __ptr64>::~SharedRefImpl<_DRAWBOT_PathRef * __ptr64>
	add	rsp, 40					; 00000028H
	ret	0
??1DRAWBOT_PathP@@UEAA@XZ ENDP				; DRAWBOT_PathP::~DRAWBOT_PathP
_TEXT	ENDS
PUBLIC	??_C@_0BG@FIILEFJC@DRAWBOT?5Surface?5Suite?$AA@	; `string'
;	COMDAT pdata
; File c:\users\brendan bolles\documents\development\proexr\src\aftereffects\fnord_suitehandler.h
pdata	SEGMENT
$pdata$?DBSurfaceSuite@AEGP_SuiteHandler@@QEBAPEAUDRAWBOT_SurfaceSuite1@@XZ DD imagerel $LN4
	DD	imagerel $LN4+79
	DD	imagerel $unwind$?DBSurfaceSuite@AEGP_SuiteHandler@@QEBAPEAUDRAWBOT_SurfaceSuite1@@XZ
pdata	ENDS
;	COMDAT xdata
xdata	SEGMENT
$unwind$?DBSurfaceSuite@AEGP_SuiteHandler@@QEBAPEAUDRAWBOT_SurfaceSuite1@@XZ DD 010901H
	DD	04209H
xdata	ENDS
;	COMDAT ??_C@_0BG@FIILEFJC@DRAWBOT?5Surface?5Suite?$AA@
CONST	SEGMENT
??_C@_0BG@FIILEFJC@DRAWBOT?5Surface?5Suite?$AA@ DB 'DRAWBOT Surface Suite'
	DB	00H						; `string'
; Function compile flags: /Odtp
CONST	ENDS
;	COMDAT ?DBSurfaceSuite@AEGP_SuiteHandler@@QEBAPEAUDRAWBOT_SurfaceSuite1@@XZ
_TEXT	SEGMENT
this$ = 48
?DBSurfaceSuite@AEGP_SuiteHandler@@QEBAPEAUDRAWBOT_SurfaceSuite1@@XZ PROC ; AEGP_SuiteHandler::DBSurfaceSuite, COMDAT

; 442  : 	AEGP_SUITE_ACCESS_BOILERPLATE(DBSurfaceSuite, DB_SurfaceSuite, db_surface_suiteP, kDRAWBOT_SurfaceSuite, kDB_SurfaceSuite_Version);

$LN4:
	mov	QWORD PTR [rsp+8], rcx
	sub	rsp, 40					; 00000028H
	mov	rax, QWORD PTR this$[rsp]
	cmp	QWORD PTR [rax+344], 0
	jne	SHORT $LN1@DBSurfaceS
	mov	r8d, 2
	lea	rdx, OFFSET FLAT:??_C@_0BG@FIILEFJC@DRAWBOT?5Surface?5Suite?$AA@
	mov	rcx, QWORD PTR this$[rsp]
	call	?LoadSuite@AEGP_SuiteHandler@@AEBAPEAXPEADJ@Z ; AEGP_SuiteHandler::LoadSuite
	mov	r11, rax
	mov	rax, QWORD PTR this$[rsp]
	mov	QWORD PTR [rax+344], r11
$LN1@DBSurfaceS:
	mov	rax, QWORD PTR this$[rsp]
	mov	rax, QWORD PTR [rax+344]
	add	rsp, 40					; 00000028H
	ret	0
?DBSurfaceSuite@AEGP_SuiteHandler@@QEBAPEAUDRAWBOT_SurfaceSuite1@@XZ ENDP ; AEGP_SuiteHandler::DBSurfaceSuite
_TEXT	ENDS
PUBLIC	??_C@_0BD@MKGMFBND@DRAWBOT?5Path?5Suite?$AA@	; `string'
;	COMDAT pdata
pdata	SEGMENT
$pdata$?DBPathSuite@AEGP_SuiteHandler@@QEBAPEAUDRAWBOT_PathSuite1@@XZ DD imagerel $LN4
	DD	imagerel $LN4+79
	DD	imagerel $unwind$?DBPathSuite@AEGP_SuiteHandler@@QEBAPEAUDRAWBOT_PathSuite1@@XZ
pdata	ENDS
;	COMDAT xdata
xdata	SEGMENT
$unwind$?DBPathSuite@AEGP_SuiteHandler@@QEBAPEAUDRAWBOT_PathSuite1@@XZ DD 010901H
	DD	04209H
xdata	ENDS
;	COMDAT ??_C@_0BD@MKGMFBND@DRAWBOT?5Path?5Suite?$AA@
CONST	SEGMENT
??_C@_0BD@MKGMFBND@DRAWBOT?5Path?5Suite?$AA@ DB 'DRAWBOT Path Suite', 00H ; `string'
; Function compile flags: /Odtp
CONST	ENDS
;	COMDAT ?DBPathSuite@AEGP_SuiteHandler@@QEBAPEAUDRAWBOT_PathSuite1@@XZ
_TEXT	SEGMENT
this$ = 48
?DBPathSuite@AEGP_SuiteHandler@@QEBAPEAUDRAWBOT_PathSuite1@@XZ PROC ; AEGP_SuiteHandler::DBPathSuite, COMDAT

; 443  : 	AEGP_SUITE_ACCESS_BOILERPLATE(DBPathSuite, DB_PathSuite, db_path_suiteP, kDRAWBOT_PathSuite, kDB_PathSuite_Version);

$LN4:
	mov	QWORD PTR [rsp+8], rcx
	sub	rsp, 40					; 00000028H
	mov	rax, QWORD PTR this$[rsp]
	cmp	QWORD PTR [rax+352], 0
	jne	SHORT $LN1@DBPathSuit
	mov	r8d, 1
	lea	rdx, OFFSET FLAT:??_C@_0BD@MKGMFBND@DRAWBOT?5Path?5Suite?$AA@
	mov	rcx, QWORD PTR this$[rsp]
	call	?LoadSuite@AEGP_SuiteHandler@@AEBAPEAXPEADJ@Z ; AEGP_SuiteHandler::LoadSuite
	mov	r11, rax
	mov	rax, QWORD PTR this$[rsp]
	mov	QWORD PTR [rax+352], r11
$LN1@DBPathSuit:
	mov	rax, QWORD PTR this$[rsp]
	mov	rax, QWORD PTR [rax+352]
	add	rsp, 40					; 00000028H
	ret	0
?DBPathSuite@AEGP_SuiteHandler@@QEBAPEAUDRAWBOT_PathSuite1@@XZ ENDP ; AEGP_SuiteHandler::DBPathSuite
; Function compile flags: /Odtp
; File c:\users\brendan bolles\documents\development\proexr\src\aftereffects\drawbotbot.h
_TEXT	ENDS
;	COMDAT ?MoveTo@DrawbotBot@@QEAAXMM@Z
_TEXT	SEGMENT
this$ = 8
x$ = 16
y$ = 24
?MoveTo@DrawbotBot@@QEAAXMM@Z PROC			; DrawbotBot::MoveTo, COMDAT

; 44   :     void MoveTo(float x, float y) { _brush_pos.x = x; _brush_pos.y = y; }

	movss	DWORD PTR [rsp+24], xmm2
	movss	DWORD PTR [rsp+16], xmm1
	mov	QWORD PTR [rsp+8], rcx
	mov	rax, QWORD PTR this$[rsp]
	movss	xmm0, DWORD PTR x$[rsp]
	movss	DWORD PTR [rax+452], xmm0
	mov	rax, QWORD PTR this$[rsp]
	movss	xmm0, DWORD PTR y$[rsp]
	movss	DWORD PTR [rax+456], xmm0
	ret	0
?MoveTo@DrawbotBot@@QEAAXMM@Z ENDP			; DrawbotBot::MoveTo
_TEXT	ENDS
PUBLIC	?DrawRect@DrawbotBot@@QEBAXMMM@Z		; DrawbotBot::DrawRect
pdata	SEGMENT
$pdata$?DrawRect@DrawbotBot@@QEBAXMMM@Z DD imagerel $LN5
	DD	imagerel $LN5+375
	DD	imagerel $unwind$?DrawRect@DrawbotBot@@QEBAXMMM@Z
pdata	ENDS
pdata	SEGMENT
$pdata$?dtor$0@?0??DrawRect@DrawbotBot@@QEBAXMMM@Z@4HA DD imagerel ?dtor$0@?0??DrawRect@DrawbotBot@@QEBAXMMM@Z@4HA
	DD	imagerel ?dtor$0@?0??DrawRect@DrawbotBot@@QEBAXMMM@Z@4HA+24
	DD	imagerel $unwind$?dtor$0@?0??DrawRect@DrawbotBot@@QEBAXMMM@Z@4HA
$pdata$?dtor$1@?0??DrawRect@DrawbotBot@@QEBAXMMM@Z@4HA DD imagerel ?dtor$1@?0??DrawRect@DrawbotBot@@QEBAXMMM@Z@4HA
	DD	imagerel ?dtor$1@?0??DrawRect@DrawbotBot@@QEBAXMMM@Z@4HA+24
	DD	imagerel $unwind$?dtor$1@?0??DrawRect@DrawbotBot@@QEBAXMMM@Z@4HA
pdata	ENDS
CONST	SEGMENT
$cppxdata$?DrawRect@DrawbotBot@@QEBAXMMM@Z DD 019930522H
	DD	02H
	DD	imagerel $stateUnwindMap$?DrawRect@DrawbotBot@@QEBAXMMM@Z
	DD	00H
	DD	00H
	DD	05H
	DD	imagerel $ip2state$?DrawRect@DrawbotBot@@QEBAXMMM@Z
	DD	070H
	DD	00H
	DD	01H
CONST	ENDS
xdata	SEGMENT
$stateUnwindMap$?DrawRect@DrawbotBot@@QEBAXMMM@Z DD 0ffffffffH
	DD	imagerel ?dtor$0@?0??DrawRect@DrawbotBot@@QEBAXMMM@Z@4HA
	DD	00H
	DD	imagerel ?dtor$1@?0??DrawRect@DrawbotBot@@QEBAXMMM@Z@4HA
$unwind$?DrawRect@DrawbotBot@@QEBAXMMM@Z DD 042911H
	DD	0110120H
	DD	030187019H
	DD	imagerel __CxxFrameHandler3
	DD	imagerel $cppxdata$?DrawRect@DrawbotBot@@QEBAXMMM@Z
$unwind$?dtor$0@?0??DrawRect@DrawbotBot@@QEBAXMMM@Z@4HA DD 020601H
	DD	050023206H
$unwind$?dtor$1@?0??DrawRect@DrawbotBot@@QEBAXMMM@Z@4HA DD 020601H
	DD	050023206H
$ip2state$?DrawRect@DrawbotBot@@QEBAXMMM@Z DD imagerel ?DrawRect@DrawbotBot@@QEBAXMMM@Z
	DD	0ffffffffH
	DD	imagerel ?DrawRect@DrawbotBot@@QEBAXMMM@Z+82
	DD	00H
	DD	imagerel ?DrawRect@DrawbotBot@@QEBAXMMM@Z+153
	DD	01H
	DD	imagerel ?DrawRect@DrawbotBot@@QEBAXMMM@Z+344
	DD	00H
	DD	imagerel ?DrawRect@DrawbotBot@@QEBAXMMM@Z+355
	DD	0ffffffffH
; Function compile flags: /Odtp
; File c:\users\brendan bolles\documents\development\proexr\src\aftereffects\drawbotbot.cpp
xdata	ENDS
_TEXT	SEGMENT
rect$ = 48
pathP$ = 64
penP$ = 88
$T22575 = 112
this$ = 160
w$ = 168
h$ = 176
brush_size$ = 184
?DrawRect@DrawbotBot@@QEBAXMMM@Z PROC			; DrawbotBot::DrawRect

; 155  : {

$LN5:
	movss	DWORD PTR [rsp+32], xmm3
	movss	DWORD PTR [rsp+24], xmm2
	movss	DWORD PTR [rsp+16], xmm1
	mov	QWORD PTR [rsp+8], rcx
	push	rbx
	push	rdi
	sub	rsp, 136				; 00000088H
	mov	QWORD PTR $T22575[rsp], -2

; 156  :     DRAWBOT_PathP pathP(_suiteP, _supplier_ref);

	mov	r8, QWORD PTR this$[rsp]
	mov	r8, QWORD PTR [r8+436]
	mov	rdx, QWORD PTR this$[rsp]
	mov	rdx, QWORD PTR [rdx+420]
	lea	rcx, QWORD PTR pathP$[rsp]
	call	??0DRAWBOT_PathP@@QEAA@PEAUDRAWBOT_SupplierSuite1@@QEAU_DRAWBOT_SupplierRef@@@Z ; DRAWBOT_PathP::DRAWBOT_PathP
	npad	1

; 157  :     DRAWBOT_PenP penP(_suiteP, _supplier_ref, &_brush_color, brush_size);

	mov	r9, QWORD PTR this$[rsp]
	add	r9, 460					; 000001ccH
	movss	xmm0, DWORD PTR brush_size$[rsp]
	movss	DWORD PTR [rsp+32], xmm0
	mov	r8, QWORD PTR this$[rsp]
	mov	r8, QWORD PTR [r8+436]
	mov	rdx, QWORD PTR this$[rsp]
	mov	rdx, QWORD PTR [rdx+420]
	lea	rcx, QWORD PTR penP$[rsp]
	call	??0DRAWBOT_PenP@@QEAA@PEAUDRAWBOT_SupplierSuite1@@QEAU_DRAWBOT_SupplierRef@@PEBUDRAWBOT_ColorRGBA@@M@Z ; DRAWBOT_PenP::DRAWBOT_PenP
	npad	1

; 158  :     
; 159  :     DRAWBOT_RectF32 rect;
; 160  :     
; 161  :     rect.left   = _brush_pos.x - 0.5f;

	mov	rax, QWORD PTR this$[rsp]
	movss	xmm0, DWORD PTR [rax+452]
	subss	xmm0, DWORD PTR __real@3f000000
	movss	DWORD PTR rect$[rsp], xmm0

; 162  :     rect.top    = _brush_pos.y - 0.5f;

	mov	rax, QWORD PTR this$[rsp]
	movss	xmm0, DWORD PTR [rax+456]
	subss	xmm0, DWORD PTR __real@3f000000
	movss	DWORD PTR rect$[rsp+4], xmm0

; 163  :     rect.width  = w;

	movss	xmm0, DWORD PTR w$[rsp]
	movss	DWORD PTR rect$[rsp+8], xmm0

; 164  :     rect.height = h;

	movss	xmm0, DWORD PTR h$[rsp]
	movss	DWORD PTR rect$[rsp+12], xmm0

; 165  : 
; 166  :     suites.DBPathSuite()->AddRect(pathP.Get(), &rect);

	lea	rcx, QWORD PTR pathP$[rsp]
	call	?Get@?$SharedRefImpl@PEAU_DRAWBOT_PathRef@@@@QEBAPEAU_DRAWBOT_PathRef@@XZ ; SharedRefImpl<_DRAWBOT_PathRef * __ptr64>::Get
	mov	rbx, rax
	mov	rcx, QWORD PTR this$[rsp]
	call	?DBPathSuite@AEGP_SuiteHandler@@QEBAPEAUDRAWBOT_PathSuite1@@XZ ; AEGP_SuiteHandler::DBPathSuite
	lea	rdx, QWORD PTR rect$[rsp]
	mov	rcx, rbx
	call	QWORD PTR [rax+24]

; 167  :     
; 168  :     suites.DBSurfaceSuite()->StrokePath(_surface_ref, penP.Get(), pathP.Get());

	lea	rcx, QWORD PTR pathP$[rsp]
	call	?Get@?$SharedRefImpl@PEAU_DRAWBOT_PathRef@@@@QEBAPEAU_DRAWBOT_PathRef@@XZ ; SharedRefImpl<_DRAWBOT_PathRef * __ptr64>::Get
	mov	rdi, rax
	lea	rcx, QWORD PTR penP$[rsp]
	call	?Get@?$SharedRefImpl@PEAU_DRAWBOT_PenRef@@@@QEBAPEAU_DRAWBOT_PenRef@@XZ ; SharedRefImpl<_DRAWBOT_PenRef * __ptr64>::Get
	mov	rbx, rax
	mov	rcx, QWORD PTR this$[rsp]
	call	?DBSurfaceSuite@AEGP_SuiteHandler@@QEBAPEAUDRAWBOT_SurfaceSuite1@@XZ ; AEGP_SuiteHandler::DBSurfaceSuite
	mov	r8, rdi
	mov	rdx, rbx
	mov	rcx, QWORD PTR this$[rsp]
	mov	rcx, QWORD PTR [rcx+444]
	call	QWORD PTR [rax+32]
	npad	1

; 169  : }

	lea	rcx, QWORD PTR penP$[rsp]
	call	??1DRAWBOT_PenP@@UEAA@XZ
	npad	1
	lea	rcx, QWORD PTR pathP$[rsp]
	call	??1DRAWBOT_PathP@@UEAA@XZ
	add	rsp, 136				; 00000088H
	pop	rdi
	pop	rbx
	ret	0
?DrawRect@DrawbotBot@@QEBAXMMM@Z ENDP			; DrawbotBot::DrawRect
; Function compile flags: /Odtp
_TEXT	ENDS
text$x	SEGMENT
rect$ = 48
pathP$ = 64
penP$ = 88
$T22575 = 112
this$ = 160
w$ = 168
h$ = 176
brush_size$ = 184
?dtor$0@?0??DrawRect@DrawbotBot@@QEBAXMMM@Z@4HA PROC	; `DrawbotBot::DrawRect'::`1'::dtor$0
	push	rbp
	sub	rsp, 32					; 00000020H
	mov	rbp, rdx
	lea	rcx, QWORD PTR pathP$[rbp]
	call	??1DRAWBOT_PathP@@UEAA@XZ
	add	rsp, 32					; 00000020H
	pop	rbp
	ret	0
?dtor$0@?0??DrawRect@DrawbotBot@@QEBAXMMM@Z@4HA ENDP	; `DrawbotBot::DrawRect'::`1'::dtor$0
; Function compile flags: /Odtp
rect$ = 48
pathP$ = 64
penP$ = 88
$T22575 = 112
this$ = 160
w$ = 168
h$ = 176
brush_size$ = 184
?dtor$1@?0??DrawRect@DrawbotBot@@QEBAXMMM@Z@4HA PROC	; `DrawbotBot::DrawRect'::`1'::dtor$1
	push	rbp
	sub	rsp, 32					; 00000020H
	mov	rbp, rdx
	lea	rcx, QWORD PTR penP$[rbp]
	call	??1DRAWBOT_PenP@@UEAA@XZ
	add	rsp, 32					; 00000020H
	pop	rbp
	ret	0
?dtor$1@?0??DrawRect@DrawbotBot@@QEBAXMMM@Z@4HA ENDP	; `DrawbotBot::DrawRect'::`1'::dtor$1
text$x	ENDS
PUBLIC	?PaintRect@DrawbotBot@@QEBAXMM@Z		; DrawbotBot::PaintRect
pdata	SEGMENT
$pdata$?PaintRect@DrawbotBot@@QEBAXMM@Z DD imagerel $LN3
	DD	imagerel $LN3+135
	DD	imagerel $unwind$?PaintRect@DrawbotBot@@QEBAXMM@Z
pdata	ENDS
xdata	SEGMENT
$unwind$?PaintRect@DrawbotBot@@QEBAXMM@Z DD 021601H
	DD	030125216H
; Function compile flags: /Odtp
xdata	ENDS
_TEXT	SEGMENT
rect$ = 32
this$ = 64
w$ = 72
h$ = 80
?PaintRect@DrawbotBot@@QEBAXMM@Z PROC			; DrawbotBot::PaintRect

; 172  : {

$LN3:
	movss	DWORD PTR [rsp+24], xmm2
	movss	DWORD PTR [rsp+16], xmm1
	mov	QWORD PTR [rsp+8], rcx
	push	rbx
	sub	rsp, 48					; 00000030H

; 173  :     DRAWBOT_RectF32 rect;
; 174  :     
; 175  :     rect.left   = _brush_pos.x;

	mov	rax, QWORD PTR this$[rsp]
	movss	xmm0, DWORD PTR [rax+452]
	movss	DWORD PTR rect$[rsp], xmm0

; 176  :     rect.top    = _brush_pos.y;

	mov	rax, QWORD PTR this$[rsp]
	movss	xmm0, DWORD PTR [rax+456]
	movss	DWORD PTR rect$[rsp+4], xmm0

; 177  :     rect.width  = w;

	movss	xmm0, DWORD PTR w$[rsp]
	movss	DWORD PTR rect$[rsp+8], xmm0

; 178  :     rect.height = h;

	movss	xmm0, DWORD PTR h$[rsp]
	movss	DWORD PTR rect$[rsp+12], xmm0

; 179  :     
; 180  :     suites.DBSurfaceSuite()->PaintRect(_surface_ref, &_brush_color, &rect);

	mov	rbx, QWORD PTR this$[rsp]
	add	rbx, 460				; 000001ccH
	mov	rcx, QWORD PTR this$[rsp]
	call	?DBSurfaceSuite@AEGP_SuiteHandler@@QEBAPEAUDRAWBOT_SurfaceSuite1@@XZ ; AEGP_SuiteHandler::DBSurfaceSuite
	lea	r8, QWORD PTR rect$[rsp]
	mov	rdx, rbx
	mov	rcx, QWORD PTR this$[rsp]
	mov	rcx, QWORD PTR [rcx+444]
	call	QWORD PTR [rax+16]

; 181  : }

	add	rsp, 48					; 00000030H
	pop	rbx
	ret	0
?PaintRect@DrawbotBot@@QEBAXMM@Z ENDP			; DrawbotBot::PaintRect
_TEXT	ENDS
PUBLIC	??1DRAWBOT_BrushP@@UEAA@XZ			; DRAWBOT_BrushP::~DRAWBOT_BrushP
PUBLIC	?Get@?$SharedRefImpl@PEAU_DRAWBOT_BrushRef@@@@QEBAPEAU_DRAWBOT_BrushRef@@XZ ; SharedRefImpl<_DRAWBOT_BrushRef * __ptr64>::Get
PUBLIC	__real@40000000
PUBLIC	??0DRAWBOT_BrushP@@QEAA@PEAUDRAWBOT_SupplierSuite1@@QEAU_DRAWBOT_SupplierRef@@PEBUDRAWBOT_ColorRGBA@@@Z ; DRAWBOT_BrushP::DRAWBOT_BrushP
PUBLIC	?PaintTriangle@DrawbotBot@@QEBAXMM@Z		; DrawbotBot::PaintTriangle
pdata	SEGMENT
$pdata$?PaintTriangle@DrawbotBot@@QEBAXMM@Z DD imagerel $LN5
	DD	imagerel $LN5+534
	DD	imagerel $unwind$?PaintTriangle@DrawbotBot@@QEBAXMM@Z
pdata	ENDS
pdata	SEGMENT
$pdata$?dtor$0@?0??PaintTriangle@DrawbotBot@@QEBAXMM@Z@4HA DD imagerel ?dtor$0@?0??PaintTriangle@DrawbotBot@@QEBAXMM@Z@4HA
	DD	imagerel ?dtor$0@?0??PaintTriangle@DrawbotBot@@QEBAXMM@Z@4HA+24
	DD	imagerel $unwind$?dtor$0@?0??PaintTriangle@DrawbotBot@@QEBAXMM@Z@4HA
$pdata$?dtor$1@?0??PaintTriangle@DrawbotBot@@QEBAXMM@Z@4HA DD imagerel ?dtor$1@?0??PaintTriangle@DrawbotBot@@QEBAXMM@Z@4HA
	DD	imagerel ?dtor$1@?0??PaintTriangle@DrawbotBot@@QEBAXMM@Z@4HA+24
	DD	imagerel $unwind$?dtor$1@?0??PaintTriangle@DrawbotBot@@QEBAXMM@Z@4HA
pdata	ENDS
CONST	SEGMENT
$cppxdata$?PaintTriangle@DrawbotBot@@QEBAXMM@Z DD 019930522H
	DD	02H
	DD	imagerel $stateUnwindMap$?PaintTriangle@DrawbotBot@@QEBAXMM@Z
	DD	00H
	DD	00H
	DD	05H
	DD	imagerel $ip2state$?PaintTriangle@DrawbotBot@@QEBAXMM@Z
	DD	050H
	DD	00H
	DD	01H
CONST	ENDS
xdata	SEGMENT
$stateUnwindMap$?PaintTriangle@DrawbotBot@@QEBAXMM@Z DD 0ffffffffH
	DD	imagerel ?dtor$0@?0??PaintTriangle@DrawbotBot@@QEBAXMM@Z@4HA
	DD	00H
	DD	imagerel ?dtor$1@?0??PaintTriangle@DrawbotBot@@QEBAXMM@Z@4HA
$unwind$?PaintTriangle@DrawbotBot@@QEBAXMM@Z DD 082d11H
	DD	06782dH
	DD	076828H
	DD	011011aH
	DD	030127013H
	DD	imagerel __CxxFrameHandler3
	DD	imagerel $cppxdata$?PaintTriangle@DrawbotBot@@QEBAXMM@Z
$unwind$?dtor$0@?0??PaintTriangle@DrawbotBot@@QEBAXMM@Z@4HA DD 020601H
	DD	050023206H
$unwind$?dtor$1@?0??PaintTriangle@DrawbotBot@@QEBAXMM@Z@4HA DD 020601H
	DD	050023206H
$ip2state$?PaintTriangle@DrawbotBot@@QEBAXMM@Z DD imagerel ?PaintTriangle@DrawbotBot@@QEBAXMM@Z
	DD	0ffffffffH
	DD	imagerel ?PaintTriangle@DrawbotBot@@QEBAXMM@Z+86
	DD	00H
	DD	imagerel ?PaintTriangle@DrawbotBot@@QEBAXMM@Z+142
	DD	01H
	DD	imagerel ?PaintTriangle@DrawbotBot@@QEBAXMM@Z+493
	DD	00H
	DD	imagerel ?PaintTriangle@DrawbotBot@@QEBAXMM@Z+504
	DD	0ffffffffH
xdata	ENDS
;	COMDAT __real@40000000
CONST	SEGMENT
__real@40000000 DD 040000000r			; 2
; Function compile flags: /Odtp
CONST	ENDS
_TEXT	SEGMENT
pathP$ = 32
brushP$ = 56
$T22598 = 80
this$ = 160
w$ = 168
h$ = 176
?PaintTriangle@DrawbotBot@@QEBAXMM@Z PROC		; DrawbotBot::PaintTriangle

; 185  : {

$LN5:
	movss	DWORD PTR [rsp+24], xmm2
	movss	DWORD PTR [rsp+16], xmm1
	mov	QWORD PTR [rsp+8], rcx
	push	rbx
	push	rdi
	sub	rsp, 136				; 00000088H
	mov	QWORD PTR $T22598[rsp], -2
	movaps	XMMWORD PTR [rsp+112], xmm6
	movaps	XMMWORD PTR [rsp+96], xmm7

; 186  :     DRAWBOT_PathP pathP(_suiteP, _supplier_ref);

	mov	r8, QWORD PTR this$[rsp]
	mov	r8, QWORD PTR [r8+436]
	mov	rdx, QWORD PTR this$[rsp]
	mov	rdx, QWORD PTR [rdx+420]
	lea	rcx, QWORD PTR pathP$[rsp]
	call	??0DRAWBOT_PathP@@QEAA@PEAUDRAWBOT_SupplierSuite1@@QEAU_DRAWBOT_SupplierRef@@@Z ; DRAWBOT_PathP::DRAWBOT_PathP
	npad	1

; 187  :     DRAWBOT_BrushP brushP(_suiteP, _supplier_ref, &_brush_color);

	mov	r9, QWORD PTR this$[rsp]
	add	r9, 460					; 000001ccH
	mov	r8, QWORD PTR this$[rsp]
	mov	r8, QWORD PTR [r8+436]
	mov	rdx, QWORD PTR this$[rsp]
	mov	rdx, QWORD PTR [rdx+420]
	lea	rcx, QWORD PTR brushP$[rsp]
	call	??0DRAWBOT_BrushP@@QEAA@PEAUDRAWBOT_SupplierSuite1@@QEAU_DRAWBOT_SupplierRef@@PEBUDRAWBOT_ColorRGBA@@@Z ; DRAWBOT_BrushP::DRAWBOT_BrushP
	npad	1

; 188  :     
; 189  :     suites.DBPathSuite()->MoveTo(pathP.Get(), _brush_pos.x, _brush_pos.y);

	lea	rcx, QWORD PTR pathP$[rsp]
	call	?Get@?$SharedRefImpl@PEAU_DRAWBOT_PathRef@@@@QEBAPEAU_DRAWBOT_PathRef@@XZ ; SharedRefImpl<_DRAWBOT_PathRef * __ptr64>::Get
	mov	rbx, rax
	mov	rcx, QWORD PTR this$[rsp]
	call	?DBPathSuite@AEGP_SuiteHandler@@QEBAPEAUDRAWBOT_PathSuite1@@XZ ; AEGP_SuiteHandler::DBPathSuite
	mov	r11, rax
	mov	rax, QWORD PTR this$[rsp]
	movss	xmm2, DWORD PTR [rax+456]
	mov	rax, QWORD PTR this$[rsp]
	movss	xmm1, DWORD PTR [rax+452]
	mov	rcx, rbx
	call	QWORD PTR [r11]

; 190  :     
; 191  :     suites.DBPathSuite()->LineTo(pathP.Get(), _brush_pos.x + w, _brush_pos.y);

	mov	r11, QWORD PTR this$[rsp]
	movss	xmm6, DWORD PTR [r11+452]
	addss	xmm6, DWORD PTR w$[rsp]
	lea	rcx, QWORD PTR pathP$[rsp]
	call	?Get@?$SharedRefImpl@PEAU_DRAWBOT_PathRef@@@@QEBAPEAU_DRAWBOT_PathRef@@XZ ; SharedRefImpl<_DRAWBOT_PathRef * __ptr64>::Get
	mov	rbx, rax
	mov	rcx, QWORD PTR this$[rsp]
	call	?DBPathSuite@AEGP_SuiteHandler@@QEBAPEAUDRAWBOT_PathSuite1@@XZ ; AEGP_SuiteHandler::DBPathSuite
	mov	r11, rax
	mov	rax, QWORD PTR this$[rsp]
	movss	xmm2, DWORD PTR [rax+456]
	movaps	xmm1, xmm6
	mov	rcx, rbx
	call	QWORD PTR [r11+8]

; 192  :     
; 193  :     suites.DBPathSuite()->LineTo(pathP.Get(), _brush_pos.x + (w / 2.f),
; 194  :                                         _brush_pos.y + h);

	mov	r11, QWORD PTR this$[rsp]
	movss	xmm7, DWORD PTR [r11+456]
	addss	xmm7, DWORD PTR h$[rsp]
	movss	xmm0, DWORD PTR w$[rsp]
	divss	xmm0, DWORD PTR __real@40000000
	mov	rax, QWORD PTR this$[rsp]
	movss	xmm6, DWORD PTR [rax+452]
	addss	xmm6, xmm0
	lea	rcx, QWORD PTR pathP$[rsp]
	call	?Get@?$SharedRefImpl@PEAU_DRAWBOT_PathRef@@@@QEBAPEAU_DRAWBOT_PathRef@@XZ ; SharedRefImpl<_DRAWBOT_PathRef * __ptr64>::Get
	mov	rbx, rax
	mov	rcx, QWORD PTR this$[rsp]
	call	?DBPathSuite@AEGP_SuiteHandler@@QEBAPEAUDRAWBOT_PathSuite1@@XZ ; AEGP_SuiteHandler::DBPathSuite
	movaps	xmm2, xmm7
	movaps	xmm1, xmm6
	mov	rcx, rbx
	call	QWORD PTR [rax+8]

; 195  :     
; 196  :     suites.DBPathSuite()->Close(pathP.Get());

	lea	rcx, QWORD PTR pathP$[rsp]
	call	?Get@?$SharedRefImpl@PEAU_DRAWBOT_PathRef@@@@QEBAPEAU_DRAWBOT_PathRef@@XZ ; SharedRefImpl<_DRAWBOT_PathRef * __ptr64>::Get
	mov	rbx, rax
	mov	rcx, QWORD PTR this$[rsp]
	call	?DBPathSuite@AEGP_SuiteHandler@@QEBAPEAUDRAWBOT_PathSuite1@@XZ ; AEGP_SuiteHandler::DBPathSuite
	mov	rcx, rbx
	call	QWORD PTR [rax+40]

; 197  :     
; 198  :     suites.DBSurfaceSuite()->FillPath(_surface_ref, brushP.Get(), pathP.Get(),
; 199  :                                             kDRAWBOT_FillType_Default);

	lea	rcx, QWORD PTR pathP$[rsp]
	call	?Get@?$SharedRefImpl@PEAU_DRAWBOT_PathRef@@@@QEBAPEAU_DRAWBOT_PathRef@@XZ ; SharedRefImpl<_DRAWBOT_PathRef * __ptr64>::Get
	mov	rdi, rax
	lea	rcx, QWORD PTR brushP$[rsp]
	call	?Get@?$SharedRefImpl@PEAU_DRAWBOT_BrushRef@@@@QEBAPEAU_DRAWBOT_BrushRef@@XZ ; SharedRefImpl<_DRAWBOT_BrushRef * __ptr64>::Get
	mov	rbx, rax
	mov	rcx, QWORD PTR this$[rsp]
	call	?DBSurfaceSuite@AEGP_SuiteHandler@@QEBAPEAUDRAWBOT_SurfaceSuite1@@XZ ; AEGP_SuiteHandler::DBSurfaceSuite
	mov	r9d, 1
	mov	r8, rdi
	mov	rdx, rbx
	mov	rcx, QWORD PTR this$[rsp]
	mov	rcx, QWORD PTR [rcx+444]
	call	QWORD PTR [rax+24]
	npad	1

; 200  : }

	lea	rcx, QWORD PTR brushP$[rsp]
	call	??1DRAWBOT_BrushP@@UEAA@XZ
	npad	1
	lea	rcx, QWORD PTR pathP$[rsp]
	call	??1DRAWBOT_PathP@@UEAA@XZ
	movaps	xmm6, XMMWORD PTR [rsp+112]
	movaps	xmm7, XMMWORD PTR [rsp+96]
	add	rsp, 136				; 00000088H
	pop	rdi
	pop	rbx
	ret	0
?PaintTriangle@DrawbotBot@@QEBAXMM@Z ENDP		; DrawbotBot::PaintTriangle
; Function compile flags: /Odtp
_TEXT	ENDS
text$x	SEGMENT
pathP$ = 32
brushP$ = 56
$T22598 = 80
this$ = 160
w$ = 168
h$ = 176
?dtor$0@?0??PaintTriangle@DrawbotBot@@QEBAXMM@Z@4HA PROC ; `DrawbotBot::PaintTriangle'::`1'::dtor$0
	push	rbp
	sub	rsp, 32					; 00000020H
	mov	rbp, rdx
	lea	rcx, QWORD PTR pathP$[rbp]
	call	??1DRAWBOT_PathP@@UEAA@XZ
	add	rsp, 32					; 00000020H
	pop	rbp
	ret	0
?dtor$0@?0??PaintTriangle@DrawbotBot@@QEBAXMM@Z@4HA ENDP ; `DrawbotBot::PaintTriangle'::`1'::dtor$0
; Function compile flags: /Odtp
pathP$ = 32
brushP$ = 56
$T22598 = 80
this$ = 160
w$ = 168
h$ = 176
?dtor$1@?0??PaintTriangle@DrawbotBot@@QEBAXMM@Z@4HA PROC ; `DrawbotBot::PaintTriangle'::`1'::dtor$1
	push	rbp
	sub	rsp, 32					; 00000020H
	mov	rbp, rdx
	lea	rcx, QWORD PTR brushP$[rbp]
	call	??1DRAWBOT_BrushP@@UEAA@XZ
	add	rsp, 32					; 00000020H
	pop	rbp
	ret	0
?dtor$1@?0??PaintTriangle@DrawbotBot@@QEBAXMM@Z@4HA ENDP ; `DrawbotBot::PaintTriangle'::`1'::dtor$1
text$x	ENDS
PUBLIC	??1?$SharedRefImpl@PEAU_DRAWBOT_BrushRef@@@@UEAA@XZ ; SharedRefImpl<_DRAWBOT_BrushRef * __ptr64>::~SharedRefImpl<_DRAWBOT_BrushRef * __ptr64>
PUBLIC	?New@DRAWBOT_BrushP@@QEAAXPEAUDRAWBOT_SupplierSuite1@@QEAU_DRAWBOT_SupplierRef@@PEBUDRAWBOT_ColorRGBA@@@Z ; DRAWBOT_BrushP::New
PUBLIC	??_7DRAWBOT_BrushP@@6B@				; DRAWBOT_BrushP::`vftable'
PUBLIC	??0?$SharedRefImpl@PEAU_DRAWBOT_BrushRef@@@@QEAA@PEAUDRAWBOT_SupplierSuite1@@PEAU_DRAWBOT_BrushRef@@_N@Z ; SharedRefImpl<_DRAWBOT_BrushRef * __ptr64>::SharedRefImpl<_DRAWBOT_BrushRef * __ptr64>
PUBLIC	??_R4DRAWBOT_BrushP@@6B@			; DRAWBOT_BrushP::`RTTI Complete Object Locator'
PUBLIC	??_R0?AVDRAWBOT_BrushP@@@8			; DRAWBOT_BrushP `RTTI Type Descriptor'
PUBLIC	??_R3DRAWBOT_BrushP@@8				; DRAWBOT_BrushP::`RTTI Class Hierarchy Descriptor'
PUBLIC	??_R2DRAWBOT_BrushP@@8				; DRAWBOT_BrushP::`RTTI Base Class Array'
PUBLIC	??_R1A@?0A@EA@DRAWBOT_BrushP@@8			; DRAWBOT_BrushP::`RTTI Base Class Descriptor at (0,-1,0,64)'
PUBLIC	??_R1A@?0A@EA@?$SharedRefImpl@PEAU_DRAWBOT_BrushRef@@@@8 ; SharedRefImpl<_DRAWBOT_BrushRef * __ptr64>::`RTTI Base Class Descriptor at (0,-1,0,64)'
PUBLIC	??_R0?AV?$SharedRefImpl@PEAU_DRAWBOT_BrushRef@@@@@8 ; SharedRefImpl<_DRAWBOT_BrushRef * __ptr64> `RTTI Type Descriptor'
PUBLIC	??_R3?$SharedRefImpl@PEAU_DRAWBOT_BrushRef@@@@8	; SharedRefImpl<_DRAWBOT_BrushRef * __ptr64>::`RTTI Class Hierarchy Descriptor'
PUBLIC	??_R2?$SharedRefImpl@PEAU_DRAWBOT_BrushRef@@@@8	; SharedRefImpl<_DRAWBOT_BrushRef * __ptr64>::`RTTI Base Class Array'
EXTRN	??_EDRAWBOT_BrushP@@UEAAPEAXI@Z:PROC		; DRAWBOT_BrushP::`vector deleting destructor'
;	COMDAT pdata
; File c:\users\brendan bolles\documents\development\proexr\ext\adobe after effects cc 2015 win sdk\examples\headers\adobesdk\drawbotsuite.h
pdata	SEGMENT
$pdata$??0DRAWBOT_BrushP@@QEAA@PEAUDRAWBOT_SupplierSuite1@@QEAU_DRAWBOT_SupplierRef@@PEBUDRAWBOT_ColorRGBA@@@Z DD imagerel $LN4
	DD	imagerel $LN4+106
	DD	imagerel $unwind$??0DRAWBOT_BrushP@@QEAA@PEAUDRAWBOT_SupplierSuite1@@QEAU_DRAWBOT_SupplierRef@@PEBUDRAWBOT_ColorRGBA@@@Z
pdata	ENDS
;	COMDAT pdata
pdata	SEGMENT
$pdata$?dtor$0@?0???0DRAWBOT_BrushP@@QEAA@PEAUDRAWBOT_SupplierSuite1@@QEAU_DRAWBOT_SupplierRef@@PEBUDRAWBOT_ColorRGBA@@@Z@4HA DD imagerel ?dtor$0@?0???0DRAWBOT_BrushP@@QEAA@PEAUDRAWBOT_SupplierSuite1@@QEAU_DRAWBOT_SupplierRef@@PEBUDRAWBOT_ColorRGBA@@@Z@4HA
	DD	imagerel ?dtor$0@?0???0DRAWBOT_BrushP@@QEAA@PEAUDRAWBOT_SupplierSuite1@@QEAU_DRAWBOT_SupplierRef@@PEBUDRAWBOT_ColorRGBA@@@Z@4HA+24
	DD	imagerel $unwind$?dtor$0@?0???0DRAWBOT_BrushP@@QEAA@PEAUDRAWBOT_SupplierSuite1@@QEAU_DRAWBOT_SupplierRef@@PEBUDRAWBOT_ColorRGBA@@@Z@4HA
pdata	ENDS
;	COMDAT xdata
xdata	SEGMENT
$ip2state$??0DRAWBOT_BrushP@@QEAA@PEAUDRAWBOT_SupplierSuite1@@QEAU_DRAWBOT_SupplierRef@@PEBUDRAWBOT_ColorRGBA@@@Z DD imagerel ??0DRAWBOT_BrushP@@QEAA@PEAUDRAWBOT_SupplierSuite1@@QEAU_DRAWBOT_SupplierRef@@PEBUDRAWBOT_ColorRGBA@@@Z
	DD	0ffffffffH
	DD	imagerel ??0DRAWBOT_BrushP@@QEAA@PEAUDRAWBOT_SupplierSuite1@@QEAU_DRAWBOT_SupplierRef@@PEBUDRAWBOT_ColorRGBA@@@Z+55
	DD	00H
	DD	imagerel ??0DRAWBOT_BrushP@@QEAA@PEAUDRAWBOT_SupplierSuite1@@QEAU_DRAWBOT_SupplierRef@@PEBUDRAWBOT_ColorRGBA@@@Z+96
	DD	0ffffffffH
xdata	ENDS
;	COMDAT ??_R2?$SharedRefImpl@PEAU_DRAWBOT_BrushRef@@@@8
rdata$r	SEGMENT
??_R2?$SharedRefImpl@PEAU_DRAWBOT_BrushRef@@@@8 DD imagerel ??_R1A@?0A@EA@?$SharedRefImpl@PEAU_DRAWBOT_BrushRef@@@@8 ; SharedRefImpl<_DRAWBOT_BrushRef * __ptr64>::`RTTI Base Class Array'
	ORG $+3
rdata$r	ENDS
;	COMDAT ??_R3?$SharedRefImpl@PEAU_DRAWBOT_BrushRef@@@@8
rdata$r	SEGMENT
??_R3?$SharedRefImpl@PEAU_DRAWBOT_BrushRef@@@@8 DD 00H	; SharedRefImpl<_DRAWBOT_BrushRef * __ptr64>::`RTTI Class Hierarchy Descriptor'
	DD	00H
	DD	01H
	DD	imagerel ??_R2?$SharedRefImpl@PEAU_DRAWBOT_BrushRef@@@@8
rdata$r	ENDS
;	COMDAT ??_R0?AV?$SharedRefImpl@PEAU_DRAWBOT_BrushRef@@@@@8
_DATA	SEGMENT
??_R0?AV?$SharedRefImpl@PEAU_DRAWBOT_BrushRef@@@@@8 DQ FLAT:??_7type_info@@6B@ ; SharedRefImpl<_DRAWBOT_BrushRef * __ptr64> `RTTI Type Descriptor'
	DQ	0000000000000000H
	DB	'.?AV?$SharedRefImpl@PEAU_DRAWBOT_BrushRef@@@@', 00H
_DATA	ENDS
;	COMDAT ??_R1A@?0A@EA@?$SharedRefImpl@PEAU_DRAWBOT_BrushRef@@@@8
rdata$r	SEGMENT
??_R1A@?0A@EA@?$SharedRefImpl@PEAU_DRAWBOT_BrushRef@@@@8 DD imagerel ??_R0?AV?$SharedRefImpl@PEAU_DRAWBOT_BrushRef@@@@@8 ; SharedRefImpl<_DRAWBOT_BrushRef * __ptr64>::`RTTI Base Class Descriptor at (0,-1,0,64)'
	DD	00H
	DD	00H
	DD	0ffffffffH
	DD	00H
	DD	040H
	DD	imagerel ??_R3?$SharedRefImpl@PEAU_DRAWBOT_BrushRef@@@@8
rdata$r	ENDS
;	COMDAT ??_R1A@?0A@EA@DRAWBOT_BrushP@@8
rdata$r	SEGMENT
??_R1A@?0A@EA@DRAWBOT_BrushP@@8 DD imagerel ??_R0?AVDRAWBOT_BrushP@@@8 ; DRAWBOT_BrushP::`RTTI Base Class Descriptor at (0,-1,0,64)'
	DD	01H
	DD	00H
	DD	0ffffffffH
	DD	00H
	DD	040H
	DD	imagerel ??_R3DRAWBOT_BrushP@@8
rdata$r	ENDS
;	COMDAT ??_R2DRAWBOT_BrushP@@8
rdata$r	SEGMENT
??_R2DRAWBOT_BrushP@@8 DD imagerel ??_R1A@?0A@EA@DRAWBOT_BrushP@@8 ; DRAWBOT_BrushP::`RTTI Base Class Array'
	DD	imagerel ??_R1A@?0A@EA@?$SharedRefImpl@PEAU_DRAWBOT_BrushRef@@@@8
	ORG $+3
rdata$r	ENDS
;	COMDAT ??_R3DRAWBOT_BrushP@@8
rdata$r	SEGMENT
??_R3DRAWBOT_BrushP@@8 DD 00H				; DRAWBOT_BrushP::`RTTI Class Hierarchy Descriptor'
	DD	00H
	DD	02H
	DD	imagerel ??_R2DRAWBOT_BrushP@@8
rdata$r	ENDS
;	COMDAT ??_R0?AVDRAWBOT_BrushP@@@8
_DATA	SEGMENT
??_R0?AVDRAWBOT_BrushP@@@8 DQ FLAT:??_7type_info@@6B@	; DRAWBOT_BrushP `RTTI Type Descriptor'
	DQ	0000000000000000H
	DB	'.?AVDRAWBOT_BrushP@@', 00H
_DATA	ENDS
;	COMDAT ??_R4DRAWBOT_BrushP@@6B@
rdata$r	SEGMENT
??_R4DRAWBOT_BrushP@@6B@ DD 01H				; DRAWBOT_BrushP::`RTTI Complete Object Locator'
	DD	00H
	DD	00H
	DD	imagerel ??_R0?AVDRAWBOT_BrushP@@@8
	DD	imagerel ??_R3DRAWBOT_BrushP@@8
	DD	imagerel ??_R4DRAWBOT_BrushP@@6B@
rdata$r	ENDS
;	COMDAT xdata
xdata	SEGMENT
$unwind$?dtor$0@?0???0DRAWBOT_BrushP@@QEAA@PEAUDRAWBOT_SupplierSuite1@@QEAU_DRAWBOT_SupplierRef@@PEBUDRAWBOT_ColorRGBA@@@Z@4HA DD 020601H
	DD	050023206H
xdata	ENDS
;	COMDAT xdata
xdata	SEGMENT
$unwind$??0DRAWBOT_BrushP@@QEAA@PEAUDRAWBOT_SupplierSuite1@@QEAU_DRAWBOT_SupplierRef@@PEBUDRAWBOT_ColorRGBA@@@Z DD 012111H
	DD	06218H
	DD	imagerel __CxxFrameHandler3
	DD	imagerel $cppxdata$??0DRAWBOT_BrushP@@QEAA@PEAUDRAWBOT_SupplierSuite1@@QEAU_DRAWBOT_SupplierRef@@PEBUDRAWBOT_ColorRGBA@@@Z
xdata	ENDS
;	COMDAT CONST
CONST	SEGMENT
$cppxdata$??0DRAWBOT_BrushP@@QEAA@PEAUDRAWBOT_SupplierSuite1@@QEAU_DRAWBOT_SupplierRef@@PEBUDRAWBOT_ColorRGBA@@@Z DD 019930522H
	DD	01H
	DD	imagerel $stateUnwindMap$??0DRAWBOT_BrushP@@QEAA@PEAUDRAWBOT_SupplierSuite1@@QEAU_DRAWBOT_SupplierRef@@PEBUDRAWBOT_ColorRGBA@@@Z
	DD	00H
	DD	00H
	DD	03H
	DD	imagerel $ip2state$??0DRAWBOT_BrushP@@QEAA@PEAUDRAWBOT_SupplierSuite1@@QEAU_DRAWBOT_SupplierRef@@PEBUDRAWBOT_ColorRGBA@@@Z
	DD	020H
	DD	00H
	DD	01H
CONST	ENDS
;	COMDAT xdata
xdata	SEGMENT
$stateUnwindMap$??0DRAWBOT_BrushP@@QEAA@PEAUDRAWBOT_SupplierSuite1@@QEAU_DRAWBOT_SupplierRef@@PEBUDRAWBOT_ColorRGBA@@@Z DD 0ffffffffH
	DD	imagerel ?dtor$0@?0???0DRAWBOT_BrushP@@QEAA@PEAUDRAWBOT_SupplierSuite1@@QEAU_DRAWBOT_SupplierRef@@PEBUDRAWBOT_ColorRGBA@@@Z@4HA
xdata	ENDS
;	COMDAT ??_7DRAWBOT_BrushP@@6B@
CONST	SEGMENT
??_7DRAWBOT_BrushP@@6B@ DQ FLAT:??_R4DRAWBOT_BrushP@@6B@ ; DRAWBOT_BrushP::`vftable'
	DQ	FLAT:??_EDRAWBOT_BrushP@@UEAAPEAXI@Z
; Function compile flags: /Odtp
CONST	ENDS
;	COMDAT ??0DRAWBOT_BrushP@@QEAA@PEAUDRAWBOT_SupplierSuite1@@QEAU_DRAWBOT_SupplierRef@@PEBUDRAWBOT_ColorRGBA@@@Z
_TEXT	SEGMENT
$T22615 = 32
this$ = 64
suiteP$ = 72
supplier_ref$ = 80
colorP$ = 88
??0DRAWBOT_BrushP@@QEAA@PEAUDRAWBOT_SupplierSuite1@@QEAU_DRAWBOT_SupplierRef@@PEBUDRAWBOT_ColorRGBA@@@Z PROC ; DRAWBOT_BrushP::DRAWBOT_BrushP, COMDAT

; 589  : 	{

$LN4:
	mov	QWORD PTR [rsp+32], r9
	mov	QWORD PTR [rsp+24], r8
	mov	QWORD PTR [rsp+16], rdx
	mov	QWORD PTR [rsp+8], rcx
	sub	rsp, 56					; 00000038H
	mov	QWORD PTR $T22615[rsp], -2
	mov	r9b, 1
	xor	r8d, r8d
	mov	rdx, QWORD PTR suiteP$[rsp]
	mov	rcx, QWORD PTR this$[rsp]
	call	??0?$SharedRefImpl@PEAU_DRAWBOT_BrushRef@@@@QEAA@PEAUDRAWBOT_SupplierSuite1@@PEAU_DRAWBOT_BrushRef@@_N@Z ; SharedRefImpl<_DRAWBOT_BrushRef * __ptr64>::SharedRefImpl<_DRAWBOT_BrushRef * __ptr64>
	npad	1
	mov	rcx, QWORD PTR this$[rsp]
	lea	rax, OFFSET FLAT:??_7DRAWBOT_BrushP@@6B@
	mov	QWORD PTR [rcx], rax

; 590  : 		New(suiteP, supplier_ref, colorP);

	mov	r9, QWORD PTR colorP$[rsp]
	mov	r8, QWORD PTR supplier_ref$[rsp]
	mov	rdx, QWORD PTR suiteP$[rsp]
	mov	rcx, QWORD PTR this$[rsp]
	call	?New@DRAWBOT_BrushP@@QEAAXPEAUDRAWBOT_SupplierSuite1@@QEAU_DRAWBOT_SupplierRef@@PEBUDRAWBOT_ColorRGBA@@@Z ; DRAWBOT_BrushP::New
	npad	1

; 591  : 	}

	mov	rax, QWORD PTR this$[rsp]
	add	rsp, 56					; 00000038H
	ret	0
??0DRAWBOT_BrushP@@QEAA@PEAUDRAWBOT_SupplierSuite1@@QEAU_DRAWBOT_SupplierRef@@PEBUDRAWBOT_ColorRGBA@@@Z ENDP ; DRAWBOT_BrushP::DRAWBOT_BrushP
; Function compile flags: /Odtp
_TEXT	ENDS
;	COMDAT text$x
text$x	SEGMENT
$T22615 = 32
this$ = 64
suiteP$ = 72
supplier_ref$ = 80
colorP$ = 88
?dtor$0@?0???0DRAWBOT_BrushP@@QEAA@PEAUDRAWBOT_SupplierSuite1@@QEAU_DRAWBOT_SupplierRef@@PEBUDRAWBOT_ColorRGBA@@@Z@4HA PROC ; `DRAWBOT_BrushP::DRAWBOT_BrushP'::`1'::dtor$0
	push	rbp
	sub	rsp, 32					; 00000020H
	mov	rbp, rdx
	mov	rcx, QWORD PTR this$[rbp]
	call	??1?$SharedRefImpl@PEAU_DRAWBOT_BrushRef@@@@UEAA@XZ ; SharedRefImpl<_DRAWBOT_BrushRef * __ptr64>::~SharedRefImpl<_DRAWBOT_BrushRef * __ptr64>
	add	rsp, 32					; 00000020H
	pop	rbp
	ret	0
?dtor$0@?0???0DRAWBOT_BrushP@@QEAA@PEAUDRAWBOT_SupplierSuite1@@QEAU_DRAWBOT_SupplierRef@@PEBUDRAWBOT_ColorRGBA@@@Z@4HA ENDP ; `DRAWBOT_BrushP::DRAWBOT_BrushP'::`1'::dtor$0
text$x	ENDS
PUBLIC	?Reset@?$SharedRefImpl@PEAU_DRAWBOT_BrushRef@@@@QEAAXPEAU_DRAWBOT_BrushRef@@_N@Z ; SharedRefImpl<_DRAWBOT_BrushRef * __ptr64>::Reset
;	COMDAT pdata
pdata	SEGMENT
$pdata$?New@DRAWBOT_BrushP@@QEAAXPEAUDRAWBOT_SupplierSuite1@@QEAU_DRAWBOT_SupplierRef@@PEBUDRAWBOT_ColorRGBA@@@Z DD imagerel $LN4
	DD	imagerel $LN4+112
	DD	imagerel $unwind$?New@DRAWBOT_BrushP@@QEAAXPEAUDRAWBOT_SupplierSuite1@@QEAU_DRAWBOT_SupplierRef@@PEBUDRAWBOT_ColorRGBA@@@Z
pdata	ENDS
;	COMDAT xdata
xdata	SEGMENT
$unwind$?New@DRAWBOT_BrushP@@QEAAXPEAUDRAWBOT_SupplierSuite1@@QEAU_DRAWBOT_SupplierRef@@PEBUDRAWBOT_ColorRGBA@@@Z DD 011801H
	DD	0a218H
; Function compile flags: /Odtp
xdata	ENDS
;	COMDAT ?New@DRAWBOT_BrushP@@QEAAXPEAUDRAWBOT_SupplierSuite1@@QEAU_DRAWBOT_SupplierRef@@PEBUDRAWBOT_ColorRGBA@@@Z
_TEXT	SEGMENT
brush_ref$ = 32
_err$21023 = 40
$T22633 = 48
this$ = 96
suiteP$ = 104
supplier_ref$ = 112
colorP$ = 120
?New@DRAWBOT_BrushP@@QEAAXPEAUDRAWBOT_SupplierSuite1@@QEAU_DRAWBOT_SupplierRef@@PEBUDRAWBOT_ColorRGBA@@@Z PROC ; DRAWBOT_BrushP::New, COMDAT

; 596  : 	{

$LN4:
	mov	QWORD PTR [rsp+32], r9
	mov	QWORD PTR [rsp+24], r8
	mov	QWORD PTR [rsp+16], rdx
	mov	QWORD PTR [rsp+8], rcx
	sub	rsp, 88					; 00000058H

; 597  : 		DRAWBOT_BrushRef	brush_ref;
; 598  : 
; 599  : 		DRAWBOT_ErrorToException(suiteP->NewBrush(supplier_ref, colorP, &brush_ref));

	lea	r8, QWORD PTR brush_ref$[rsp]
	mov	rdx, QWORD PTR colorP$[rsp]
	mov	rcx, QWORD PTR supplier_ref$[rsp]
	mov	rax, QWORD PTR suiteP$[rsp]
	call	QWORD PTR [rax+8]
	mov	DWORD PTR _err$21023[rsp], eax
	cmp	DWORD PTR _err$21023[rsp], 0
	je	SHORT $LN1@New@3
	mov	edx, DWORD PTR _err$21023[rsp]
	lea	rcx, QWORD PTR $T22633[rsp]
	call	??0DRAWBOT_Exception@@QEAA@H@Z		; DRAWBOT_Exception::DRAWBOT_Exception
	lea	rdx, OFFSET FLAT:_TI2?AVDRAWBOT_Exception@@
	lea	rcx, QWORD PTR $T22633[rsp]
	call	_CxxThrowException
$LN1@New@3:

; 600  : 
; 601  : 		Reset(brush_ref, false);

	xor	r8d, r8d
	mov	rdx, QWORD PTR brush_ref$[rsp]
	mov	rcx, QWORD PTR this$[rsp]
	call	?Reset@?$SharedRefImpl@PEAU_DRAWBOT_BrushRef@@@@QEAAXPEAU_DRAWBOT_BrushRef@@_N@Z ; SharedRefImpl<_DRAWBOT_BrushRef * __ptr64>::Reset
$LN3@New@3:

; 602  : 	}

	add	rsp, 88					; 00000058H
	ret	0
?New@DRAWBOT_BrushP@@QEAAXPEAUDRAWBOT_SupplierSuite1@@QEAU_DRAWBOT_SupplierRef@@PEBUDRAWBOT_ColorRGBA@@@Z ENDP ; DRAWBOT_BrushP::New
_TEXT	ENDS
;	COMDAT pdata
pdata	SEGMENT
$pdata$??_GDRAWBOT_BrushP@@UEAAPEAXI@Z DD imagerel $LN4
	DD	imagerel $LN4+54
	DD	imagerel $unwind$??_GDRAWBOT_BrushP@@UEAAPEAXI@Z
pdata	ENDS
;	COMDAT xdata
xdata	SEGMENT
$unwind$??_GDRAWBOT_BrushP@@UEAAPEAXI@Z DD 010d01H
	DD	0420dH
; Function compile flags: /Odtp
xdata	ENDS
;	COMDAT ??_GDRAWBOT_BrushP@@UEAAPEAXI@Z
_TEXT	SEGMENT
this$ = 48
__flags$ = 56
??_GDRAWBOT_BrushP@@UEAAPEAXI@Z PROC			; DRAWBOT_BrushP::`scalar deleting destructor', COMDAT
$LN4:
	mov	DWORD PTR [rsp+16], edx
	mov	QWORD PTR [rsp+8], rcx
	sub	rsp, 40					; 00000028H
	mov	rcx, QWORD PTR this$[rsp]
	call	??1DRAWBOT_BrushP@@UEAA@XZ
	mov	eax, DWORD PTR __flags$[rsp]
	and	eax, 1
	test	eax, eax
	je	SHORT $LN1@scalar@4
	mov	rcx, QWORD PTR this$[rsp]
	call	??3@YAXPEAX@Z				; operator delete
$LN1@scalar@4:
	mov	rax, QWORD PTR this$[rsp]
	add	rsp, 40					; 00000028H
	ret	0
??_GDRAWBOT_BrushP@@UEAAPEAXI@Z ENDP			; DRAWBOT_BrushP::`scalar deleting destructor'
_TEXT	ENDS
;	COMDAT pdata
pdata	SEGMENT
$pdata$??1DRAWBOT_BrushP@@UEAA@XZ DD imagerel $LN4
	DD	imagerel $LN4+24
	DD	imagerel $unwind$??1DRAWBOT_BrushP@@UEAA@XZ
pdata	ENDS
;	COMDAT xdata
xdata	SEGMENT
$unwind$??1DRAWBOT_BrushP@@UEAA@XZ DD 010901H
	DD	04209H
; Function compile flags: /Odtp
xdata	ENDS
;	COMDAT ??1DRAWBOT_BrushP@@UEAA@XZ
_TEXT	SEGMENT
this$ = 48
??1DRAWBOT_BrushP@@UEAA@XZ PROC				; DRAWBOT_BrushP::~DRAWBOT_BrushP, COMDAT
$LN4:
	mov	QWORD PTR [rsp+8], rcx
	sub	rsp, 40					; 00000028H
	mov	rcx, QWORD PTR this$[rsp]
	call	??1?$SharedRefImpl@PEAU_DRAWBOT_BrushRef@@@@UEAA@XZ ; SharedRefImpl<_DRAWBOT_BrushRef * __ptr64>::~SharedRefImpl<_DRAWBOT_BrushRef * __ptr64>
	add	rsp, 40					; 00000028H
	ret	0
??1DRAWBOT_BrushP@@UEAA@XZ ENDP				; DRAWBOT_BrushP::~DRAWBOT_BrushP
_TEXT	ENDS
PUBLIC	??1DRAWBOT_FontP@@UEAA@XZ			; DRAWBOT_FontP::~DRAWBOT_FontP
PUBLIC	?Get@?$SharedRefImpl@PEAU_DRAWBOT_FontRef@@@@QEBAPEAU_DRAWBOT_FontRef@@XZ ; SharedRefImpl<_DRAWBOT_FontRef * __ptr64>::Get
PUBLIC	??0DRAWBOT_FontP@@QEAA@PEAUDRAWBOT_SupplierSuite1@@QEAU_DRAWBOT_SupplierRef@@M@Z ; DRAWBOT_FontP::DRAWBOT_FontP
PUBLIC	?DrawString@DrawbotBot@@QEBAXPEBGHHM@Z		; DrawbotBot::DrawString
pdata	SEGMENT
$pdata$?DrawString@DrawbotBot@@QEBAXPEBGHHM@Z DD imagerel $LN5
	DD	imagerel $LN5+317
	DD	imagerel $unwind$?DrawString@DrawbotBot@@QEBAXPEBGHHM@Z
pdata	ENDS
pdata	SEGMENT
$pdata$?dtor$0@?0??DrawString@DrawbotBot@@QEBAXPEBGHHM@Z@4HA DD imagerel ?dtor$0@?0??DrawString@DrawbotBot@@QEBAXPEBGHHM@Z@4HA
	DD	imagerel ?dtor$0@?0??DrawString@DrawbotBot@@QEBAXPEBGHHM@Z@4HA+24
	DD	imagerel $unwind$?dtor$0@?0??DrawString@DrawbotBot@@QEBAXPEBGHHM@Z@4HA
$pdata$?dtor$1@?0??DrawString@DrawbotBot@@QEBAXPEBGHHM@Z@4HA DD imagerel ?dtor$1@?0??DrawString@DrawbotBot@@QEBAXPEBGHHM@Z@4HA
	DD	imagerel ?dtor$1@?0??DrawString@DrawbotBot@@QEBAXPEBGHHM@Z@4HA+24
	DD	imagerel $unwind$?dtor$1@?0??DrawString@DrawbotBot@@QEBAXPEBGHHM@Z@4HA
pdata	ENDS
CONST	SEGMENT
$cppxdata$?DrawString@DrawbotBot@@QEBAXPEBGHHM@Z DD 019930522H
	DD	02H
	DD	imagerel $stateUnwindMap$?DrawString@DrawbotBot@@QEBAXPEBGHHM@Z
	DD	00H
	DD	00H
	DD	05H
	DD	imagerel $ip2state$?DrawString@DrawbotBot@@QEBAXPEBGHHM@Z
	DD	070H
	DD	00H
	DD	01H
CONST	ENDS
xdata	SEGMENT
$stateUnwindMap$?DrawString@DrawbotBot@@QEBAXPEBGHHM@Z DD 0ffffffffH
	DD	imagerel ?dtor$0@?0??DrawString@DrawbotBot@@QEBAXPEBGHHM@Z@4HA
	DD	00H
	DD	imagerel ?dtor$1@?0??DrawString@DrawbotBot@@QEBAXPEBGHHM@Z@4HA
$unwind$?DrawString@DrawbotBot@@QEBAXPEBGHHM@Z DD 042711H
	DD	07017f21eH
	DD	030156016H
	DD	imagerel __CxxFrameHandler3
	DD	imagerel $cppxdata$?DrawString@DrawbotBot@@QEBAXPEBGHHM@Z
$unwind$?dtor$0@?0??DrawString@DrawbotBot@@QEBAXPEBGHHM@Z@4HA DD 020601H
	DD	050023206H
$unwind$?dtor$1@?0??DrawString@DrawbotBot@@QEBAXPEBGHHM@Z@4HA DD 020601H
	DD	050023206H
$ip2state$?DrawString@DrawbotBot@@QEBAXPEBGHHM@Z DD imagerel ?DrawString@DrawbotBot@@QEBAXPEBGHHM@Z
	DD	0ffffffffH
	DD	imagerel ?DrawString@DrawbotBot@@QEBAXPEBGHHM@Z+95
	DD	00H
	DD	imagerel ?DrawString@DrawbotBot@@QEBAXPEBGHHM@Z+152
	DD	01H
	DD	imagerel ?DrawString@DrawbotBot@@QEBAXPEBGHHM@Z+285
	DD	00H
	DD	imagerel ?DrawString@DrawbotBot@@QEBAXPEBGHHM@Z+296
	DD	0ffffffffH
; Function compile flags: /Odtp
; File c:\users\brendan bolles\documents\development\proexr\src\aftereffects\drawbotbot.cpp
xdata	ENDS
_TEXT	SEGMENT
brushP$ = 64
fontP$ = 88
$T22664 = 112
this$ = 160
str$ = 168
align$ = 176
truncate$ = 184
truncation_width$ = 192
?DrawString@DrawbotBot@@QEBAXPEBGHHM@Z PROC		; DrawbotBot::DrawString

; 208  : {

$LN5:
	mov	DWORD PTR [rsp+32], r9d
	mov	DWORD PTR [rsp+24], r8d
	mov	QWORD PTR [rsp+16], rdx
	mov	QWORD PTR [rsp+8], rcx
	push	rbx
	push	rsi
	push	rdi
	sub	rsp, 128				; 00000080H
	mov	QWORD PTR $T22664[rsp], -2

; 209  :     DRAWBOT_BrushP brushP(_suiteP, _supplier_ref, &_brush_color);

	mov	r9, QWORD PTR this$[rsp]
	add	r9, 460					; 000001ccH
	mov	r8, QWORD PTR this$[rsp]
	mov	r8, QWORD PTR [r8+436]
	mov	rdx, QWORD PTR this$[rsp]
	mov	rdx, QWORD PTR [rdx+420]
	lea	rcx, QWORD PTR brushP$[rsp]
	call	??0DRAWBOT_BrushP@@QEAA@PEAUDRAWBOT_SupplierSuite1@@QEAU_DRAWBOT_SupplierRef@@PEBUDRAWBOT_ColorRGBA@@@Z ; DRAWBOT_BrushP::DRAWBOT_BrushP
	npad	1

; 210  :     DRAWBOT_FontP fontP(_suiteP, _supplier_ref, _font_size);

	mov	rax, QWORD PTR this$[rsp]
	movss	xmm3, DWORD PTR [rax+476]
	mov	r8, QWORD PTR this$[rsp]
	mov	r8, QWORD PTR [r8+436]
	mov	rdx, QWORD PTR this$[rsp]
	mov	rdx, QWORD PTR [rdx+420]
	lea	rcx, QWORD PTR fontP$[rsp]
	call	??0DRAWBOT_FontP@@QEAA@PEAUDRAWBOT_SupplierSuite1@@QEAU_DRAWBOT_SupplierRef@@M@Z ; DRAWBOT_FontP::DRAWBOT_FontP
	npad	1

; 211  :     
; 212  :     suites.DBSurfaceSuite()->DrawString(_surface_ref, brushP.Get(), fontP.Get(), str,
; 213  :                         &_brush_pos, align, truncate, truncation_width);

	mov	rsi, QWORD PTR this$[rsp]
	add	rsi, 452				; 000001c4H
	lea	rcx, QWORD PTR fontP$[rsp]
	call	?Get@?$SharedRefImpl@PEAU_DRAWBOT_FontRef@@@@QEBAPEAU_DRAWBOT_FontRef@@XZ ; SharedRefImpl<_DRAWBOT_FontRef * __ptr64>::Get
	mov	rdi, rax
	lea	rcx, QWORD PTR brushP$[rsp]
	call	?Get@?$SharedRefImpl@PEAU_DRAWBOT_BrushRef@@@@QEBAPEAU_DRAWBOT_BrushRef@@XZ ; SharedRefImpl<_DRAWBOT_BrushRef * __ptr64>::Get
	mov	rbx, rax
	mov	rcx, QWORD PTR this$[rsp]
	call	?DBSurfaceSuite@AEGP_SuiteHandler@@QEBAPEAUDRAWBOT_SurfaceSuite1@@XZ ; AEGP_SuiteHandler::DBSurfaceSuite
	mov	r11, rax
	movss	xmm0, DWORD PTR truncation_width$[rsp]
	movss	DWORD PTR [rsp+56], xmm0
	mov	eax, DWORD PTR truncate$[rsp]
	mov	DWORD PTR [rsp+48], eax
	mov	eax, DWORD PTR align$[rsp]
	mov	DWORD PTR [rsp+40], eax
	mov	QWORD PTR [rsp+32], rsi
	mov	r9, QWORD PTR str$[rsp]
	mov	r8, rdi
	mov	rdx, rbx
	mov	rcx, QWORD PTR this$[rsp]
	mov	rcx, QWORD PTR [rcx+444]
	call	QWORD PTR [r11+72]
	npad	1

; 214  : }

	lea	rcx, QWORD PTR fontP$[rsp]
	call	??1DRAWBOT_FontP@@UEAA@XZ
	npad	1
	lea	rcx, QWORD PTR brushP$[rsp]
	call	??1DRAWBOT_BrushP@@UEAA@XZ
	add	rsp, 128				; 00000080H
	pop	rdi
	pop	rsi
	pop	rbx
	ret	0
?DrawString@DrawbotBot@@QEBAXPEBGHHM@Z ENDP		; DrawbotBot::DrawString
; Function compile flags: /Odtp
_TEXT	ENDS
text$x	SEGMENT
brushP$ = 64
fontP$ = 88
$T22664 = 112
this$ = 160
str$ = 168
align$ = 176
truncate$ = 184
truncation_width$ = 192
?dtor$0@?0??DrawString@DrawbotBot@@QEBAXPEBGHHM@Z@4HA PROC ; `DrawbotBot::DrawString'::`1'::dtor$0
	push	rbp
	sub	rsp, 32					; 00000020H
	mov	rbp, rdx
	lea	rcx, QWORD PTR brushP$[rbp]
	call	??1DRAWBOT_BrushP@@UEAA@XZ
	add	rsp, 32					; 00000020H
	pop	rbp
	ret	0
?dtor$0@?0??DrawString@DrawbotBot@@QEBAXPEBGHHM@Z@4HA ENDP ; `DrawbotBot::DrawString'::`1'::dtor$0
; Function compile flags: /Odtp
brushP$ = 64
fontP$ = 88
$T22664 = 112
this$ = 160
str$ = 168
align$ = 176
truncate$ = 184
truncation_width$ = 192
?dtor$1@?0??DrawString@DrawbotBot@@QEBAXPEBGHHM@Z@4HA PROC ; `DrawbotBot::DrawString'::`1'::dtor$1
	push	rbp
	sub	rsp, 32					; 00000020H
	mov	rbp, rdx
	lea	rcx, QWORD PTR fontP$[rbp]
	call	??1DRAWBOT_FontP@@UEAA@XZ
	add	rsp, 32					; 00000020H
	pop	rbp
	ret	0
?dtor$1@?0??DrawString@DrawbotBot@@QEBAXPEBGHHM@Z@4HA ENDP ; `DrawbotBot::DrawString'::`1'::dtor$1
text$x	ENDS
PUBLIC	??1?$SharedRefImpl@PEAU_DRAWBOT_FontRef@@@@UEAA@XZ ; SharedRefImpl<_DRAWBOT_FontRef * __ptr64>::~SharedRefImpl<_DRAWBOT_FontRef * __ptr64>
PUBLIC	?New@DRAWBOT_FontP@@QEAAXPEAUDRAWBOT_SupplierSuite1@@QEAU_DRAWBOT_SupplierRef@@M@Z ; DRAWBOT_FontP::New
PUBLIC	??_7DRAWBOT_FontP@@6B@				; DRAWBOT_FontP::`vftable'
PUBLIC	??0?$SharedRefImpl@PEAU_DRAWBOT_FontRef@@@@QEAA@PEAUDRAWBOT_SupplierSuite1@@PEAU_DRAWBOT_FontRef@@_N@Z ; SharedRefImpl<_DRAWBOT_FontRef * __ptr64>::SharedRefImpl<_DRAWBOT_FontRef * __ptr64>
PUBLIC	??_R4DRAWBOT_FontP@@6B@				; DRAWBOT_FontP::`RTTI Complete Object Locator'
PUBLIC	??_R0?AVDRAWBOT_FontP@@@8			; DRAWBOT_FontP `RTTI Type Descriptor'
PUBLIC	??_R3DRAWBOT_FontP@@8				; DRAWBOT_FontP::`RTTI Class Hierarchy Descriptor'
PUBLIC	??_R2DRAWBOT_FontP@@8				; DRAWBOT_FontP::`RTTI Base Class Array'
PUBLIC	??_R1A@?0A@EA@DRAWBOT_FontP@@8			; DRAWBOT_FontP::`RTTI Base Class Descriptor at (0,-1,0,64)'
PUBLIC	??_R1A@?0A@EA@?$SharedRefImpl@PEAU_DRAWBOT_FontRef@@@@8 ; SharedRefImpl<_DRAWBOT_FontRef * __ptr64>::`RTTI Base Class Descriptor at (0,-1,0,64)'
PUBLIC	??_R0?AV?$SharedRefImpl@PEAU_DRAWBOT_FontRef@@@@@8 ; SharedRefImpl<_DRAWBOT_FontRef * __ptr64> `RTTI Type Descriptor'
PUBLIC	??_R3?$SharedRefImpl@PEAU_DRAWBOT_FontRef@@@@8	; SharedRefImpl<_DRAWBOT_FontRef * __ptr64>::`RTTI Class Hierarchy Descriptor'
PUBLIC	??_R2?$SharedRefImpl@PEAU_DRAWBOT_FontRef@@@@8	; SharedRefImpl<_DRAWBOT_FontRef * __ptr64>::`RTTI Base Class Array'
EXTRN	??_EDRAWBOT_FontP@@UEAAPEAXI@Z:PROC		; DRAWBOT_FontP::`vector deleting destructor'
;	COMDAT pdata
; File c:\users\brendan bolles\documents\development\proexr\ext\adobe after effects cc 2015 win sdk\examples\headers\adobesdk\drawbotsuite.h
pdata	SEGMENT
$pdata$??0DRAWBOT_FontP@@QEAA@PEAUDRAWBOT_SupplierSuite1@@QEAU_DRAWBOT_SupplierRef@@M@Z DD imagerel $LN4
	DD	imagerel $LN4+108
	DD	imagerel $unwind$??0DRAWBOT_FontP@@QEAA@PEAUDRAWBOT_SupplierSuite1@@QEAU_DRAWBOT_SupplierRef@@M@Z
pdata	ENDS
;	COMDAT pdata
pdata	SEGMENT
$pdata$?dtor$0@?0???0DRAWBOT_FontP@@QEAA@PEAUDRAWBOT_SupplierSuite1@@QEAU_DRAWBOT_SupplierRef@@M@Z@4HA DD imagerel ?dtor$0@?0???0DRAWBOT_FontP@@QEAA@PEAUDRAWBOT_SupplierSuite1@@QEAU_DRAWBOT_SupplierRef@@M@Z@4HA
	DD	imagerel ?dtor$0@?0???0DRAWBOT_FontP@@QEAA@PEAUDRAWBOT_SupplierSuite1@@QEAU_DRAWBOT_SupplierRef@@M@Z@4HA+24
	DD	imagerel $unwind$?dtor$0@?0???0DRAWBOT_FontP@@QEAA@PEAUDRAWBOT_SupplierSuite1@@QEAU_DRAWBOT_SupplierRef@@M@Z@4HA
pdata	ENDS
;	COMDAT xdata
xdata	SEGMENT
$ip2state$??0DRAWBOT_FontP@@QEAA@PEAUDRAWBOT_SupplierSuite1@@QEAU_DRAWBOT_SupplierRef@@M@Z DD imagerel ??0DRAWBOT_FontP@@QEAA@PEAUDRAWBOT_SupplierSuite1@@QEAU_DRAWBOT_SupplierRef@@M@Z
	DD	0ffffffffH
	DD	imagerel ??0DRAWBOT_FontP@@QEAA@PEAUDRAWBOT_SupplierSuite1@@QEAU_DRAWBOT_SupplierRef@@M@Z+56
	DD	00H
	DD	imagerel ??0DRAWBOT_FontP@@QEAA@PEAUDRAWBOT_SupplierSuite1@@QEAU_DRAWBOT_SupplierRef@@M@Z+98
	DD	0ffffffffH
xdata	ENDS
;	COMDAT ??_R2?$SharedRefImpl@PEAU_DRAWBOT_FontRef@@@@8
rdata$r	SEGMENT
??_R2?$SharedRefImpl@PEAU_DRAWBOT_FontRef@@@@8 DD imagerel ??_R1A@?0A@EA@?$SharedRefImpl@PEAU_DRAWBOT_FontRef@@@@8 ; SharedRefImpl<_DRAWBOT_FontRef * __ptr64>::`RTTI Base Class Array'
	ORG $+3
rdata$r	ENDS
;	COMDAT ??_R3?$SharedRefImpl@PEAU_DRAWBOT_FontRef@@@@8
rdata$r	SEGMENT
??_R3?$SharedRefImpl@PEAU_DRAWBOT_FontRef@@@@8 DD 00H	; SharedRefImpl<_DRAWBOT_FontRef * __ptr64>::`RTTI Class Hierarchy Descriptor'
	DD	00H
	DD	01H
	DD	imagerel ??_R2?$SharedRefImpl@PEAU_DRAWBOT_FontRef@@@@8
rdata$r	ENDS
;	COMDAT ??_R0?AV?$SharedRefImpl@PEAU_DRAWBOT_FontRef@@@@@8
_DATA	SEGMENT
??_R0?AV?$SharedRefImpl@PEAU_DRAWBOT_FontRef@@@@@8 DQ FLAT:??_7type_info@@6B@ ; SharedRefImpl<_DRAWBOT_FontRef * __ptr64> `RTTI Type Descriptor'
	DQ	0000000000000000H
	DB	'.?AV?$SharedRefImpl@PEAU_DRAWBOT_FontRef@@@@', 00H
_DATA	ENDS
;	COMDAT ??_R1A@?0A@EA@?$SharedRefImpl@PEAU_DRAWBOT_FontRef@@@@8
rdata$r	SEGMENT
??_R1A@?0A@EA@?$SharedRefImpl@PEAU_DRAWBOT_FontRef@@@@8 DD imagerel ??_R0?AV?$SharedRefImpl@PEAU_DRAWBOT_FontRef@@@@@8 ; SharedRefImpl<_DRAWBOT_FontRef * __ptr64>::`RTTI Base Class Descriptor at (0,-1,0,64)'
	DD	00H
	DD	00H
	DD	0ffffffffH
	DD	00H
	DD	040H
	DD	imagerel ??_R3?$SharedRefImpl@PEAU_DRAWBOT_FontRef@@@@8
rdata$r	ENDS
;	COMDAT ??_R1A@?0A@EA@DRAWBOT_FontP@@8
rdata$r	SEGMENT
??_R1A@?0A@EA@DRAWBOT_FontP@@8 DD imagerel ??_R0?AVDRAWBOT_FontP@@@8 ; DRAWBOT_FontP::`RTTI Base Class Descriptor at (0,-1,0,64)'
	DD	01H
	DD	00H
	DD	0ffffffffH
	DD	00H
	DD	040H
	DD	imagerel ??_R3DRAWBOT_FontP@@8
rdata$r	ENDS
;	COMDAT ??_R2DRAWBOT_FontP@@8
rdata$r	SEGMENT
??_R2DRAWBOT_FontP@@8 DD imagerel ??_R1A@?0A@EA@DRAWBOT_FontP@@8 ; DRAWBOT_FontP::`RTTI Base Class Array'
	DD	imagerel ??_R1A@?0A@EA@?$SharedRefImpl@PEAU_DRAWBOT_FontRef@@@@8
	ORG $+3
rdata$r	ENDS
;	COMDAT ??_R3DRAWBOT_FontP@@8
rdata$r	SEGMENT
??_R3DRAWBOT_FontP@@8 DD 00H				; DRAWBOT_FontP::`RTTI Class Hierarchy Descriptor'
	DD	00H
	DD	02H
	DD	imagerel ??_R2DRAWBOT_FontP@@8
rdata$r	ENDS
;	COMDAT ??_R0?AVDRAWBOT_FontP@@@8
_DATA	SEGMENT
??_R0?AVDRAWBOT_FontP@@@8 DQ FLAT:??_7type_info@@6B@	; DRAWBOT_FontP `RTTI Type Descriptor'
	DQ	0000000000000000H
	DB	'.?AVDRAWBOT_FontP@@', 00H
_DATA	ENDS
;	COMDAT ??_R4DRAWBOT_FontP@@6B@
rdata$r	SEGMENT
??_R4DRAWBOT_FontP@@6B@ DD 01H				; DRAWBOT_FontP::`RTTI Complete Object Locator'
	DD	00H
	DD	00H
	DD	imagerel ??_R0?AVDRAWBOT_FontP@@@8
	DD	imagerel ??_R3DRAWBOT_FontP@@8
	DD	imagerel ??_R4DRAWBOT_FontP@@6B@
rdata$r	ENDS
;	COMDAT xdata
xdata	SEGMENT
$unwind$?dtor$0@?0???0DRAWBOT_FontP@@QEAA@PEAUDRAWBOT_SupplierSuite1@@QEAU_DRAWBOT_SupplierRef@@M@Z@4HA DD 020601H
	DD	050023206H
xdata	ENDS
;	COMDAT xdata
xdata	SEGMENT
$unwind$??0DRAWBOT_FontP@@QEAA@PEAUDRAWBOT_SupplierSuite1@@QEAU_DRAWBOT_SupplierRef@@M@Z DD 012211H
	DD	06219H
	DD	imagerel __CxxFrameHandler3
	DD	imagerel $cppxdata$??0DRAWBOT_FontP@@QEAA@PEAUDRAWBOT_SupplierSuite1@@QEAU_DRAWBOT_SupplierRef@@M@Z
xdata	ENDS
;	COMDAT CONST
CONST	SEGMENT
$cppxdata$??0DRAWBOT_FontP@@QEAA@PEAUDRAWBOT_SupplierSuite1@@QEAU_DRAWBOT_SupplierRef@@M@Z DD 019930522H
	DD	01H
	DD	imagerel $stateUnwindMap$??0DRAWBOT_FontP@@QEAA@PEAUDRAWBOT_SupplierSuite1@@QEAU_DRAWBOT_SupplierRef@@M@Z
	DD	00H
	DD	00H
	DD	03H
	DD	imagerel $ip2state$??0DRAWBOT_FontP@@QEAA@PEAUDRAWBOT_SupplierSuite1@@QEAU_DRAWBOT_SupplierRef@@M@Z
	DD	020H
	DD	00H
	DD	01H
CONST	ENDS
;	COMDAT xdata
xdata	SEGMENT
$stateUnwindMap$??0DRAWBOT_FontP@@QEAA@PEAUDRAWBOT_SupplierSuite1@@QEAU_DRAWBOT_SupplierRef@@M@Z DD 0ffffffffH
	DD	imagerel ?dtor$0@?0???0DRAWBOT_FontP@@QEAA@PEAUDRAWBOT_SupplierSuite1@@QEAU_DRAWBOT_SupplierRef@@M@Z@4HA
xdata	ENDS
;	COMDAT ??_7DRAWBOT_FontP@@6B@
CONST	SEGMENT
??_7DRAWBOT_FontP@@6B@ DQ FLAT:??_R4DRAWBOT_FontP@@6B@	; DRAWBOT_FontP::`vftable'
	DQ	FLAT:??_EDRAWBOT_FontP@@UEAAPEAXI@Z
; Function compile flags: /Odtp
CONST	ENDS
;	COMDAT ??0DRAWBOT_FontP@@QEAA@PEAUDRAWBOT_SupplierSuite1@@QEAU_DRAWBOT_SupplierRef@@M@Z
_TEXT	SEGMENT
$T22681 = 32
this$ = 64
suiteP$ = 72
supplier_ref$ = 80
in_font_size$ = 88
??0DRAWBOT_FontP@@QEAA@PEAUDRAWBOT_SupplierSuite1@@QEAU_DRAWBOT_SupplierRef@@M@Z PROC ; DRAWBOT_FontP::DRAWBOT_FontP, COMDAT

; 616  : 	{

$LN4:
	movss	DWORD PTR [rsp+32], xmm3
	mov	QWORD PTR [rsp+24], r8
	mov	QWORD PTR [rsp+16], rdx
	mov	QWORD PTR [rsp+8], rcx
	sub	rsp, 56					; 00000038H
	mov	QWORD PTR $T22681[rsp], -2
	mov	r9b, 1
	xor	r8d, r8d
	mov	rdx, QWORD PTR suiteP$[rsp]
	mov	rcx, QWORD PTR this$[rsp]
	call	??0?$SharedRefImpl@PEAU_DRAWBOT_FontRef@@@@QEAA@PEAUDRAWBOT_SupplierSuite1@@PEAU_DRAWBOT_FontRef@@_N@Z ; SharedRefImpl<_DRAWBOT_FontRef * __ptr64>::SharedRefImpl<_DRAWBOT_FontRef * __ptr64>
	npad	1
	mov	rcx, QWORD PTR this$[rsp]
	lea	rax, OFFSET FLAT:??_7DRAWBOT_FontP@@6B@
	mov	QWORD PTR [rcx], rax

; 617  : 		New(suiteP, supplier_ref, in_font_size);

	movss	xmm3, DWORD PTR in_font_size$[rsp]
	mov	r8, QWORD PTR supplier_ref$[rsp]
	mov	rdx, QWORD PTR suiteP$[rsp]
	mov	rcx, QWORD PTR this$[rsp]
	call	?New@DRAWBOT_FontP@@QEAAXPEAUDRAWBOT_SupplierSuite1@@QEAU_DRAWBOT_SupplierRef@@M@Z ; DRAWBOT_FontP::New
	npad	1

; 618  : 	}

	mov	rax, QWORD PTR this$[rsp]
	add	rsp, 56					; 00000038H
	ret	0
??0DRAWBOT_FontP@@QEAA@PEAUDRAWBOT_SupplierSuite1@@QEAU_DRAWBOT_SupplierRef@@M@Z ENDP ; DRAWBOT_FontP::DRAWBOT_FontP
; Function compile flags: /Odtp
_TEXT	ENDS
;	COMDAT text$x
text$x	SEGMENT
$T22681 = 32
this$ = 64
suiteP$ = 72
supplier_ref$ = 80
in_font_size$ = 88
?dtor$0@?0???0DRAWBOT_FontP@@QEAA@PEAUDRAWBOT_SupplierSuite1@@QEAU_DRAWBOT_SupplierRef@@M@Z@4HA PROC ; `DRAWBOT_FontP::DRAWBOT_FontP'::`1'::dtor$0
	push	rbp
	sub	rsp, 32					; 00000020H
	mov	rbp, rdx
	mov	rcx, QWORD PTR this$[rbp]
	call	??1?$SharedRefImpl@PEAU_DRAWBOT_FontRef@@@@UEAA@XZ ; SharedRefImpl<_DRAWBOT_FontRef * __ptr64>::~SharedRefImpl<_DRAWBOT_FontRef * __ptr64>
	add	rsp, 32					; 00000020H
	pop	rbp
	ret	0
?dtor$0@?0???0DRAWBOT_FontP@@QEAA@PEAUDRAWBOT_SupplierSuite1@@QEAU_DRAWBOT_SupplierRef@@M@Z@4HA ENDP ; `DRAWBOT_FontP::DRAWBOT_FontP'::`1'::dtor$0
text$x	ENDS
PUBLIC	?Reset@?$SharedRefImpl@PEAU_DRAWBOT_FontRef@@@@QEAAXPEAU_DRAWBOT_FontRef@@_N@Z ; SharedRefImpl<_DRAWBOT_FontRef * __ptr64>::Reset
;	COMDAT pdata
pdata	SEGMENT
$pdata$?New@DRAWBOT_FontP@@QEAAXPEAUDRAWBOT_SupplierSuite1@@QEAU_DRAWBOT_SupplierRef@@M@Z DD imagerel $LN4
	DD	imagerel $LN4+114
	DD	imagerel $unwind$?New@DRAWBOT_FontP@@QEAAXPEAUDRAWBOT_SupplierSuite1@@QEAU_DRAWBOT_SupplierRef@@M@Z
pdata	ENDS
;	COMDAT xdata
xdata	SEGMENT
$unwind$?New@DRAWBOT_FontP@@QEAAXPEAUDRAWBOT_SupplierSuite1@@QEAU_DRAWBOT_SupplierRef@@M@Z DD 011901H
	DD	0a219H
; Function compile flags: /Odtp
xdata	ENDS
;	COMDAT ?New@DRAWBOT_FontP@@QEAAXPEAUDRAWBOT_SupplierSuite1@@QEAU_DRAWBOT_SupplierRef@@M@Z
_TEXT	SEGMENT
font_ref$ = 32
_err$21088 = 40
$T22699 = 48
this$ = 96
suiteP$ = 104
supplier_ref$ = 112
in_font_size$ = 120
?New@DRAWBOT_FontP@@QEAAXPEAUDRAWBOT_SupplierSuite1@@QEAU_DRAWBOT_SupplierRef@@M@Z PROC ; DRAWBOT_FontP::New, COMDAT

; 623  : 	{

$LN4:
	movss	DWORD PTR [rsp+32], xmm3
	mov	QWORD PTR [rsp+24], r8
	mov	QWORD PTR [rsp+16], rdx
	mov	QWORD PTR [rsp+8], rcx
	sub	rsp, 88					; 00000058H

; 624  : 		DRAWBOT_FontRef	font_ref;
; 625  : 
; 626  : 		DRAWBOT_ErrorToException(suiteP->NewDefaultFont(supplier_ref, in_font_size, &font_ref));

	lea	r8, QWORD PTR font_ref$[rsp]
	movss	xmm1, DWORD PTR in_font_size$[rsp]
	mov	rcx, QWORD PTR supplier_ref$[rsp]
	mov	rax, QWORD PTR suiteP$[rsp]
	call	QWORD PTR [rax+32]
	mov	DWORD PTR _err$21088[rsp], eax
	cmp	DWORD PTR _err$21088[rsp], 0
	je	SHORT $LN1@New@4
	mov	edx, DWORD PTR _err$21088[rsp]
	lea	rcx, QWORD PTR $T22699[rsp]
	call	??0DRAWBOT_Exception@@QEAA@H@Z		; DRAWBOT_Exception::DRAWBOT_Exception
	lea	rdx, OFFSET FLAT:_TI2?AVDRAWBOT_Exception@@
	lea	rcx, QWORD PTR $T22699[rsp]
	call	_CxxThrowException
$LN1@New@4:

; 627  : 
; 628  : 		Reset(font_ref, false);

	xor	r8d, r8d
	mov	rdx, QWORD PTR font_ref$[rsp]
	mov	rcx, QWORD PTR this$[rsp]
	call	?Reset@?$SharedRefImpl@PEAU_DRAWBOT_FontRef@@@@QEAAXPEAU_DRAWBOT_FontRef@@_N@Z ; SharedRefImpl<_DRAWBOT_FontRef * __ptr64>::Reset
$LN3@New@4:

; 629  : 	}

	add	rsp, 88					; 00000058H
	ret	0
?New@DRAWBOT_FontP@@QEAAXPEAUDRAWBOT_SupplierSuite1@@QEAU_DRAWBOT_SupplierRef@@M@Z ENDP ; DRAWBOT_FontP::New
_TEXT	ENDS
;	COMDAT pdata
pdata	SEGMENT
$pdata$??_GDRAWBOT_FontP@@UEAAPEAXI@Z DD imagerel $LN4
	DD	imagerel $LN4+54
	DD	imagerel $unwind$??_GDRAWBOT_FontP@@UEAAPEAXI@Z
pdata	ENDS
;	COMDAT xdata
xdata	SEGMENT
$unwind$??_GDRAWBOT_FontP@@UEAAPEAXI@Z DD 010d01H
	DD	0420dH
; Function compile flags: /Odtp
xdata	ENDS
;	COMDAT ??_GDRAWBOT_FontP@@UEAAPEAXI@Z
_TEXT	SEGMENT
this$ = 48
__flags$ = 56
??_GDRAWBOT_FontP@@UEAAPEAXI@Z PROC			; DRAWBOT_FontP::`scalar deleting destructor', COMDAT
$LN4:
	mov	DWORD PTR [rsp+16], edx
	mov	QWORD PTR [rsp+8], rcx
	sub	rsp, 40					; 00000028H
	mov	rcx, QWORD PTR this$[rsp]
	call	??1DRAWBOT_FontP@@UEAA@XZ
	mov	eax, DWORD PTR __flags$[rsp]
	and	eax, 1
	test	eax, eax
	je	SHORT $LN1@scalar@5
	mov	rcx, QWORD PTR this$[rsp]
	call	??3@YAXPEAX@Z				; operator delete
$LN1@scalar@5:
	mov	rax, QWORD PTR this$[rsp]
	add	rsp, 40					; 00000028H
	ret	0
??_GDRAWBOT_FontP@@UEAAPEAXI@Z ENDP			; DRAWBOT_FontP::`scalar deleting destructor'
_TEXT	ENDS
;	COMDAT pdata
pdata	SEGMENT
$pdata$??1DRAWBOT_FontP@@UEAA@XZ DD imagerel $LN4
	DD	imagerel $LN4+24
	DD	imagerel $unwind$??1DRAWBOT_FontP@@UEAA@XZ
pdata	ENDS
;	COMDAT xdata
xdata	SEGMENT
$unwind$??1DRAWBOT_FontP@@UEAA@XZ DD 010901H
	DD	04209H
; Function compile flags: /Odtp
xdata	ENDS
;	COMDAT ??1DRAWBOT_FontP@@UEAA@XZ
_TEXT	SEGMENT
this$ = 48
??1DRAWBOT_FontP@@UEAA@XZ PROC				; DRAWBOT_FontP::~DRAWBOT_FontP, COMDAT
$LN4:
	mov	QWORD PTR [rsp+8], rcx
	sub	rsp, 40					; 00000028H
	mov	rcx, QWORD PTR this$[rsp]
	call	??1?$SharedRefImpl@PEAU_DRAWBOT_FontRef@@@@UEAA@XZ ; SharedRefImpl<_DRAWBOT_FontRef * __ptr64>::~SharedRefImpl<_DRAWBOT_FontRef * __ptr64>
	add	rsp, 40					; 00000028H
	ret	0
??1DRAWBOT_FontP@@UEAA@XZ ENDP				; DRAWBOT_FontP::~DRAWBOT_FontP
_TEXT	ENDS
PUBLIC	__$ArrayPad$
PUBLIC	?DrawString@DrawbotBot@@QEBAXPEBDHHM@Z		; DrawbotBot::DrawString
EXTRN	__GSHandlerCheck:PROC
EXTRN	__security_cookie:QWORD
EXTRN	__security_check_cookie:PROC
pdata	SEGMENT
$pdata$?DrawString@DrawbotBot@@QEBAXPEBDHHM@Z DD imagerel $LN8
	DD	imagerel $LN8+272
	DD	imagerel $unwind$?DrawString@DrawbotBot@@QEBAXPEBDHHM@Z
pdata	ENDS
xdata	SEGMENT
$unwind$?DrawString@DrawbotBot@@QEBAXPEBDHHM@Z DD 032e19H
	DD	04c011cH
	DD	07015H
	DD	imagerel __GSHandlerCheck
	DD	0250H
; Function compile flags: /Odtp
; File c:\users\brendan bolles\documents\development\proexr\src\aftereffects\drawbotbot.cpp
xdata	ENDS
_TEXT	SEGMENT
n$ = 48
u$ = 56
c$ = 64
u_str$ = 80
__$ArrayPad$ = 592
this$ = 624
str$ = 632
align$ = 640
truncate$ = 648
truncation_width$ = 656
?DrawString@DrawbotBot@@QEBAXPEBDHHM@Z PROC		; DrawbotBot::DrawString

; 222  : {

$LN8:
	mov	DWORD PTR [rsp+32], r9d
	mov	DWORD PTR [rsp+24], r8d
	mov	QWORD PTR [rsp+16], rdx
	mov	QWORD PTR [rsp+8], rcx
	push	rdi
	sub	rsp, 608				; 00000260H
	mov	rax, QWORD PTR __security_cookie
	xor	rax, rsp
	mov	QWORD PTR __$ArrayPad$[rsp], rax

; 223  : 	int n = 0;

	mov	DWORD PTR n$[rsp], 0

; 224  :     DRAWBOT_UTF16Char u_str[256] = {'\0'};

	xor	eax, eax
	mov	WORD PTR u_str$[rsp], ax
	lea	rdi, QWORD PTR u_str$[rsp+2]
	xor	eax, eax
	mov	ecx, 510				; 000001feH
	rep stosb

; 225  :     
; 226  :     DRAWBOT_UTF16Char *u = u_str;

	lea	rax, QWORD PTR u_str$[rsp]
	mov	QWORD PTR u$[rsp], rax

; 227  :     const char *c = str;

	mov	rax, QWORD PTR str$[rsp]
	mov	QWORD PTR c$[rsp], rax

; 228  :     
; 229  :     if(*c != '\0')

	mov	rax, QWORD PTR c$[rsp]
	movsx	eax, BYTE PTR [rax]
	test	eax, eax
	je	SHORT $LN5@DrawString
$LN4@DrawString:

; 230  :     {
; 231  :         do{
; 232  :             *u++ = *c++;

	mov	rax, QWORD PTR c$[rsp]
	movsx	cx, BYTE PTR [rax]
	mov	rax, QWORD PTR u$[rsp]
	mov	WORD PTR [rax], cx
	mov	rax, QWORD PTR u$[rsp]
	add	rax, 2
	mov	QWORD PTR u$[rsp], rax
	mov	rax, QWORD PTR c$[rsp]
	add	rax, 1
	mov	QWORD PTR c$[rsp], rax

; 233  :             
; 234  :         }while(*c != '\0' && ++n < 255);

	mov	rax, QWORD PTR c$[rsp]
	movsx	eax, BYTE PTR [rax]
	test	eax, eax
	je	SHORT $LN1@DrawString
	mov	eax, DWORD PTR n$[rsp]
	add	eax, 1
	mov	DWORD PTR n$[rsp], eax
	cmp	DWORD PTR n$[rsp], 255			; 000000ffH
	jl	SHORT $LN4@DrawString
$LN1@DrawString:

; 235  :         
; 236  :         *u = '\0';

	xor	ecx, ecx
	mov	rax, QWORD PTR u$[rsp]
	mov	WORD PTR [rax], cx
$LN5@DrawString:

; 237  :     }
; 238  :     
; 239  :     DrawString(u_str, align, truncate, truncation_width);

	movss	xmm0, DWORD PTR truncation_width$[rsp]
	movss	DWORD PTR [rsp+32], xmm0
	mov	r9d, DWORD PTR truncate$[rsp]
	mov	r8d, DWORD PTR align$[rsp]
	lea	rdx, QWORD PTR u_str$[rsp]
	mov	rcx, QWORD PTR this$[rsp]
	call	?DrawString@DrawbotBot@@QEBAXPEBGHHM@Z	; DrawbotBot::DrawString

; 240  : }

	mov	rcx, QWORD PTR __$ArrayPad$[rsp]
	xor	rcx, rsp
	call	__security_check_cookie
	add	rsp, 608				; 00000260H
	pop	rdi
	ret	0
?DrawString@DrawbotBot@@QEBAXPEBDHHM@Z ENDP		; DrawbotBot::DrawString
_TEXT	ENDS
PUBLIC	?RetainObject@?$SharedRefImpl@PEAU_DRAWBOT_PenRef@@@@AEAAXXZ ; SharedRefImpl<_DRAWBOT_PenRef * __ptr64>::RetainObject
PUBLIC	??_7?$SharedRefImpl@PEAU_DRAWBOT_PenRef@@@@6B@	; SharedRefImpl<_DRAWBOT_PenRef * __ptr64>::`vftable'
PUBLIC	??_R4?$SharedRefImpl@PEAU_DRAWBOT_PenRef@@@@6B@	; SharedRefImpl<_DRAWBOT_PenRef * __ptr64>::`RTTI Complete Object Locator'
EXTRN	??_E?$SharedRefImpl@PEAU_DRAWBOT_PenRef@@@@UEAAPEAXI@Z:PROC ; SharedRefImpl<_DRAWBOT_PenRef * __ptr64>::`vector deleting destructor'
;	COMDAT pdata
; File c:\users\brendan bolles\documents\development\proexr\ext\adobe after effects cc 2015 win sdk\examples\headers\adobesdk\drawbotsuite.h
pdata	SEGMENT
$pdata$??0?$SharedRefImpl@PEAU_DRAWBOT_PenRef@@@@QEAA@PEAUDRAWBOT_SupplierSuite1@@PEAU_DRAWBOT_PenRef@@_N@Z DD imagerel $LN4
	DD	imagerel $LN4+96
	DD	imagerel $unwind$??0?$SharedRefImpl@PEAU_DRAWBOT_PenRef@@@@QEAA@PEAUDRAWBOT_SupplierSuite1@@PEAU_DRAWBOT_PenRef@@_N@Z
pdata	ENDS
;	COMDAT ??_R4?$SharedRefImpl@PEAU_DRAWBOT_PenRef@@@@6B@
rdata$r	SEGMENT
??_R4?$SharedRefImpl@PEAU_DRAWBOT_PenRef@@@@6B@ DD 01H	; SharedRefImpl<_DRAWBOT_PenRef * __ptr64>::`RTTI Complete Object Locator'
	DD	00H
	DD	00H
	DD	imagerel ??_R0?AV?$SharedRefImpl@PEAU_DRAWBOT_PenRef@@@@@8
	DD	imagerel ??_R3?$SharedRefImpl@PEAU_DRAWBOT_PenRef@@@@8
	DD	imagerel ??_R4?$SharedRefImpl@PEAU_DRAWBOT_PenRef@@@@6B@
rdata$r	ENDS
;	COMDAT xdata
xdata	SEGMENT
$unwind$??0?$SharedRefImpl@PEAU_DRAWBOT_PenRef@@@@QEAA@PEAUDRAWBOT_SupplierSuite1@@PEAU_DRAWBOT_PenRef@@_N@Z DD 011801H
	DD	04218H
xdata	ENDS
;	COMDAT ??_7?$SharedRefImpl@PEAU_DRAWBOT_PenRef@@@@6B@
CONST	SEGMENT
??_7?$SharedRefImpl@PEAU_DRAWBOT_PenRef@@@@6B@ DQ FLAT:??_R4?$SharedRefImpl@PEAU_DRAWBOT_PenRef@@@@6B@ ; SharedRefImpl<_DRAWBOT_PenRef * __ptr64>::`vftable'
	DQ	FLAT:??_E?$SharedRefImpl@PEAU_DRAWBOT_PenRef@@@@UEAAPEAXI@Z
; Function compile flags: /Odtp
CONST	ENDS
;	COMDAT ??0?$SharedRefImpl@PEAU_DRAWBOT_PenRef@@@@QEAA@PEAUDRAWBOT_SupplierSuite1@@PEAU_DRAWBOT_PenRef@@_N@Z
_TEXT	SEGMENT
this$ = 48
suiteP$ = 56
r$ = 64
retainB$ = 72
??0?$SharedRefImpl@PEAU_DRAWBOT_PenRef@@@@QEAA@PEAUDRAWBOT_SupplierSuite1@@PEAU_DRAWBOT_PenRef@@_N@Z PROC ; SharedRefImpl<_DRAWBOT_PenRef * __ptr64>::SharedRefImpl<_DRAWBOT_PenRef * __ptr64>, COMDAT

; 452  : 	{

$LN4:
	mov	BYTE PTR [rsp+32], r9b
	mov	QWORD PTR [rsp+24], r8
	mov	QWORD PTR [rsp+16], rdx
	mov	QWORD PTR [rsp+8], rcx
	sub	rsp, 40					; 00000028H
	mov	rcx, QWORD PTR this$[rsp]
	lea	rax, OFFSET FLAT:??_7?$SharedRefImpl@PEAU_DRAWBOT_PenRef@@@@6B@
	mov	QWORD PTR [rcx], rax
	mov	rcx, QWORD PTR this$[rsp]
	mov	rax, QWORD PTR r$[rsp]
	mov	QWORD PTR [rcx+8], rax
	mov	rcx, QWORD PTR this$[rsp]
	mov	rax, QWORD PTR suiteP$[rsp]
	mov	QWORD PTR [rcx+16], rax

; 453  : 		if (retainB) {

	movzx	eax, BYTE PTR retainB$[rsp]
	test	eax, eax
	je	SHORT $LN1@SharedRefI

; 454  : 			RetainObject();

	mov	rcx, QWORD PTR this$[rsp]
	call	?RetainObject@?$SharedRefImpl@PEAU_DRAWBOT_PenRef@@@@AEAAXXZ ; SharedRefImpl<_DRAWBOT_PenRef * __ptr64>::RetainObject
$LN1@SharedRefI:

; 455  : 		}
; 456  : 	}

	mov	rax, QWORD PTR this$[rsp]
	add	rsp, 40					; 00000028H
	ret	0
??0?$SharedRefImpl@PEAU_DRAWBOT_PenRef@@@@QEAA@PEAUDRAWBOT_SupplierSuite1@@PEAU_DRAWBOT_PenRef@@_N@Z ENDP ; SharedRefImpl<_DRAWBOT_PenRef * __ptr64>::SharedRefImpl<_DRAWBOT_PenRef * __ptr64>
_TEXT	ENDS
PUBLIC	?ReleaseObject@?$SharedRefImpl@PEAU_DRAWBOT_PenRef@@@@AEAAXXZ ; SharedRefImpl<_DRAWBOT_PenRef * __ptr64>::ReleaseObject
;	COMDAT pdata
pdata	SEGMENT
$pdata$??1?$SharedRefImpl@PEAU_DRAWBOT_PenRef@@@@UEAA@XZ DD imagerel $LN3
	DD	imagerel $LN3+39
	DD	imagerel $unwind$??1?$SharedRefImpl@PEAU_DRAWBOT_PenRef@@@@UEAA@XZ
pdata	ENDS
;	COMDAT xdata
xdata	SEGMENT
$unwind$??1?$SharedRefImpl@PEAU_DRAWBOT_PenRef@@@@UEAA@XZ DD 010901H
	DD	04209H
; Function compile flags: /Odtp
xdata	ENDS
;	COMDAT ??1?$SharedRefImpl@PEAU_DRAWBOT_PenRef@@@@UEAA@XZ
_TEXT	SEGMENT
this$ = 48
??1?$SharedRefImpl@PEAU_DRAWBOT_PenRef@@@@UEAA@XZ PROC	; SharedRefImpl<_DRAWBOT_PenRef * __ptr64>::~SharedRefImpl<_DRAWBOT_PenRef * __ptr64>, COMDAT

; 459  : 	{

$LN3:
	mov	QWORD PTR [rsp+8], rcx
	sub	rsp, 40					; 00000028H
	mov	rcx, QWORD PTR this$[rsp]
	lea	rax, OFFSET FLAT:??_7?$SharedRefImpl@PEAU_DRAWBOT_PenRef@@@@6B@
	mov	QWORD PTR [rcx], rax

; 460  : 		ReleaseObject();

	mov	rcx, QWORD PTR this$[rsp]
	call	?ReleaseObject@?$SharedRefImpl@PEAU_DRAWBOT_PenRef@@@@AEAAXXZ ; SharedRefImpl<_DRAWBOT_PenRef * __ptr64>::ReleaseObject

; 461  : 	}

	add	rsp, 40					; 00000028H
	ret	0
??1?$SharedRefImpl@PEAU_DRAWBOT_PenRef@@@@UEAA@XZ ENDP	; SharedRefImpl<_DRAWBOT_PenRef * __ptr64>::~SharedRefImpl<_DRAWBOT_PenRef * __ptr64>
; Function compile flags: /Odtp
_TEXT	ENDS
;	COMDAT ?Get@?$SharedRefImpl@PEAU_DRAWBOT_PenRef@@@@QEBAPEAU_DRAWBOT_PenRef@@XZ
_TEXT	SEGMENT
this$ = 8
?Get@?$SharedRefImpl@PEAU_DRAWBOT_PenRef@@@@QEBAPEAU_DRAWBOT_PenRef@@XZ PROC ; SharedRefImpl<_DRAWBOT_PenRef * __ptr64>::Get, COMDAT

; 481  : 	{

	mov	QWORD PTR [rsp+8], rcx

; 482  : 		return mRef;

	mov	rax, QWORD PTR this$[rsp]
	mov	rax, QWORD PTR [rax+8]

; 483  : 	}

	ret	0
?Get@?$SharedRefImpl@PEAU_DRAWBOT_PenRef@@@@QEBAPEAU_DRAWBOT_PenRef@@XZ ENDP ; SharedRefImpl<_DRAWBOT_PenRef * __ptr64>::Get
_TEXT	ENDS
;	COMDAT pdata
pdata	SEGMENT
$pdata$?Reset@?$SharedRefImpl@PEAU_DRAWBOT_PenRef@@@@QEAAXPEAU_DRAWBOT_PenRef@@_N@Z DD imagerel $LN5
	DD	imagerel $LN5+83
	DD	imagerel $unwind$?Reset@?$SharedRefImpl@PEAU_DRAWBOT_PenRef@@@@QEAAXPEAU_DRAWBOT_PenRef@@_N@Z
pdata	ENDS
;	COMDAT xdata
xdata	SEGMENT
$unwind$?Reset@?$SharedRefImpl@PEAU_DRAWBOT_PenRef@@@@QEAAXPEAU_DRAWBOT_PenRef@@_N@Z DD 011301H
	DD	04213H
; Function compile flags: /Odtp
xdata	ENDS
;	COMDAT ?Reset@?$SharedRefImpl@PEAU_DRAWBOT_PenRef@@@@QEAAXPEAU_DRAWBOT_PenRef@@_N@Z
_TEXT	SEGMENT
this$ = 48
rhs$ = 56
retainB$ = 64
?Reset@?$SharedRefImpl@PEAU_DRAWBOT_PenRef@@@@QEAAXPEAU_DRAWBOT_PenRef@@_N@Z PROC ; SharedRefImpl<_DRAWBOT_PenRef * __ptr64>::Reset, COMDAT

; 491  : 	{

$LN5:
	mov	BYTE PTR [rsp+24], r8b
	mov	QWORD PTR [rsp+16], rdx
	mov	QWORD PTR [rsp+8], rcx
	sub	rsp, 40					; 00000028H

; 492  : 		if (mRef != rhs) {

	mov	rcx, QWORD PTR this$[rsp]
	mov	rax, QWORD PTR rhs$[rsp]
	cmp	QWORD PTR [rcx+8], rax
	je	SHORT $LN2@Reset

; 493  : 			ReleaseObject();

	mov	rcx, QWORD PTR this$[rsp]
	call	?ReleaseObject@?$SharedRefImpl@PEAU_DRAWBOT_PenRef@@@@AEAAXXZ ; SharedRefImpl<_DRAWBOT_PenRef * __ptr64>::ReleaseObject

; 494  : 
; 495  : 			mRef = rhs;

	mov	r11, QWORD PTR this$[rsp]
	mov	rax, QWORD PTR rhs$[rsp]
	mov	QWORD PTR [r11+8], rax

; 496  : 
; 497  : 			if (retainB) {

	movzx	eax, BYTE PTR retainB$[rsp]
	test	eax, eax
	je	SHORT $LN1@Reset

; 498  : 				RetainObject();

	mov	rcx, QWORD PTR this$[rsp]
	call	?RetainObject@?$SharedRefImpl@PEAU_DRAWBOT_PenRef@@@@AEAAXXZ ; SharedRefImpl<_DRAWBOT_PenRef * __ptr64>::RetainObject
$LN1@Reset:
$LN2@Reset:

; 499  : 			}
; 500  : 		}
; 501  : 	}

	add	rsp, 40					; 00000028H
	ret	0
?Reset@?$SharedRefImpl@PEAU_DRAWBOT_PenRef@@@@QEAAXPEAU_DRAWBOT_PenRef@@_N@Z ENDP ; SharedRefImpl<_DRAWBOT_PenRef * __ptr64>::Reset
_TEXT	ENDS
PUBLIC	?RetainObject@?$SharedRefImpl@PEAU_DRAWBOT_PathRef@@@@AEAAXXZ ; SharedRefImpl<_DRAWBOT_PathRef * __ptr64>::RetainObject
PUBLIC	??_7?$SharedRefImpl@PEAU_DRAWBOT_PathRef@@@@6B@	; SharedRefImpl<_DRAWBOT_PathRef * __ptr64>::`vftable'
PUBLIC	??_R4?$SharedRefImpl@PEAU_DRAWBOT_PathRef@@@@6B@ ; SharedRefImpl<_DRAWBOT_PathRef * __ptr64>::`RTTI Complete Object Locator'
EXTRN	??_E?$SharedRefImpl@PEAU_DRAWBOT_PathRef@@@@UEAAPEAXI@Z:PROC ; SharedRefImpl<_DRAWBOT_PathRef * __ptr64>::`vector deleting destructor'
;	COMDAT pdata
pdata	SEGMENT
$pdata$??0?$SharedRefImpl@PEAU_DRAWBOT_PathRef@@@@QEAA@PEAUDRAWBOT_SupplierSuite1@@PEAU_DRAWBOT_PathRef@@_N@Z DD imagerel $LN4
	DD	imagerel $LN4+96
	DD	imagerel $unwind$??0?$SharedRefImpl@PEAU_DRAWBOT_PathRef@@@@QEAA@PEAUDRAWBOT_SupplierSuite1@@PEAU_DRAWBOT_PathRef@@_N@Z
pdata	ENDS
;	COMDAT ??_R4?$SharedRefImpl@PEAU_DRAWBOT_PathRef@@@@6B@
rdata$r	SEGMENT
??_R4?$SharedRefImpl@PEAU_DRAWBOT_PathRef@@@@6B@ DD 01H	; SharedRefImpl<_DRAWBOT_PathRef * __ptr64>::`RTTI Complete Object Locator'
	DD	00H
	DD	00H
	DD	imagerel ??_R0?AV?$SharedRefImpl@PEAU_DRAWBOT_PathRef@@@@@8
	DD	imagerel ??_R3?$SharedRefImpl@PEAU_DRAWBOT_PathRef@@@@8
	DD	imagerel ??_R4?$SharedRefImpl@PEAU_DRAWBOT_PathRef@@@@6B@
rdata$r	ENDS
;	COMDAT xdata
xdata	SEGMENT
$unwind$??0?$SharedRefImpl@PEAU_DRAWBOT_PathRef@@@@QEAA@PEAUDRAWBOT_SupplierSuite1@@PEAU_DRAWBOT_PathRef@@_N@Z DD 011801H
	DD	04218H
xdata	ENDS
;	COMDAT ??_7?$SharedRefImpl@PEAU_DRAWBOT_PathRef@@@@6B@
CONST	SEGMENT
??_7?$SharedRefImpl@PEAU_DRAWBOT_PathRef@@@@6B@ DQ FLAT:??_R4?$SharedRefImpl@PEAU_DRAWBOT_PathRef@@@@6B@ ; SharedRefImpl<_DRAWBOT_PathRef * __ptr64>::`vftable'
	DQ	FLAT:??_E?$SharedRefImpl@PEAU_DRAWBOT_PathRef@@@@UEAAPEAXI@Z
; Function compile flags: /Odtp
CONST	ENDS
;	COMDAT ??0?$SharedRefImpl@PEAU_DRAWBOT_PathRef@@@@QEAA@PEAUDRAWBOT_SupplierSuite1@@PEAU_DRAWBOT_PathRef@@_N@Z
_TEXT	SEGMENT
this$ = 48
suiteP$ = 56
r$ = 64
retainB$ = 72
??0?$SharedRefImpl@PEAU_DRAWBOT_PathRef@@@@QEAA@PEAUDRAWBOT_SupplierSuite1@@PEAU_DRAWBOT_PathRef@@_N@Z PROC ; SharedRefImpl<_DRAWBOT_PathRef * __ptr64>::SharedRefImpl<_DRAWBOT_PathRef * __ptr64>, COMDAT

; 452  : 	{

$LN4:
	mov	BYTE PTR [rsp+32], r9b
	mov	QWORD PTR [rsp+24], r8
	mov	QWORD PTR [rsp+16], rdx
	mov	QWORD PTR [rsp+8], rcx
	sub	rsp, 40					; 00000028H
	mov	rcx, QWORD PTR this$[rsp]
	lea	rax, OFFSET FLAT:??_7?$SharedRefImpl@PEAU_DRAWBOT_PathRef@@@@6B@
	mov	QWORD PTR [rcx], rax
	mov	rcx, QWORD PTR this$[rsp]
	mov	rax, QWORD PTR r$[rsp]
	mov	QWORD PTR [rcx+8], rax
	mov	rcx, QWORD PTR this$[rsp]
	mov	rax, QWORD PTR suiteP$[rsp]
	mov	QWORD PTR [rcx+16], rax

; 453  : 		if (retainB) {

	movzx	eax, BYTE PTR retainB$[rsp]
	test	eax, eax
	je	SHORT $LN1@SharedRefI@2

; 454  : 			RetainObject();

	mov	rcx, QWORD PTR this$[rsp]
	call	?RetainObject@?$SharedRefImpl@PEAU_DRAWBOT_PathRef@@@@AEAAXXZ ; SharedRefImpl<_DRAWBOT_PathRef * __ptr64>::RetainObject
$LN1@SharedRefI@2:

; 455  : 		}
; 456  : 	}

	mov	rax, QWORD PTR this$[rsp]
	add	rsp, 40					; 00000028H
	ret	0
??0?$SharedRefImpl@PEAU_DRAWBOT_PathRef@@@@QEAA@PEAUDRAWBOT_SupplierSuite1@@PEAU_DRAWBOT_PathRef@@_N@Z ENDP ; SharedRefImpl<_DRAWBOT_PathRef * __ptr64>::SharedRefImpl<_DRAWBOT_PathRef * __ptr64>
_TEXT	ENDS
PUBLIC	?ReleaseObject@?$SharedRefImpl@PEAU_DRAWBOT_PathRef@@@@AEAAXXZ ; SharedRefImpl<_DRAWBOT_PathRef * __ptr64>::ReleaseObject
;	COMDAT pdata
pdata	SEGMENT
$pdata$??1?$SharedRefImpl@PEAU_DRAWBOT_PathRef@@@@UEAA@XZ DD imagerel $LN3
	DD	imagerel $LN3+39
	DD	imagerel $unwind$??1?$SharedRefImpl@PEAU_DRAWBOT_PathRef@@@@UEAA@XZ
pdata	ENDS
;	COMDAT xdata
xdata	SEGMENT
$unwind$??1?$SharedRefImpl@PEAU_DRAWBOT_PathRef@@@@UEAA@XZ DD 010901H
	DD	04209H
; Function compile flags: /Odtp
xdata	ENDS
;	COMDAT ??1?$SharedRefImpl@PEAU_DRAWBOT_PathRef@@@@UEAA@XZ
_TEXT	SEGMENT
this$ = 48
??1?$SharedRefImpl@PEAU_DRAWBOT_PathRef@@@@UEAA@XZ PROC	; SharedRefImpl<_DRAWBOT_PathRef * __ptr64>::~SharedRefImpl<_DRAWBOT_PathRef * __ptr64>, COMDAT

; 459  : 	{

$LN3:
	mov	QWORD PTR [rsp+8], rcx
	sub	rsp, 40					; 00000028H
	mov	rcx, QWORD PTR this$[rsp]
	lea	rax, OFFSET FLAT:??_7?$SharedRefImpl@PEAU_DRAWBOT_PathRef@@@@6B@
	mov	QWORD PTR [rcx], rax

; 460  : 		ReleaseObject();

	mov	rcx, QWORD PTR this$[rsp]
	call	?ReleaseObject@?$SharedRefImpl@PEAU_DRAWBOT_PathRef@@@@AEAAXXZ ; SharedRefImpl<_DRAWBOT_PathRef * __ptr64>::ReleaseObject

; 461  : 	}

	add	rsp, 40					; 00000028H
	ret	0
??1?$SharedRefImpl@PEAU_DRAWBOT_PathRef@@@@UEAA@XZ ENDP	; SharedRefImpl<_DRAWBOT_PathRef * __ptr64>::~SharedRefImpl<_DRAWBOT_PathRef * __ptr64>
; Function compile flags: /Odtp
_TEXT	ENDS
;	COMDAT ?Get@?$SharedRefImpl@PEAU_DRAWBOT_PathRef@@@@QEBAPEAU_DRAWBOT_PathRef@@XZ
_TEXT	SEGMENT
this$ = 8
?Get@?$SharedRefImpl@PEAU_DRAWBOT_PathRef@@@@QEBAPEAU_DRAWBOT_PathRef@@XZ PROC ; SharedRefImpl<_DRAWBOT_PathRef * __ptr64>::Get, COMDAT

; 481  : 	{

	mov	QWORD PTR [rsp+8], rcx

; 482  : 		return mRef;

	mov	rax, QWORD PTR this$[rsp]
	mov	rax, QWORD PTR [rax+8]

; 483  : 	}

	ret	0
?Get@?$SharedRefImpl@PEAU_DRAWBOT_PathRef@@@@QEBAPEAU_DRAWBOT_PathRef@@XZ ENDP ; SharedRefImpl<_DRAWBOT_PathRef * __ptr64>::Get
_TEXT	ENDS
;	COMDAT pdata
pdata	SEGMENT
$pdata$?Reset@?$SharedRefImpl@PEAU_DRAWBOT_PathRef@@@@QEAAXPEAU_DRAWBOT_PathRef@@_N@Z DD imagerel $LN5
	DD	imagerel $LN5+83
	DD	imagerel $unwind$?Reset@?$SharedRefImpl@PEAU_DRAWBOT_PathRef@@@@QEAAXPEAU_DRAWBOT_PathRef@@_N@Z
pdata	ENDS
;	COMDAT xdata
xdata	SEGMENT
$unwind$?Reset@?$SharedRefImpl@PEAU_DRAWBOT_PathRef@@@@QEAAXPEAU_DRAWBOT_PathRef@@_N@Z DD 011301H
	DD	04213H
; Function compile flags: /Odtp
xdata	ENDS
;	COMDAT ?Reset@?$SharedRefImpl@PEAU_DRAWBOT_PathRef@@@@QEAAXPEAU_DRAWBOT_PathRef@@_N@Z
_TEXT	SEGMENT
this$ = 48
rhs$ = 56
retainB$ = 64
?Reset@?$SharedRefImpl@PEAU_DRAWBOT_PathRef@@@@QEAAXPEAU_DRAWBOT_PathRef@@_N@Z PROC ; SharedRefImpl<_DRAWBOT_PathRef * __ptr64>::Reset, COMDAT

; 491  : 	{

$LN5:
	mov	BYTE PTR [rsp+24], r8b
	mov	QWORD PTR [rsp+16], rdx
	mov	QWORD PTR [rsp+8], rcx
	sub	rsp, 40					; 00000028H

; 492  : 		if (mRef != rhs) {

	mov	rcx, QWORD PTR this$[rsp]
	mov	rax, QWORD PTR rhs$[rsp]
	cmp	QWORD PTR [rcx+8], rax
	je	SHORT $LN2@Reset@2

; 493  : 			ReleaseObject();

	mov	rcx, QWORD PTR this$[rsp]
	call	?ReleaseObject@?$SharedRefImpl@PEAU_DRAWBOT_PathRef@@@@AEAAXXZ ; SharedRefImpl<_DRAWBOT_PathRef * __ptr64>::ReleaseObject

; 494  : 
; 495  : 			mRef = rhs;

	mov	r11, QWORD PTR this$[rsp]
	mov	rax, QWORD PTR rhs$[rsp]
	mov	QWORD PTR [r11+8], rax

; 496  : 
; 497  : 			if (retainB) {

	movzx	eax, BYTE PTR retainB$[rsp]
	test	eax, eax
	je	SHORT $LN1@Reset@2

; 498  : 				RetainObject();

	mov	rcx, QWORD PTR this$[rsp]
	call	?RetainObject@?$SharedRefImpl@PEAU_DRAWBOT_PathRef@@@@AEAAXXZ ; SharedRefImpl<_DRAWBOT_PathRef * __ptr64>::RetainObject
$LN1@Reset@2:
$LN2@Reset@2:

; 499  : 			}
; 500  : 		}
; 501  : 	}

	add	rsp, 40					; 00000028H
	ret	0
?Reset@?$SharedRefImpl@PEAU_DRAWBOT_PathRef@@@@QEAAXPEAU_DRAWBOT_PathRef@@_N@Z ENDP ; SharedRefImpl<_DRAWBOT_PathRef * __ptr64>::Reset
_TEXT	ENDS
PUBLIC	?RetainObject@?$SharedRefImpl@PEAU_DRAWBOT_BrushRef@@@@AEAAXXZ ; SharedRefImpl<_DRAWBOT_BrushRef * __ptr64>::RetainObject
PUBLIC	??_7?$SharedRefImpl@PEAU_DRAWBOT_BrushRef@@@@6B@ ; SharedRefImpl<_DRAWBOT_BrushRef * __ptr64>::`vftable'
PUBLIC	??_R4?$SharedRefImpl@PEAU_DRAWBOT_BrushRef@@@@6B@ ; SharedRefImpl<_DRAWBOT_BrushRef * __ptr64>::`RTTI Complete Object Locator'
EXTRN	??_E?$SharedRefImpl@PEAU_DRAWBOT_BrushRef@@@@UEAAPEAXI@Z:PROC ; SharedRefImpl<_DRAWBOT_BrushRef * __ptr64>::`vector deleting destructor'
;	COMDAT pdata
pdata	SEGMENT
$pdata$??0?$SharedRefImpl@PEAU_DRAWBOT_BrushRef@@@@QEAA@PEAUDRAWBOT_SupplierSuite1@@PEAU_DRAWBOT_BrushRef@@_N@Z DD imagerel $LN4
	DD	imagerel $LN4+96
	DD	imagerel $unwind$??0?$SharedRefImpl@PEAU_DRAWBOT_BrushRef@@@@QEAA@PEAUDRAWBOT_SupplierSuite1@@PEAU_DRAWBOT_BrushRef@@_N@Z
pdata	ENDS
;	COMDAT ??_R4?$SharedRefImpl@PEAU_DRAWBOT_BrushRef@@@@6B@
rdata$r	SEGMENT
??_R4?$SharedRefImpl@PEAU_DRAWBOT_BrushRef@@@@6B@ DD 01H ; SharedRefImpl<_DRAWBOT_BrushRef * __ptr64>::`RTTI Complete Object Locator'
	DD	00H
	DD	00H
	DD	imagerel ??_R0?AV?$SharedRefImpl@PEAU_DRAWBOT_BrushRef@@@@@8
	DD	imagerel ??_R3?$SharedRefImpl@PEAU_DRAWBOT_BrushRef@@@@8
	DD	imagerel ??_R4?$SharedRefImpl@PEAU_DRAWBOT_BrushRef@@@@6B@
rdata$r	ENDS
;	COMDAT xdata
xdata	SEGMENT
$unwind$??0?$SharedRefImpl@PEAU_DRAWBOT_BrushRef@@@@QEAA@PEAUDRAWBOT_SupplierSuite1@@PEAU_DRAWBOT_BrushRef@@_N@Z DD 011801H
	DD	04218H
xdata	ENDS
;	COMDAT ??_7?$SharedRefImpl@PEAU_DRAWBOT_BrushRef@@@@6B@
CONST	SEGMENT
??_7?$SharedRefImpl@PEAU_DRAWBOT_BrushRef@@@@6B@ DQ FLAT:??_R4?$SharedRefImpl@PEAU_DRAWBOT_BrushRef@@@@6B@ ; SharedRefImpl<_DRAWBOT_BrushRef * __ptr64>::`vftable'
	DQ	FLAT:??_E?$SharedRefImpl@PEAU_DRAWBOT_BrushRef@@@@UEAAPEAXI@Z
; Function compile flags: /Odtp
CONST	ENDS
;	COMDAT ??0?$SharedRefImpl@PEAU_DRAWBOT_BrushRef@@@@QEAA@PEAUDRAWBOT_SupplierSuite1@@PEAU_DRAWBOT_BrushRef@@_N@Z
_TEXT	SEGMENT
this$ = 48
suiteP$ = 56
r$ = 64
retainB$ = 72
??0?$SharedRefImpl@PEAU_DRAWBOT_BrushRef@@@@QEAA@PEAUDRAWBOT_SupplierSuite1@@PEAU_DRAWBOT_BrushRef@@_N@Z PROC ; SharedRefImpl<_DRAWBOT_BrushRef * __ptr64>::SharedRefImpl<_DRAWBOT_BrushRef * __ptr64>, COMDAT

; 452  : 	{

$LN4:
	mov	BYTE PTR [rsp+32], r9b
	mov	QWORD PTR [rsp+24], r8
	mov	QWORD PTR [rsp+16], rdx
	mov	QWORD PTR [rsp+8], rcx
	sub	rsp, 40					; 00000028H
	mov	rcx, QWORD PTR this$[rsp]
	lea	rax, OFFSET FLAT:??_7?$SharedRefImpl@PEAU_DRAWBOT_BrushRef@@@@6B@
	mov	QWORD PTR [rcx], rax
	mov	rcx, QWORD PTR this$[rsp]
	mov	rax, QWORD PTR r$[rsp]
	mov	QWORD PTR [rcx+8], rax
	mov	rcx, QWORD PTR this$[rsp]
	mov	rax, QWORD PTR suiteP$[rsp]
	mov	QWORD PTR [rcx+16], rax

; 453  : 		if (retainB) {

	movzx	eax, BYTE PTR retainB$[rsp]
	test	eax, eax
	je	SHORT $LN1@SharedRefI@3

; 454  : 			RetainObject();

	mov	rcx, QWORD PTR this$[rsp]
	call	?RetainObject@?$SharedRefImpl@PEAU_DRAWBOT_BrushRef@@@@AEAAXXZ ; SharedRefImpl<_DRAWBOT_BrushRef * __ptr64>::RetainObject
$LN1@SharedRefI@3:

; 455  : 		}
; 456  : 	}

	mov	rax, QWORD PTR this$[rsp]
	add	rsp, 40					; 00000028H
	ret	0
??0?$SharedRefImpl@PEAU_DRAWBOT_BrushRef@@@@QEAA@PEAUDRAWBOT_SupplierSuite1@@PEAU_DRAWBOT_BrushRef@@_N@Z ENDP ; SharedRefImpl<_DRAWBOT_BrushRef * __ptr64>::SharedRefImpl<_DRAWBOT_BrushRef * __ptr64>
_TEXT	ENDS
PUBLIC	?ReleaseObject@?$SharedRefImpl@PEAU_DRAWBOT_BrushRef@@@@AEAAXXZ ; SharedRefImpl<_DRAWBOT_BrushRef * __ptr64>::ReleaseObject
;	COMDAT pdata
pdata	SEGMENT
$pdata$??1?$SharedRefImpl@PEAU_DRAWBOT_BrushRef@@@@UEAA@XZ DD imagerel $LN3
	DD	imagerel $LN3+39
	DD	imagerel $unwind$??1?$SharedRefImpl@PEAU_DRAWBOT_BrushRef@@@@UEAA@XZ
pdata	ENDS
;	COMDAT xdata
xdata	SEGMENT
$unwind$??1?$SharedRefImpl@PEAU_DRAWBOT_BrushRef@@@@UEAA@XZ DD 010901H
	DD	04209H
; Function compile flags: /Odtp
xdata	ENDS
;	COMDAT ??1?$SharedRefImpl@PEAU_DRAWBOT_BrushRef@@@@UEAA@XZ
_TEXT	SEGMENT
this$ = 48
??1?$SharedRefImpl@PEAU_DRAWBOT_BrushRef@@@@UEAA@XZ PROC ; SharedRefImpl<_DRAWBOT_BrushRef * __ptr64>::~SharedRefImpl<_DRAWBOT_BrushRef * __ptr64>, COMDAT

; 459  : 	{

$LN3:
	mov	QWORD PTR [rsp+8], rcx
	sub	rsp, 40					; 00000028H
	mov	rcx, QWORD PTR this$[rsp]
	lea	rax, OFFSET FLAT:??_7?$SharedRefImpl@PEAU_DRAWBOT_BrushRef@@@@6B@
	mov	QWORD PTR [rcx], rax

; 460  : 		ReleaseObject();

	mov	rcx, QWORD PTR this$[rsp]
	call	?ReleaseObject@?$SharedRefImpl@PEAU_DRAWBOT_BrushRef@@@@AEAAXXZ ; SharedRefImpl<_DRAWBOT_BrushRef * __ptr64>::ReleaseObject

; 461  : 	}

	add	rsp, 40					; 00000028H
	ret	0
??1?$SharedRefImpl@PEAU_DRAWBOT_BrushRef@@@@UEAA@XZ ENDP ; SharedRefImpl<_DRAWBOT_BrushRef * __ptr64>::~SharedRefImpl<_DRAWBOT_BrushRef * __ptr64>
; Function compile flags: /Odtp
_TEXT	ENDS
;	COMDAT ?Get@?$SharedRefImpl@PEAU_DRAWBOT_BrushRef@@@@QEBAPEAU_DRAWBOT_BrushRef@@XZ
_TEXT	SEGMENT
this$ = 8
?Get@?$SharedRefImpl@PEAU_DRAWBOT_BrushRef@@@@QEBAPEAU_DRAWBOT_BrushRef@@XZ PROC ; SharedRefImpl<_DRAWBOT_BrushRef * __ptr64>::Get, COMDAT

; 481  : 	{

	mov	QWORD PTR [rsp+8], rcx

; 482  : 		return mRef;

	mov	rax, QWORD PTR this$[rsp]
	mov	rax, QWORD PTR [rax+8]

; 483  : 	}

	ret	0
?Get@?$SharedRefImpl@PEAU_DRAWBOT_BrushRef@@@@QEBAPEAU_DRAWBOT_BrushRef@@XZ ENDP ; SharedRefImpl<_DRAWBOT_BrushRef * __ptr64>::Get
_TEXT	ENDS
;	COMDAT pdata
pdata	SEGMENT
$pdata$?Reset@?$SharedRefImpl@PEAU_DRAWBOT_BrushRef@@@@QEAAXPEAU_DRAWBOT_BrushRef@@_N@Z DD imagerel $LN5
	DD	imagerel $LN5+83
	DD	imagerel $unwind$?Reset@?$SharedRefImpl@PEAU_DRAWBOT_BrushRef@@@@QEAAXPEAU_DRAWBOT_BrushRef@@_N@Z
pdata	ENDS
;	COMDAT xdata
xdata	SEGMENT
$unwind$?Reset@?$SharedRefImpl@PEAU_DRAWBOT_BrushRef@@@@QEAAXPEAU_DRAWBOT_BrushRef@@_N@Z DD 011301H
	DD	04213H
; Function compile flags: /Odtp
xdata	ENDS
;	COMDAT ?Reset@?$SharedRefImpl@PEAU_DRAWBOT_BrushRef@@@@QEAAXPEAU_DRAWBOT_BrushRef@@_N@Z
_TEXT	SEGMENT
this$ = 48
rhs$ = 56
retainB$ = 64
?Reset@?$SharedRefImpl@PEAU_DRAWBOT_BrushRef@@@@QEAAXPEAU_DRAWBOT_BrushRef@@_N@Z PROC ; SharedRefImpl<_DRAWBOT_BrushRef * __ptr64>::Reset, COMDAT

; 491  : 	{

$LN5:
	mov	BYTE PTR [rsp+24], r8b
	mov	QWORD PTR [rsp+16], rdx
	mov	QWORD PTR [rsp+8], rcx
	sub	rsp, 40					; 00000028H

; 492  : 		if (mRef != rhs) {

	mov	rcx, QWORD PTR this$[rsp]
	mov	rax, QWORD PTR rhs$[rsp]
	cmp	QWORD PTR [rcx+8], rax
	je	SHORT $LN2@Reset@3

; 493  : 			ReleaseObject();

	mov	rcx, QWORD PTR this$[rsp]
	call	?ReleaseObject@?$SharedRefImpl@PEAU_DRAWBOT_BrushRef@@@@AEAAXXZ ; SharedRefImpl<_DRAWBOT_BrushRef * __ptr64>::ReleaseObject

; 494  : 
; 495  : 			mRef = rhs;

	mov	r11, QWORD PTR this$[rsp]
	mov	rax, QWORD PTR rhs$[rsp]
	mov	QWORD PTR [r11+8], rax

; 496  : 
; 497  : 			if (retainB) {

	movzx	eax, BYTE PTR retainB$[rsp]
	test	eax, eax
	je	SHORT $LN1@Reset@3

; 498  : 				RetainObject();

	mov	rcx, QWORD PTR this$[rsp]
	call	?RetainObject@?$SharedRefImpl@PEAU_DRAWBOT_BrushRef@@@@AEAAXXZ ; SharedRefImpl<_DRAWBOT_BrushRef * __ptr64>::RetainObject
$LN1@Reset@3:
$LN2@Reset@3:

; 499  : 			}
; 500  : 		}
; 501  : 	}

	add	rsp, 40					; 00000028H
	ret	0
?Reset@?$SharedRefImpl@PEAU_DRAWBOT_BrushRef@@@@QEAAXPEAU_DRAWBOT_BrushRef@@_N@Z ENDP ; SharedRefImpl<_DRAWBOT_BrushRef * __ptr64>::Reset
_TEXT	ENDS
PUBLIC	?RetainObject@?$SharedRefImpl@PEAU_DRAWBOT_FontRef@@@@AEAAXXZ ; SharedRefImpl<_DRAWBOT_FontRef * __ptr64>::RetainObject
PUBLIC	??_7?$SharedRefImpl@PEAU_DRAWBOT_FontRef@@@@6B@	; SharedRefImpl<_DRAWBOT_FontRef * __ptr64>::`vftable'
PUBLIC	??_R4?$SharedRefImpl@PEAU_DRAWBOT_FontRef@@@@6B@ ; SharedRefImpl<_DRAWBOT_FontRef * __ptr64>::`RTTI Complete Object Locator'
EXTRN	??_E?$SharedRefImpl@PEAU_DRAWBOT_FontRef@@@@UEAAPEAXI@Z:PROC ; SharedRefImpl<_DRAWBOT_FontRef * __ptr64>::`vector deleting destructor'
;	COMDAT pdata
pdata	SEGMENT
$pdata$??0?$SharedRefImpl@PEAU_DRAWBOT_FontRef@@@@QEAA@PEAUDRAWBOT_SupplierSuite1@@PEAU_DRAWBOT_FontRef@@_N@Z DD imagerel $LN4
	DD	imagerel $LN4+96
	DD	imagerel $unwind$??0?$SharedRefImpl@PEAU_DRAWBOT_FontRef@@@@QEAA@PEAUDRAWBOT_SupplierSuite1@@PEAU_DRAWBOT_FontRef@@_N@Z
pdata	ENDS
;	COMDAT ??_R4?$SharedRefImpl@PEAU_DRAWBOT_FontRef@@@@6B@
rdata$r	SEGMENT
??_R4?$SharedRefImpl@PEAU_DRAWBOT_FontRef@@@@6B@ DD 01H	; SharedRefImpl<_DRAWBOT_FontRef * __ptr64>::`RTTI Complete Object Locator'
	DD	00H
	DD	00H
	DD	imagerel ??_R0?AV?$SharedRefImpl@PEAU_DRAWBOT_FontRef@@@@@8
	DD	imagerel ??_R3?$SharedRefImpl@PEAU_DRAWBOT_FontRef@@@@8
	DD	imagerel ??_R4?$SharedRefImpl@PEAU_DRAWBOT_FontRef@@@@6B@
rdata$r	ENDS
;	COMDAT xdata
xdata	SEGMENT
$unwind$??0?$SharedRefImpl@PEAU_DRAWBOT_FontRef@@@@QEAA@PEAUDRAWBOT_SupplierSuite1@@PEAU_DRAWBOT_FontRef@@_N@Z DD 011801H
	DD	04218H
xdata	ENDS
;	COMDAT ??_7?$SharedRefImpl@PEAU_DRAWBOT_FontRef@@@@6B@
CONST	SEGMENT
??_7?$SharedRefImpl@PEAU_DRAWBOT_FontRef@@@@6B@ DQ FLAT:??_R4?$SharedRefImpl@PEAU_DRAWBOT_FontRef@@@@6B@ ; SharedRefImpl<_DRAWBOT_FontRef * __ptr64>::`vftable'
	DQ	FLAT:??_E?$SharedRefImpl@PEAU_DRAWBOT_FontRef@@@@UEAAPEAXI@Z
; Function compile flags: /Odtp
CONST	ENDS
;	COMDAT ??0?$SharedRefImpl@PEAU_DRAWBOT_FontRef@@@@QEAA@PEAUDRAWBOT_SupplierSuite1@@PEAU_DRAWBOT_FontRef@@_N@Z
_TEXT	SEGMENT
this$ = 48
suiteP$ = 56
r$ = 64
retainB$ = 72
??0?$SharedRefImpl@PEAU_DRAWBOT_FontRef@@@@QEAA@PEAUDRAWBOT_SupplierSuite1@@PEAU_DRAWBOT_FontRef@@_N@Z PROC ; SharedRefImpl<_DRAWBOT_FontRef * __ptr64>::SharedRefImpl<_DRAWBOT_FontRef * __ptr64>, COMDAT

; 452  : 	{

$LN4:
	mov	BYTE PTR [rsp+32], r9b
	mov	QWORD PTR [rsp+24], r8
	mov	QWORD PTR [rsp+16], rdx
	mov	QWORD PTR [rsp+8], rcx
	sub	rsp, 40					; 00000028H
	mov	rcx, QWORD PTR this$[rsp]
	lea	rax, OFFSET FLAT:??_7?$SharedRefImpl@PEAU_DRAWBOT_FontRef@@@@6B@
	mov	QWORD PTR [rcx], rax
	mov	rcx, QWORD PTR this$[rsp]
	mov	rax, QWORD PTR r$[rsp]
	mov	QWORD PTR [rcx+8], rax
	mov	rcx, QWORD PTR this$[rsp]
	mov	rax, QWORD PTR suiteP$[rsp]
	mov	QWORD PTR [rcx+16], rax

; 453  : 		if (retainB) {

	movzx	eax, BYTE PTR retainB$[rsp]
	test	eax, eax
	je	SHORT $LN1@SharedRefI@4

; 454  : 			RetainObject();

	mov	rcx, QWORD PTR this$[rsp]
	call	?RetainObject@?$SharedRefImpl@PEAU_DRAWBOT_FontRef@@@@AEAAXXZ ; SharedRefImpl<_DRAWBOT_FontRef * __ptr64>::RetainObject
$LN1@SharedRefI@4:

; 455  : 		}
; 456  : 	}

	mov	rax, QWORD PTR this$[rsp]
	add	rsp, 40					; 00000028H
	ret	0
??0?$SharedRefImpl@PEAU_DRAWBOT_FontRef@@@@QEAA@PEAUDRAWBOT_SupplierSuite1@@PEAU_DRAWBOT_FontRef@@_N@Z ENDP ; SharedRefImpl<_DRAWBOT_FontRef * __ptr64>::SharedRefImpl<_DRAWBOT_FontRef * __ptr64>
_TEXT	ENDS
PUBLIC	?ReleaseObject@?$SharedRefImpl@PEAU_DRAWBOT_FontRef@@@@AEAAXXZ ; SharedRefImpl<_DRAWBOT_FontRef * __ptr64>::ReleaseObject
;	COMDAT pdata
pdata	SEGMENT
$pdata$??1?$SharedRefImpl@PEAU_DRAWBOT_FontRef@@@@UEAA@XZ DD imagerel $LN3
	DD	imagerel $LN3+39
	DD	imagerel $unwind$??1?$SharedRefImpl@PEAU_DRAWBOT_FontRef@@@@UEAA@XZ
pdata	ENDS
;	COMDAT xdata
xdata	SEGMENT
$unwind$??1?$SharedRefImpl@PEAU_DRAWBOT_FontRef@@@@UEAA@XZ DD 010901H
	DD	04209H
; Function compile flags: /Odtp
xdata	ENDS
;	COMDAT ??1?$SharedRefImpl@PEAU_DRAWBOT_FontRef@@@@UEAA@XZ
_TEXT	SEGMENT
this$ = 48
??1?$SharedRefImpl@PEAU_DRAWBOT_FontRef@@@@UEAA@XZ PROC	; SharedRefImpl<_DRAWBOT_FontRef * __ptr64>::~SharedRefImpl<_DRAWBOT_FontRef * __ptr64>, COMDAT

; 459  : 	{

$LN3:
	mov	QWORD PTR [rsp+8], rcx
	sub	rsp, 40					; 00000028H
	mov	rcx, QWORD PTR this$[rsp]
	lea	rax, OFFSET FLAT:??_7?$SharedRefImpl@PEAU_DRAWBOT_FontRef@@@@6B@
	mov	QWORD PTR [rcx], rax

; 460  : 		ReleaseObject();

	mov	rcx, QWORD PTR this$[rsp]
	call	?ReleaseObject@?$SharedRefImpl@PEAU_DRAWBOT_FontRef@@@@AEAAXXZ ; SharedRefImpl<_DRAWBOT_FontRef * __ptr64>::ReleaseObject

; 461  : 	}

	add	rsp, 40					; 00000028H
	ret	0
??1?$SharedRefImpl@PEAU_DRAWBOT_FontRef@@@@UEAA@XZ ENDP	; SharedRefImpl<_DRAWBOT_FontRef * __ptr64>::~SharedRefImpl<_DRAWBOT_FontRef * __ptr64>
; Function compile flags: /Odtp
_TEXT	ENDS
;	COMDAT ?Get@?$SharedRefImpl@PEAU_DRAWBOT_FontRef@@@@QEBAPEAU_DRAWBOT_FontRef@@XZ
_TEXT	SEGMENT
this$ = 8
?Get@?$SharedRefImpl@PEAU_DRAWBOT_FontRef@@@@QEBAPEAU_DRAWBOT_FontRef@@XZ PROC ; SharedRefImpl<_DRAWBOT_FontRef * __ptr64>::Get, COMDAT

; 481  : 	{

	mov	QWORD PTR [rsp+8], rcx

; 482  : 		return mRef;

	mov	rax, QWORD PTR this$[rsp]
	mov	rax, QWORD PTR [rax+8]

; 483  : 	}

	ret	0
?Get@?$SharedRefImpl@PEAU_DRAWBOT_FontRef@@@@QEBAPEAU_DRAWBOT_FontRef@@XZ ENDP ; SharedRefImpl<_DRAWBOT_FontRef * __ptr64>::Get
_TEXT	ENDS
;	COMDAT pdata
pdata	SEGMENT
$pdata$?Reset@?$SharedRefImpl@PEAU_DRAWBOT_FontRef@@@@QEAAXPEAU_DRAWBOT_FontRef@@_N@Z DD imagerel $LN5
	DD	imagerel $LN5+83
	DD	imagerel $unwind$?Reset@?$SharedRefImpl@PEAU_DRAWBOT_FontRef@@@@QEAAXPEAU_DRAWBOT_FontRef@@_N@Z
pdata	ENDS
;	COMDAT xdata
xdata	SEGMENT
$unwind$?Reset@?$SharedRefImpl@PEAU_DRAWBOT_FontRef@@@@QEAAXPEAU_DRAWBOT_FontRef@@_N@Z DD 011301H
	DD	04213H
; Function compile flags: /Odtp
xdata	ENDS
;	COMDAT ?Reset@?$SharedRefImpl@PEAU_DRAWBOT_FontRef@@@@QEAAXPEAU_DRAWBOT_FontRef@@_N@Z
_TEXT	SEGMENT
this$ = 48
rhs$ = 56
retainB$ = 64
?Reset@?$SharedRefImpl@PEAU_DRAWBOT_FontRef@@@@QEAAXPEAU_DRAWBOT_FontRef@@_N@Z PROC ; SharedRefImpl<_DRAWBOT_FontRef * __ptr64>::Reset, COMDAT

; 491  : 	{

$LN5:
	mov	BYTE PTR [rsp+24], r8b
	mov	QWORD PTR [rsp+16], rdx
	mov	QWORD PTR [rsp+8], rcx
	sub	rsp, 40					; 00000028H

; 492  : 		if (mRef != rhs) {

	mov	rcx, QWORD PTR this$[rsp]
	mov	rax, QWORD PTR rhs$[rsp]
	cmp	QWORD PTR [rcx+8], rax
	je	SHORT $LN2@Reset@4

; 493  : 			ReleaseObject();

	mov	rcx, QWORD PTR this$[rsp]
	call	?ReleaseObject@?$SharedRefImpl@PEAU_DRAWBOT_FontRef@@@@AEAAXXZ ; SharedRefImpl<_DRAWBOT_FontRef * __ptr64>::ReleaseObject

; 494  : 
; 495  : 			mRef = rhs;

	mov	r11, QWORD PTR this$[rsp]
	mov	rax, QWORD PTR rhs$[rsp]
	mov	QWORD PTR [r11+8], rax

; 496  : 
; 497  : 			if (retainB) {

	movzx	eax, BYTE PTR retainB$[rsp]
	test	eax, eax
	je	SHORT $LN1@Reset@4

; 498  : 				RetainObject();

	mov	rcx, QWORD PTR this$[rsp]
	call	?RetainObject@?$SharedRefImpl@PEAU_DRAWBOT_FontRef@@@@AEAAXXZ ; SharedRefImpl<_DRAWBOT_FontRef * __ptr64>::RetainObject
$LN1@Reset@4:
$LN2@Reset@4:

; 499  : 			}
; 500  : 		}
; 501  : 	}

	add	rsp, 40					; 00000028H
	ret	0
?Reset@?$SharedRefImpl@PEAU_DRAWBOT_FontRef@@@@QEAAXPEAU_DRAWBOT_FontRef@@_N@Z ENDP ; SharedRefImpl<_DRAWBOT_FontRef * __ptr64>::Reset
_TEXT	ENDS
;	COMDAT pdata
pdata	SEGMENT
$pdata$??_G?$SharedRefImpl@PEAU_DRAWBOT_PenRef@@@@UEAAPEAXI@Z DD imagerel $LN4
	DD	imagerel $LN4+54
	DD	imagerel $unwind$??_G?$SharedRefImpl@PEAU_DRAWBOT_PenRef@@@@UEAAPEAXI@Z
pdata	ENDS
;	COMDAT xdata
xdata	SEGMENT
$unwind$??_G?$SharedRefImpl@PEAU_DRAWBOT_PenRef@@@@UEAAPEAXI@Z DD 010d01H
	DD	0420dH
; Function compile flags: /Odtp
xdata	ENDS
;	COMDAT ??_G?$SharedRefImpl@PEAU_DRAWBOT_PenRef@@@@UEAAPEAXI@Z
_TEXT	SEGMENT
this$ = 48
__flags$ = 56
??_G?$SharedRefImpl@PEAU_DRAWBOT_PenRef@@@@UEAAPEAXI@Z PROC ; SharedRefImpl<_DRAWBOT_PenRef * __ptr64>::`scalar deleting destructor', COMDAT
$LN4:
	mov	DWORD PTR [rsp+16], edx
	mov	QWORD PTR [rsp+8], rcx
	sub	rsp, 40					; 00000028H
	mov	rcx, QWORD PTR this$[rsp]
	call	??1?$SharedRefImpl@PEAU_DRAWBOT_PenRef@@@@UEAA@XZ ; SharedRefImpl<_DRAWBOT_PenRef * __ptr64>::~SharedRefImpl<_DRAWBOT_PenRef * __ptr64>
	mov	eax, DWORD PTR __flags$[rsp]
	and	eax, 1
	test	eax, eax
	je	SHORT $LN1@scalar@6
	mov	rcx, QWORD PTR this$[rsp]
	call	??3@YAXPEAX@Z				; operator delete
$LN1@scalar@6:
	mov	rax, QWORD PTR this$[rsp]
	add	rsp, 40					; 00000028H
	ret	0
??_G?$SharedRefImpl@PEAU_DRAWBOT_PenRef@@@@UEAAPEAXI@Z ENDP ; SharedRefImpl<_DRAWBOT_PenRef * __ptr64>::`scalar deleting destructor'
_TEXT	ENDS
;	COMDAT pdata
pdata	SEGMENT
$pdata$??_G?$SharedRefImpl@PEAU_DRAWBOT_PathRef@@@@UEAAPEAXI@Z DD imagerel $LN4
	DD	imagerel $LN4+54
	DD	imagerel $unwind$??_G?$SharedRefImpl@PEAU_DRAWBOT_PathRef@@@@UEAAPEAXI@Z
pdata	ENDS
;	COMDAT xdata
xdata	SEGMENT
$unwind$??_G?$SharedRefImpl@PEAU_DRAWBOT_PathRef@@@@UEAAPEAXI@Z DD 010d01H
	DD	0420dH
; Function compile flags: /Odtp
xdata	ENDS
;	COMDAT ??_G?$SharedRefImpl@PEAU_DRAWBOT_PathRef@@@@UEAAPEAXI@Z
_TEXT	SEGMENT
this$ = 48
__flags$ = 56
??_G?$SharedRefImpl@PEAU_DRAWBOT_PathRef@@@@UEAAPEAXI@Z PROC ; SharedRefImpl<_DRAWBOT_PathRef * __ptr64>::`scalar deleting destructor', COMDAT
$LN4:
	mov	DWORD PTR [rsp+16], edx
	mov	QWORD PTR [rsp+8], rcx
	sub	rsp, 40					; 00000028H
	mov	rcx, QWORD PTR this$[rsp]
	call	??1?$SharedRefImpl@PEAU_DRAWBOT_PathRef@@@@UEAA@XZ ; SharedRefImpl<_DRAWBOT_PathRef * __ptr64>::~SharedRefImpl<_DRAWBOT_PathRef * __ptr64>
	mov	eax, DWORD PTR __flags$[rsp]
	and	eax, 1
	test	eax, eax
	je	SHORT $LN1@scalar@7
	mov	rcx, QWORD PTR this$[rsp]
	call	??3@YAXPEAX@Z				; operator delete
$LN1@scalar@7:
	mov	rax, QWORD PTR this$[rsp]
	add	rsp, 40					; 00000028H
	ret	0
??_G?$SharedRefImpl@PEAU_DRAWBOT_PathRef@@@@UEAAPEAXI@Z ENDP ; SharedRefImpl<_DRAWBOT_PathRef * __ptr64>::`scalar deleting destructor'
_TEXT	ENDS
;	COMDAT pdata
pdata	SEGMENT
$pdata$??_G?$SharedRefImpl@PEAU_DRAWBOT_BrushRef@@@@UEAAPEAXI@Z DD imagerel $LN4
	DD	imagerel $LN4+54
	DD	imagerel $unwind$??_G?$SharedRefImpl@PEAU_DRAWBOT_BrushRef@@@@UEAAPEAXI@Z
pdata	ENDS
;	COMDAT xdata
xdata	SEGMENT
$unwind$??_G?$SharedRefImpl@PEAU_DRAWBOT_BrushRef@@@@UEAAPEAXI@Z DD 010d01H
	DD	0420dH
; Function compile flags: /Odtp
xdata	ENDS
;	COMDAT ??_G?$SharedRefImpl@PEAU_DRAWBOT_BrushRef@@@@UEAAPEAXI@Z
_TEXT	SEGMENT
this$ = 48
__flags$ = 56
??_G?$SharedRefImpl@PEAU_DRAWBOT_BrushRef@@@@UEAAPEAXI@Z PROC ; SharedRefImpl<_DRAWBOT_BrushRef * __ptr64>::`scalar deleting destructor', COMDAT
$LN4:
	mov	DWORD PTR [rsp+16], edx
	mov	QWORD PTR [rsp+8], rcx
	sub	rsp, 40					; 00000028H
	mov	rcx, QWORD PTR this$[rsp]
	call	??1?$SharedRefImpl@PEAU_DRAWBOT_BrushRef@@@@UEAA@XZ ; SharedRefImpl<_DRAWBOT_BrushRef * __ptr64>::~SharedRefImpl<_DRAWBOT_BrushRef * __ptr64>
	mov	eax, DWORD PTR __flags$[rsp]
	and	eax, 1
	test	eax, eax
	je	SHORT $LN1@scalar@8
	mov	rcx, QWORD PTR this$[rsp]
	call	??3@YAXPEAX@Z				; operator delete
$LN1@scalar@8:
	mov	rax, QWORD PTR this$[rsp]
	add	rsp, 40					; 00000028H
	ret	0
??_G?$SharedRefImpl@PEAU_DRAWBOT_BrushRef@@@@UEAAPEAXI@Z ENDP ; SharedRefImpl<_DRAWBOT_BrushRef * __ptr64>::`scalar deleting destructor'
_TEXT	ENDS
;	COMDAT pdata
pdata	SEGMENT
$pdata$??_G?$SharedRefImpl@PEAU_DRAWBOT_FontRef@@@@UEAAPEAXI@Z DD imagerel $LN4
	DD	imagerel $LN4+54
	DD	imagerel $unwind$??_G?$SharedRefImpl@PEAU_DRAWBOT_FontRef@@@@UEAAPEAXI@Z
pdata	ENDS
;	COMDAT xdata
xdata	SEGMENT
$unwind$??_G?$SharedRefImpl@PEAU_DRAWBOT_FontRef@@@@UEAAPEAXI@Z DD 010d01H
	DD	0420dH
; Function compile flags: /Odtp
xdata	ENDS
;	COMDAT ??_G?$SharedRefImpl@PEAU_DRAWBOT_FontRef@@@@UEAAPEAXI@Z
_TEXT	SEGMENT
this$ = 48
__flags$ = 56
??_G?$SharedRefImpl@PEAU_DRAWBOT_FontRef@@@@UEAAPEAXI@Z PROC ; SharedRefImpl<_DRAWBOT_FontRef * __ptr64>::`scalar deleting destructor', COMDAT
$LN4:
	mov	DWORD PTR [rsp+16], edx
	mov	QWORD PTR [rsp+8], rcx
	sub	rsp, 40					; 00000028H
	mov	rcx, QWORD PTR this$[rsp]
	call	??1?$SharedRefImpl@PEAU_DRAWBOT_FontRef@@@@UEAA@XZ ; SharedRefImpl<_DRAWBOT_FontRef * __ptr64>::~SharedRefImpl<_DRAWBOT_FontRef * __ptr64>
	mov	eax, DWORD PTR __flags$[rsp]
	and	eax, 1
	test	eax, eax
	je	SHORT $LN1@scalar@9
	mov	rcx, QWORD PTR this$[rsp]
	call	??3@YAXPEAX@Z				; operator delete
$LN1@scalar@9:
	mov	rax, QWORD PTR this$[rsp]
	add	rsp, 40					; 00000028H
	ret	0
??_G?$SharedRefImpl@PEAU_DRAWBOT_FontRef@@@@UEAAPEAXI@Z ENDP ; SharedRefImpl<_DRAWBOT_FontRef * __ptr64>::`scalar deleting destructor'
_TEXT	ENDS
;	COMDAT pdata
pdata	SEGMENT
$pdata$?ReleaseObject@?$SharedRefImpl@PEAU_DRAWBOT_PenRef@@@@AEAAXXZ DD imagerel $LN5
	DD	imagerel $LN5+102
	DD	imagerel $unwind$?ReleaseObject@?$SharedRefImpl@PEAU_DRAWBOT_PenRef@@@@AEAAXXZ
pdata	ENDS
;	COMDAT xdata
xdata	SEGMENT
$unwind$?ReleaseObject@?$SharedRefImpl@PEAU_DRAWBOT_PenRef@@@@AEAAXXZ DD 010901H
	DD	0a209H
; Function compile flags: /Odtp
xdata	ENDS
;	COMDAT ?ReleaseObject@?$SharedRefImpl@PEAU_DRAWBOT_PenRef@@@@AEAAXXZ
_TEXT	SEGMENT
_err$21886 = 32
$T22853 = 40
this$ = 96
?ReleaseObject@?$SharedRefImpl@PEAU_DRAWBOT_PenRef@@@@AEAAXXZ PROC ; SharedRefImpl<_DRAWBOT_PenRef * __ptr64>::ReleaseObject, COMDAT

; 505  : 	{

$LN5:
	mov	QWORD PTR [rsp+8], rcx
	sub	rsp, 88					; 00000058H

; 506  : 		if (mRef) {

	mov	rax, QWORD PTR this$[rsp]
	cmp	QWORD PTR [rax+8], 0
	je	SHORT $LN2@ReleaseObj

; 507  : 			DRAWBOT_ErrorToException(mSuiteP->ReleaseObject(reinterpret_cast<DRAWBOT_ObjectRef>(mRef)));

	mov	rax, QWORD PTR this$[rsp]
	mov	rax, QWORD PTR [rax+16]
	mov	rcx, QWORD PTR this$[rsp]
	mov	rcx, QWORD PTR [rcx+8]
	call	QWORD PTR [rax+96]
	mov	DWORD PTR _err$21886[rsp], eax
	cmp	DWORD PTR _err$21886[rsp], 0
	je	SHORT $LN1@ReleaseObj
	mov	edx, DWORD PTR _err$21886[rsp]
	lea	rcx, QWORD PTR $T22853[rsp]
	call	??0DRAWBOT_Exception@@QEAA@H@Z		; DRAWBOT_Exception::DRAWBOT_Exception
	lea	rdx, OFFSET FLAT:_TI2?AVDRAWBOT_Exception@@
	lea	rcx, QWORD PTR $T22853[rsp]
	call	_CxxThrowException
$LN1@ReleaseObj:

; 508  : 			mRef = NULL;

	mov	rax, QWORD PTR this$[rsp]
	mov	QWORD PTR [rax+8], 0
$LN2@ReleaseObj:
$LN4@ReleaseObj:

; 509  : 		}
; 510  : 	}

	add	rsp, 88					; 00000058H
	ret	0
?ReleaseObject@?$SharedRefImpl@PEAU_DRAWBOT_PenRef@@@@AEAAXXZ ENDP ; SharedRefImpl<_DRAWBOT_PenRef * __ptr64>::ReleaseObject
_TEXT	ENDS
;	COMDAT pdata
pdata	SEGMENT
$pdata$?RetainObject@?$SharedRefImpl@PEAU_DRAWBOT_PenRef@@@@AEAAXXZ DD imagerel $LN5
	DD	imagerel $LN5+89
	DD	imagerel $unwind$?RetainObject@?$SharedRefImpl@PEAU_DRAWBOT_PenRef@@@@AEAAXXZ
pdata	ENDS
;	COMDAT xdata
xdata	SEGMENT
$unwind$?RetainObject@?$SharedRefImpl@PEAU_DRAWBOT_PenRef@@@@AEAAXXZ DD 010901H
	DD	0a209H
; Function compile flags: /Odtp
xdata	ENDS
;	COMDAT ?RetainObject@?$SharedRefImpl@PEAU_DRAWBOT_PenRef@@@@AEAAXXZ
_TEXT	SEGMENT
_err$21894 = 32
$T22861 = 40
this$ = 96
?RetainObject@?$SharedRefImpl@PEAU_DRAWBOT_PenRef@@@@AEAAXXZ PROC ; SharedRefImpl<_DRAWBOT_PenRef * __ptr64>::RetainObject, COMDAT

; 513  : 	{

$LN5:
	mov	QWORD PTR [rsp+8], rcx
	sub	rsp, 88					; 00000058H

; 514  : 		if (mRef) {

	mov	rax, QWORD PTR this$[rsp]
	cmp	QWORD PTR [rax+8], 0
	je	SHORT $LN2@RetainObje

; 515  : 			DRAWBOT_ErrorToException(mSuiteP->RetainObject(reinterpret_cast<DRAWBOT_ObjectRef>(mRef)));

	mov	rax, QWORD PTR this$[rsp]
	mov	rax, QWORD PTR [rax+16]
	mov	rcx, QWORD PTR this$[rsp]
	mov	rcx, QWORD PTR [rcx+8]
	call	QWORD PTR [rax+88]
	mov	DWORD PTR _err$21894[rsp], eax
	cmp	DWORD PTR _err$21894[rsp], 0
	je	SHORT $LN1@RetainObje
	mov	edx, DWORD PTR _err$21894[rsp]
	lea	rcx, QWORD PTR $T22861[rsp]
	call	??0DRAWBOT_Exception@@QEAA@H@Z		; DRAWBOT_Exception::DRAWBOT_Exception
	lea	rdx, OFFSET FLAT:_TI2?AVDRAWBOT_Exception@@
	lea	rcx, QWORD PTR $T22861[rsp]
	call	_CxxThrowException
$LN1@RetainObje:
$LN2@RetainObje:
$LN4@RetainObje:

; 516  : 		}
; 517  : 	}

	add	rsp, 88					; 00000058H
	ret	0
?RetainObject@?$SharedRefImpl@PEAU_DRAWBOT_PenRef@@@@AEAAXXZ ENDP ; SharedRefImpl<_DRAWBOT_PenRef * __ptr64>::RetainObject
_TEXT	ENDS
;	COMDAT pdata
pdata	SEGMENT
$pdata$?ReleaseObject@?$SharedRefImpl@PEAU_DRAWBOT_PathRef@@@@AEAAXXZ DD imagerel $LN5
	DD	imagerel $LN5+102
	DD	imagerel $unwind$?ReleaseObject@?$SharedRefImpl@PEAU_DRAWBOT_PathRef@@@@AEAAXXZ
pdata	ENDS
;	COMDAT xdata
xdata	SEGMENT
$unwind$?ReleaseObject@?$SharedRefImpl@PEAU_DRAWBOT_PathRef@@@@AEAAXXZ DD 010901H
	DD	0a209H
; Function compile flags: /Odtp
xdata	ENDS
;	COMDAT ?ReleaseObject@?$SharedRefImpl@PEAU_DRAWBOT_PathRef@@@@AEAAXXZ
_TEXT	SEGMENT
_err$21902 = 32
$T22869 = 40
this$ = 96
?ReleaseObject@?$SharedRefImpl@PEAU_DRAWBOT_PathRef@@@@AEAAXXZ PROC ; SharedRefImpl<_DRAWBOT_PathRef * __ptr64>::ReleaseObject, COMDAT

; 505  : 	{

$LN5:
	mov	QWORD PTR [rsp+8], rcx
	sub	rsp, 88					; 00000058H

; 506  : 		if (mRef) {

	mov	rax, QWORD PTR this$[rsp]
	cmp	QWORD PTR [rax+8], 0
	je	SHORT $LN2@ReleaseObj@2

; 507  : 			DRAWBOT_ErrorToException(mSuiteP->ReleaseObject(reinterpret_cast<DRAWBOT_ObjectRef>(mRef)));

	mov	rax, QWORD PTR this$[rsp]
	mov	rax, QWORD PTR [rax+16]
	mov	rcx, QWORD PTR this$[rsp]
	mov	rcx, QWORD PTR [rcx+8]
	call	QWORD PTR [rax+96]
	mov	DWORD PTR _err$21902[rsp], eax
	cmp	DWORD PTR _err$21902[rsp], 0
	je	SHORT $LN1@ReleaseObj@2
	mov	edx, DWORD PTR _err$21902[rsp]
	lea	rcx, QWORD PTR $T22869[rsp]
	call	??0DRAWBOT_Exception@@QEAA@H@Z		; DRAWBOT_Exception::DRAWBOT_Exception
	lea	rdx, OFFSET FLAT:_TI2?AVDRAWBOT_Exception@@
	lea	rcx, QWORD PTR $T22869[rsp]
	call	_CxxThrowException
$LN1@ReleaseObj@2:

; 508  : 			mRef = NULL;

	mov	rax, QWORD PTR this$[rsp]
	mov	QWORD PTR [rax+8], 0
$LN2@ReleaseObj@2:
$LN4@ReleaseObj@2:

; 509  : 		}
; 510  : 	}

	add	rsp, 88					; 00000058H
	ret	0
?ReleaseObject@?$SharedRefImpl@PEAU_DRAWBOT_PathRef@@@@AEAAXXZ ENDP ; SharedRefImpl<_DRAWBOT_PathRef * __ptr64>::ReleaseObject
_TEXT	ENDS
;	COMDAT pdata
pdata	SEGMENT
$pdata$?RetainObject@?$SharedRefImpl@PEAU_DRAWBOT_PathRef@@@@AEAAXXZ DD imagerel $LN5
	DD	imagerel $LN5+89
	DD	imagerel $unwind$?RetainObject@?$SharedRefImpl@PEAU_DRAWBOT_PathRef@@@@AEAAXXZ
pdata	ENDS
;	COMDAT xdata
xdata	SEGMENT
$unwind$?RetainObject@?$SharedRefImpl@PEAU_DRAWBOT_PathRef@@@@AEAAXXZ DD 010901H
	DD	0a209H
; Function compile flags: /Odtp
xdata	ENDS
;	COMDAT ?RetainObject@?$SharedRefImpl@PEAU_DRAWBOT_PathRef@@@@AEAAXXZ
_TEXT	SEGMENT
_err$21910 = 32
$T22877 = 40
this$ = 96
?RetainObject@?$SharedRefImpl@PEAU_DRAWBOT_PathRef@@@@AEAAXXZ PROC ; SharedRefImpl<_DRAWBOT_PathRef * __ptr64>::RetainObject, COMDAT

; 513  : 	{

$LN5:
	mov	QWORD PTR [rsp+8], rcx
	sub	rsp, 88					; 00000058H

; 514  : 		if (mRef) {

	mov	rax, QWORD PTR this$[rsp]
	cmp	QWORD PTR [rax+8], 0
	je	SHORT $LN2@RetainObje@2

; 515  : 			DRAWBOT_ErrorToException(mSuiteP->RetainObject(reinterpret_cast<DRAWBOT_ObjectRef>(mRef)));

	mov	rax, QWORD PTR this$[rsp]
	mov	rax, QWORD PTR [rax+16]
	mov	rcx, QWORD PTR this$[rsp]
	mov	rcx, QWORD PTR [rcx+8]
	call	QWORD PTR [rax+88]
	mov	DWORD PTR _err$21910[rsp], eax
	cmp	DWORD PTR _err$21910[rsp], 0
	je	SHORT $LN1@RetainObje@2
	mov	edx, DWORD PTR _err$21910[rsp]
	lea	rcx, QWORD PTR $T22877[rsp]
	call	??0DRAWBOT_Exception@@QEAA@H@Z		; DRAWBOT_Exception::DRAWBOT_Exception
	lea	rdx, OFFSET FLAT:_TI2?AVDRAWBOT_Exception@@
	lea	rcx, QWORD PTR $T22877[rsp]
	call	_CxxThrowException
$LN1@RetainObje@2:
$LN2@RetainObje@2:
$LN4@RetainObje@2:

; 516  : 		}
; 517  : 	}

	add	rsp, 88					; 00000058H
	ret	0
?RetainObject@?$SharedRefImpl@PEAU_DRAWBOT_PathRef@@@@AEAAXXZ ENDP ; SharedRefImpl<_DRAWBOT_PathRef * __ptr64>::RetainObject
_TEXT	ENDS
;	COMDAT pdata
pdata	SEGMENT
$pdata$?ReleaseObject@?$SharedRefImpl@PEAU_DRAWBOT_BrushRef@@@@AEAAXXZ DD imagerel $LN5
	DD	imagerel $LN5+102
	DD	imagerel $unwind$?ReleaseObject@?$SharedRefImpl@PEAU_DRAWBOT_BrushRef@@@@AEAAXXZ
pdata	ENDS
;	COMDAT xdata
xdata	SEGMENT
$unwind$?ReleaseObject@?$SharedRefImpl@PEAU_DRAWBOT_BrushRef@@@@AEAAXXZ DD 010901H
	DD	0a209H
; Function compile flags: /Odtp
xdata	ENDS
;	COMDAT ?ReleaseObject@?$SharedRefImpl@PEAU_DRAWBOT_BrushRef@@@@AEAAXXZ
_TEXT	SEGMENT
_err$21918 = 32
$T22885 = 40
this$ = 96
?ReleaseObject@?$SharedRefImpl@PEAU_DRAWBOT_BrushRef@@@@AEAAXXZ PROC ; SharedRefImpl<_DRAWBOT_BrushRef * __ptr64>::ReleaseObject, COMDAT

; 505  : 	{

$LN5:
	mov	QWORD PTR [rsp+8], rcx
	sub	rsp, 88					; 00000058H

; 506  : 		if (mRef) {

	mov	rax, QWORD PTR this$[rsp]
	cmp	QWORD PTR [rax+8], 0
	je	SHORT $LN2@ReleaseObj@3

; 507  : 			DRAWBOT_ErrorToException(mSuiteP->ReleaseObject(reinterpret_cast<DRAWBOT_ObjectRef>(mRef)));

	mov	rax, QWORD PTR this$[rsp]
	mov	rax, QWORD PTR [rax+16]
	mov	rcx, QWORD PTR this$[rsp]
	mov	rcx, QWORD PTR [rcx+8]
	call	QWORD PTR [rax+96]
	mov	DWORD PTR _err$21918[rsp], eax
	cmp	DWORD PTR _err$21918[rsp], 0
	je	SHORT $LN1@ReleaseObj@3
	mov	edx, DWORD PTR _err$21918[rsp]
	lea	rcx, QWORD PTR $T22885[rsp]
	call	??0DRAWBOT_Exception@@QEAA@H@Z		; DRAWBOT_Exception::DRAWBOT_Exception
	lea	rdx, OFFSET FLAT:_TI2?AVDRAWBOT_Exception@@
	lea	rcx, QWORD PTR $T22885[rsp]
	call	_CxxThrowException
$LN1@ReleaseObj@3:

; 508  : 			mRef = NULL;

	mov	rax, QWORD PTR this$[rsp]
	mov	QWORD PTR [rax+8], 0
$LN2@ReleaseObj@3:
$LN4@ReleaseObj@3:

; 509  : 		}
; 510  : 	}

	add	rsp, 88					; 00000058H
	ret	0
?ReleaseObject@?$SharedRefImpl@PEAU_DRAWBOT_BrushRef@@@@AEAAXXZ ENDP ; SharedRefImpl<_DRAWBOT_BrushRef * __ptr64>::ReleaseObject
_TEXT	ENDS
;	COMDAT pdata
pdata	SEGMENT
$pdata$?RetainObject@?$SharedRefImpl@PEAU_DRAWBOT_BrushRef@@@@AEAAXXZ DD imagerel $LN5
	DD	imagerel $LN5+89
	DD	imagerel $unwind$?RetainObject@?$SharedRefImpl@PEAU_DRAWBOT_BrushRef@@@@AEAAXXZ
pdata	ENDS
;	COMDAT xdata
xdata	SEGMENT
$unwind$?RetainObject@?$SharedRefImpl@PEAU_DRAWBOT_BrushRef@@@@AEAAXXZ DD 010901H
	DD	0a209H
; Function compile flags: /Odtp
xdata	ENDS
;	COMDAT ?RetainObject@?$SharedRefImpl@PEAU_DRAWBOT_BrushRef@@@@AEAAXXZ
_TEXT	SEGMENT
_err$21926 = 32
$T22893 = 40
this$ = 96
?RetainObject@?$SharedRefImpl@PEAU_DRAWBOT_BrushRef@@@@AEAAXXZ PROC ; SharedRefImpl<_DRAWBOT_BrushRef * __ptr64>::RetainObject, COMDAT

; 513  : 	{

$LN5:
	mov	QWORD PTR [rsp+8], rcx
	sub	rsp, 88					; 00000058H

; 514  : 		if (mRef) {

	mov	rax, QWORD PTR this$[rsp]
	cmp	QWORD PTR [rax+8], 0
	je	SHORT $LN2@RetainObje@3

; 515  : 			DRAWBOT_ErrorToException(mSuiteP->RetainObject(reinterpret_cast<DRAWBOT_ObjectRef>(mRef)));

	mov	rax, QWORD PTR this$[rsp]
	mov	rax, QWORD PTR [rax+16]
	mov	rcx, QWORD PTR this$[rsp]
	mov	rcx, QWORD PTR [rcx+8]
	call	QWORD PTR [rax+88]
	mov	DWORD PTR _err$21926[rsp], eax
	cmp	DWORD PTR _err$21926[rsp], 0
	je	SHORT $LN1@RetainObje@3
	mov	edx, DWORD PTR _err$21926[rsp]
	lea	rcx, QWORD PTR $T22893[rsp]
	call	??0DRAWBOT_Exception@@QEAA@H@Z		; DRAWBOT_Exception::DRAWBOT_Exception
	lea	rdx, OFFSET FLAT:_TI2?AVDRAWBOT_Exception@@
	lea	rcx, QWORD PTR $T22893[rsp]
	call	_CxxThrowException
$LN1@RetainObje@3:
$LN2@RetainObje@3:
$LN4@RetainObje@3:

; 516  : 		}
; 517  : 	}

	add	rsp, 88					; 00000058H
	ret	0
?RetainObject@?$SharedRefImpl@PEAU_DRAWBOT_BrushRef@@@@AEAAXXZ ENDP ; SharedRefImpl<_DRAWBOT_BrushRef * __ptr64>::RetainObject
_TEXT	ENDS
;	COMDAT pdata
pdata	SEGMENT
$pdata$?ReleaseObject@?$SharedRefImpl@PEAU_DRAWBOT_FontRef@@@@AEAAXXZ DD imagerel $LN5
	DD	imagerel $LN5+102
	DD	imagerel $unwind$?ReleaseObject@?$SharedRefImpl@PEAU_DRAWBOT_FontRef@@@@AEAAXXZ
pdata	ENDS
;	COMDAT xdata
xdata	SEGMENT
$unwind$?ReleaseObject@?$SharedRefImpl@PEAU_DRAWBOT_FontRef@@@@AEAAXXZ DD 010901H
	DD	0a209H
; Function compile flags: /Odtp
xdata	ENDS
;	COMDAT ?ReleaseObject@?$SharedRefImpl@PEAU_DRAWBOT_FontRef@@@@AEAAXXZ
_TEXT	SEGMENT
_err$21934 = 32
$T22901 = 40
this$ = 96
?ReleaseObject@?$SharedRefImpl@PEAU_DRAWBOT_FontRef@@@@AEAAXXZ PROC ; SharedRefImpl<_DRAWBOT_FontRef * __ptr64>::ReleaseObject, COMDAT

; 505  : 	{

$LN5:
	mov	QWORD PTR [rsp+8], rcx
	sub	rsp, 88					; 00000058H

; 506  : 		if (mRef) {

	mov	rax, QWORD PTR this$[rsp]
	cmp	QWORD PTR [rax+8], 0
	je	SHORT $LN2@ReleaseObj@4

; 507  : 			DRAWBOT_ErrorToException(mSuiteP->ReleaseObject(reinterpret_cast<DRAWBOT_ObjectRef>(mRef)));

	mov	rax, QWORD PTR this$[rsp]
	mov	rax, QWORD PTR [rax+16]
	mov	rcx, QWORD PTR this$[rsp]
	mov	rcx, QWORD PTR [rcx+8]
	call	QWORD PTR [rax+96]
	mov	DWORD PTR _err$21934[rsp], eax
	cmp	DWORD PTR _err$21934[rsp], 0
	je	SHORT $LN1@ReleaseObj@4
	mov	edx, DWORD PTR _err$21934[rsp]
	lea	rcx, QWORD PTR $T22901[rsp]
	call	??0DRAWBOT_Exception@@QEAA@H@Z		; DRAWBOT_Exception::DRAWBOT_Exception
	lea	rdx, OFFSET FLAT:_TI2?AVDRAWBOT_Exception@@
	lea	rcx, QWORD PTR $T22901[rsp]
	call	_CxxThrowException
$LN1@ReleaseObj@4:

; 508  : 			mRef = NULL;

	mov	rax, QWORD PTR this$[rsp]
	mov	QWORD PTR [rax+8], 0
$LN2@ReleaseObj@4:
$LN4@ReleaseObj@4:

; 509  : 		}
; 510  : 	}

	add	rsp, 88					; 00000058H
	ret	0
?ReleaseObject@?$SharedRefImpl@PEAU_DRAWBOT_FontRef@@@@AEAAXXZ ENDP ; SharedRefImpl<_DRAWBOT_FontRef * __ptr64>::ReleaseObject
_TEXT	ENDS
;	COMDAT pdata
pdata	SEGMENT
$pdata$?RetainObject@?$SharedRefImpl@PEAU_DRAWBOT_FontRef@@@@AEAAXXZ DD imagerel $LN5
	DD	imagerel $LN5+89
	DD	imagerel $unwind$?RetainObject@?$SharedRefImpl@PEAU_DRAWBOT_FontRef@@@@AEAAXXZ
pdata	ENDS
;	COMDAT xdata
xdata	SEGMENT
$unwind$?RetainObject@?$SharedRefImpl@PEAU_DRAWBOT_FontRef@@@@AEAAXXZ DD 010901H
	DD	0a209H
; Function compile flags: /Odtp
xdata	ENDS
;	COMDAT ?RetainObject@?$SharedRefImpl@PEAU_DRAWBOT_FontRef@@@@AEAAXXZ
_TEXT	SEGMENT
_err$21942 = 32
$T22909 = 40
this$ = 96
?RetainObject@?$SharedRefImpl@PEAU_DRAWBOT_FontRef@@@@AEAAXXZ PROC ; SharedRefImpl<_DRAWBOT_FontRef * __ptr64>::RetainObject, COMDAT

; 513  : 	{

$LN5:
	mov	QWORD PTR [rsp+8], rcx
	sub	rsp, 88					; 00000058H

; 514  : 		if (mRef) {

	mov	rax, QWORD PTR this$[rsp]
	cmp	QWORD PTR [rax+8], 0
	je	SHORT $LN2@RetainObje@4

; 515  : 			DRAWBOT_ErrorToException(mSuiteP->RetainObject(reinterpret_cast<DRAWBOT_ObjectRef>(mRef)));

	mov	rax, QWORD PTR this$[rsp]
	mov	rax, QWORD PTR [rax+16]
	mov	rcx, QWORD PTR this$[rsp]
	mov	rcx, QWORD PTR [rcx+8]
	call	QWORD PTR [rax+88]
	mov	DWORD PTR _err$21942[rsp], eax
	cmp	DWORD PTR _err$21942[rsp], 0
	je	SHORT $LN1@RetainObje@4
	mov	edx, DWORD PTR _err$21942[rsp]
	lea	rcx, QWORD PTR $T22909[rsp]
	call	??0DRAWBOT_Exception@@QEAA@H@Z		; DRAWBOT_Exception::DRAWBOT_Exception
	lea	rdx, OFFSET FLAT:_TI2?AVDRAWBOT_Exception@@
	lea	rcx, QWORD PTR $T22909[rsp]
	call	_CxxThrowException
$LN1@RetainObje@4:
$LN2@RetainObje@4:
$LN4@RetainObje@4:

; 516  : 		}
; 517  : 	}

	add	rsp, 88					; 00000058H
	ret	0
?RetainObject@?$SharedRefImpl@PEAU_DRAWBOT_FontRef@@@@AEAAXXZ ENDP ; SharedRefImpl<_DRAWBOT_FontRef * __ptr64>::RetainObject
_TEXT	ENDS
END
