; Listing generated by Microsoft (R) Optimizing Compiler Version 15.00.21022.08 

include listing.inc

INCLUDELIB MSVCRTD
INCLUDELIB OLDNAMES

_DATA	SEGMENT
_bad_alloc_Message DQ FLAT:$SG20507
_DATA	ENDS
CONST	SEGMENT
$SG20507 DB	'bad allocation', 00H
CONST	ENDS
PUBLIC	??0AEGP_SuiteHandler@@QEAA@PEBUSPBasicSuite@@@Z	; AEGP_SuiteHandler::AEGP_SuiteHandler
EXTRN	?MissingSuiteError@AEGP_SuiteHandler@@AEBAXXZ:PROC ; AEGP_SuiteHandler::MissingSuiteError
pdata	SEGMENT
$pdata$??0AEGP_SuiteHandler@@QEAA@PEBUSPBasicSuite@@@Z DD imagerel $LN9
	DD	imagerel $LN9+129
	DD	imagerel $unwind$??0AEGP_SuiteHandler@@QEAA@PEBUSPBasicSuite@@@Z
pdata	ENDS
xdata	SEGMENT
$unwind$??0AEGP_SuiteHandler@@QEAA@PEBUSPBasicSuite@@@Z DD 010e01H
	DD	0620eH
; Function compile flags: /Odtp
; File c:\users\brendan bolles\documents\development\proexr\src\aftereffects\fnord_suitehandler.cpp
xdata	ENDS
_TEXT	SEGMENT
_p$21667 = 32
_t$21666 = 40
this$ = 64
pica_basicP$ = 72
??0AEGP_SuiteHandler@@QEAA@PEBUSPBasicSuite@@@Z PROC	; AEGP_SuiteHandler::AEGP_SuiteHandler

; 39   : {

$LN9:
	mov	QWORD PTR [rsp+16], rdx
	mov	QWORD PTR [rsp+8], rcx
	sub	rsp, 56					; 00000038H
	mov	rcx, QWORD PTR this$[rsp]
	mov	rax, QWORD PTR pica_basicP$[rsp]
	mov	QWORD PTR [rcx], rax
$LN6@AEGP_Suite:

; 40   : 	AEFX_CLR_STRUCT(i_suites);

	mov	DWORD PTR _t$21666[rsp], 408		; 00000198H
	mov	rax, QWORD PTR this$[rsp]
	add	rax, 8
	mov	QWORD PTR _p$21667[rsp], rax
$LN3@AEGP_Suite:
	mov	ecx, DWORD PTR _t$21666[rsp]
	mov	eax, DWORD PTR _t$21666[rsp]
	sub	eax, 1
	mov	DWORD PTR _t$21666[rsp], eax
	test	ecx, ecx
	je	SHORT $LN2@AEGP_Suite
	mov	rax, QWORD PTR _p$21667[rsp]
	mov	BYTE PTR [rax], 0
	mov	rax, QWORD PTR _p$21667[rsp]
	add	rax, 1
	mov	QWORD PTR _p$21667[rsp], rax
	jmp	SHORT $LN3@AEGP_Suite
$LN2@AEGP_Suite:
	xor	eax, eax
	test	eax, eax
	jne	SHORT $LN6@AEGP_Suite

; 41   : 
; 42   : 	if (!i_pica_basicP) {						//can't construct w/out basic suite, everything else is demand loaded

	mov	rax, QWORD PTR this$[rsp]
	cmp	QWORD PTR [rax], 0
	jne	SHORT $LN1@AEGP_Suite

; 43   : 		MissingSuiteError();

	mov	rcx, QWORD PTR this$[rsp]
	call	?MissingSuiteError@AEGP_SuiteHandler@@AEBAXXZ ; AEGP_SuiteHandler::MissingSuiteError
$LN1@AEGP_Suite:

; 44   : 	}
; 45   : }

	mov	rax, QWORD PTR this$[rsp]
	add	rsp, 56					; 00000038H
	ret	0
??0AEGP_SuiteHandler@@QEAA@PEBUSPBasicSuite@@@Z ENDP	; AEGP_SuiteHandler::AEGP_SuiteHandler
_TEXT	ENDS
PUBLIC	?ReleaseAllSuites@AEGP_SuiteHandler@@AEAAXXZ	; AEGP_SuiteHandler::ReleaseAllSuites
PUBLIC	??1AEGP_SuiteHandler@@QEAA@XZ			; AEGP_SuiteHandler::~AEGP_SuiteHandler
pdata	SEGMENT
$pdata$??1AEGP_SuiteHandler@@QEAA@XZ DD imagerel $LN3
	DD	imagerel $LN3+24
	DD	imagerel $unwind$??1AEGP_SuiteHandler@@QEAA@XZ
pdata	ENDS
xdata	SEGMENT
$unwind$??1AEGP_SuiteHandler@@QEAA@XZ DD 010901H
	DD	04209H
; Function compile flags: /Odtp
xdata	ENDS
_TEXT	SEGMENT
this$ = 48
??1AEGP_SuiteHandler@@QEAA@XZ PROC			; AEGP_SuiteHandler::~AEGP_SuiteHandler

; 48   : {

$LN3:
	mov	QWORD PTR [rsp+8], rcx
	sub	rsp, 40					; 00000028H

; 49   : 	ReleaseAllSuites();

	mov	rcx, QWORD PTR this$[rsp]
	call	?ReleaseAllSuites@AEGP_SuiteHandler@@AEAAXXZ ; AEGP_SuiteHandler::ReleaseAllSuites

; 50   : }

	add	rsp, 40					; 00000028H
	ret	0
??1AEGP_SuiteHandler@@QEAA@XZ ENDP			; AEGP_SuiteHandler::~AEGP_SuiteHandler
_TEXT	ENDS
PUBLIC	??_C@_0CA@ECFGBIDE@AEGP?5Layer?5Render?5Options?5Suite?$AA@ ; `string'
PUBLIC	??_C@_0BP@KDAALKPG@AEGP?5Render?5Asyc?5Manager?5Suite?$AA@ ; `string'
PUBLIC	??_C@_0CI@OCHIBGAE@PF?5Effect?5Custom?5UI?5Overlay?5Them@ ; `string'
PUBLIC	??_C@_0BK@CMHGHGNL@PF?5Effect?5Custom?5UI?5Suite?$AA@ ; `string'
PUBLIC	??_C@_0BD@MKGMFBND@DRAWBOT?5Path?5Suite?$AA@	; `string'
PUBLIC	??_C@_0BG@FIILEFJC@DRAWBOT?5Surface?5Suite?$AA@	; `string'
PUBLIC	??_C@_0BH@FIONCCPG@DRAWBOT?5Supplier?5Suite?$AA@ ; `string'
PUBLIC	??_C@_0BD@FLBGPIMI@DRAWBOT?5Draw?5Suite?$AA@	; `string'
PUBLIC	??_C@_0BI@NNBKMHEK@AEGP?5PF?5Interface?5Suite?$AA@ ; `string'
PUBLIC	??_C@_0BJ@KNOGBGJM@AEGP?5Text?5Document?5Suite?$AA@ ; `string'
PUBLIC	??_C@_0BL@LKLAICCP@AEGP?5Persistent?5Data?5Suite?$AA@ ; `string'
PUBLIC	??_C@_0BE@KFNBHDEF@PF?5AE?5Adv?5App?5Suite?$AA@	; `string'
PUBLIC	??_C@_0BA@OEHNFJMG@PF?5AE?5App?5Suite?$AA@	; `string'
PUBLIC	??_C@_0BI@MJAMCLDB@PF?5Color?5Settings?5Suite?$AA@ ; `string'
PUBLIC	??_C@_0BA@GONLBGJF@AEGP?5Proj?5Suite?$AA@	; `string'
PUBLIC	??_C@_0BA@CLDKMHPO@PF?5Handle?5Suite?$AA@	; `string'
PUBLIC	??_C@_0BC@BBNGCJFE@AEGP?5Memory?5Suite?$AA@	; `string'
PUBLIC	??_C@_0BJ@HNIFACM@AEGP?5Output?5Module?5Suite?$AA@ ; `string'
PUBLIC	??_C@_0BD@LPACCDGH@AEGP?5Footage?5Suite?$AA@	; `string'
PUBLIC	??_C@_0BA@CJJFBPBL@AEGP?5Item?5Suite?$AA@	; `string'
PUBLIC	??_C@_0BD@GPKPPDOH@PF?5ColorParamSuite?$AA@	; `string'
PUBLIC	??_C@_0BC@CIPGHMKH@AEGP?5Effect?5Suite?$AA@	; `string'
PUBLIC	??_C@_0BE@OHEGGHMO@AEGP?5Keyframe?5Suite?$AA@	; `string'
PUBLIC	??_C@_0BK@ELNHACLA@AEGP?5Dynamic?5Stream?5Suite?$AA@ ; `string'
PUBLIC	??_C@_0BC@IPBKMDAM@AEGP?5Stream?5Suite?$AA@	; `string'
PUBLIC	??_C@_0BG@CMDNGCIK@AEGP?5Collection?5Suite?$AA@	; `string'
PUBLIC	??_C@_0BC@FAEKKEMM@AEGP?5Camera?5Suite?$AA@	; `string'
PUBLIC	??_C@_0BF@PLAGCOPE@PF?5Param?5Utils?5Suite?$AA@	; `string'
PUBLIC	??_C@_0BB@FCHPPLFG@AEGP?5Layer?5Suite?$AA@	; `string'
PUBLIC	??_C@_0BA@EIBCLLGC@AEGP?5Comp?5Suite?$AA@	; `string'
PUBLIC	??_C@_0BC@HGGIPEKD@AEGP?5Render?5Suite?$AA@	; `string'
PUBLIC	??_C@_0BK@FIOOIKGA@AEGP?5Render?5Options?5Suite?$AA@ ; `string'
PUBLIC	??_C@_0BN@JODPPADI@AEGP?5Render?5Queue?5Item?5Suite?$AA@ ; `string'
PUBLIC	??_C@_0BB@BEOGNAMG@AEGP?5IO?5In?5Suite?$AA@	; `string'
PUBLIC	??_C@_0BC@IOIMFPHL@AEGP?5IO?5Out?5Suite?$AA@	; `string'
PUBLIC	??_C@_0BD@CNJHNCHO@AEGP?5Iterate?5Suite?$AA@	; `string'
PUBLIC	??_C@_0BG@CAKABFOI@PF?5iterateFloat?5Suite?$AA@	; `string'
PUBLIC	??_C@_0BD@JCMAIAGE@PF?5iterate16?5Suite?$AA@	; `string'
PUBLIC	??_C@_0BC@CCINLIIF@PF?5Iterate8?5Suite?$AA@	; `string'
PUBLIC	??_C@_0BE@FBKOEDIO@PF?5AE?5Channel?5Suite?$AA@	; `string'
PUBLIC	??_C@_0BE@CIOKPFIG@PF?5Fill?5Matte?5Suite?$AA@	; `string'
PUBLIC	??_C@_0BJ@HEIFEBFB@PF?5World?5Transform?5Suite?$AA@ ; `string'
PUBLIC	??_C@_0P@ECPMHMCM@PF?5World?5Suite?$AA@		; `string'
PUBLIC	??_C@_0BB@JDBEOMKC@AEGP?5World?5Suite?$AA@	; `string'
PUBLIC	??_C@_0BP@EILMHMHP@AEGP?5File?5Import?5Manager?5Suite?$AA@ ; `string'
PUBLIC	??_C@_0BD@GCCIJPBO@AEGP?5Command?5Suite?$AA@	; `string'
PUBLIC	??_C@_0BD@KAJJLJOD@AEGP?5Utility?5Suite?$AA@	; `string'
PUBLIC	?ReleaseSuite@AEGP_SuiteHandler@@AEAAXPEADJ@Z	; AEGP_SuiteHandler::ReleaseSuite
PUBLIC	??_C@_0BE@CEIMNFLD@AEGP?5Register?5Suite?$AA@	; `string'
;	COMDAT pdata
; File c:\users\brendan bolles\documents\development\proexr\src\aftereffects\fnord_suitehandler.h
pdata	SEGMENT
$pdata$?ReleaseAllSuites@AEGP_SuiteHandler@@AEAAXXZ DD imagerel $LN54
	DD	imagerel $LN54+1907
	DD	imagerel $unwind$?ReleaseAllSuites@AEGP_SuiteHandler@@AEAAXXZ
pdata	ENDS
;	COMDAT xdata
xdata	SEGMENT
$unwind$?ReleaseAllSuites@AEGP_SuiteHandler@@AEAAXXZ DD 010901H
	DD	04209H
xdata	ENDS
;	COMDAT ??_C@_0CA@ECFGBIDE@AEGP?5Layer?5Render?5Options?5Suite?$AA@
CONST	SEGMENT
??_C@_0CA@ECFGBIDE@AEGP?5Layer?5Render?5Options?5Suite?$AA@ DB 'AEGP Laye'
	DB	'r Render Options Suite', 00H		; `string'
CONST	ENDS
;	COMDAT ??_C@_0BP@KDAALKPG@AEGP?5Render?5Asyc?5Manager?5Suite?$AA@
CONST	SEGMENT
??_C@_0BP@KDAALKPG@AEGP?5Render?5Asyc?5Manager?5Suite?$AA@ DB 'AEGP Rende'
	DB	'r Asyc Manager Suite', 00H			; `string'
CONST	ENDS
;	COMDAT ??_C@_0CI@OCHIBGAE@PF?5Effect?5Custom?5UI?5Overlay?5Them@
CONST	SEGMENT
??_C@_0CI@OCHIBGAE@PF?5Effect?5Custom?5UI?5Overlay?5Them@ DB 'PF Effect C'
	DB	'ustom UI Overlay Theme Suite', 00H		; `string'
CONST	ENDS
;	COMDAT ??_C@_0BK@CMHGHGNL@PF?5Effect?5Custom?5UI?5Suite?$AA@
CONST	SEGMENT
??_C@_0BK@CMHGHGNL@PF?5Effect?5Custom?5UI?5Suite?$AA@ DB 'PF Effect Custo'
	DB	'm UI Suite', 00H				; `string'
CONST	ENDS
;	COMDAT ??_C@_0BD@MKGMFBND@DRAWBOT?5Path?5Suite?$AA@
CONST	SEGMENT
??_C@_0BD@MKGMFBND@DRAWBOT?5Path?5Suite?$AA@ DB 'DRAWBOT Path Suite', 00H ; `string'
CONST	ENDS
;	COMDAT ??_C@_0BG@FIILEFJC@DRAWBOT?5Surface?5Suite?$AA@
CONST	SEGMENT
??_C@_0BG@FIILEFJC@DRAWBOT?5Surface?5Suite?$AA@ DB 'DRAWBOT Surface Suite'
	DB	00H						; `string'
CONST	ENDS
;	COMDAT ??_C@_0BH@FIONCCPG@DRAWBOT?5Supplier?5Suite?$AA@
CONST	SEGMENT
??_C@_0BH@FIONCCPG@DRAWBOT?5Supplier?5Suite?$AA@ DB 'DRAWBOT Supplier Sui'
	DB	'te', 00H					; `string'
CONST	ENDS
;	COMDAT ??_C@_0BD@FLBGPIMI@DRAWBOT?5Draw?5Suite?$AA@
CONST	SEGMENT
??_C@_0BD@FLBGPIMI@DRAWBOT?5Draw?5Suite?$AA@ DB 'DRAWBOT Draw Suite', 00H ; `string'
CONST	ENDS
;	COMDAT ??_C@_0BI@NNBKMHEK@AEGP?5PF?5Interface?5Suite?$AA@
CONST	SEGMENT
??_C@_0BI@NNBKMHEK@AEGP?5PF?5Interface?5Suite?$AA@ DB 'AEGP PF Interface '
	DB	'Suite', 00H					; `string'
CONST	ENDS
;	COMDAT ??_C@_0BJ@KNOGBGJM@AEGP?5Text?5Document?5Suite?$AA@
CONST	SEGMENT
??_C@_0BJ@KNOGBGJM@AEGP?5Text?5Document?5Suite?$AA@ DB 'AEGP Text Documen'
	DB	't Suite', 00H				; `string'
CONST	ENDS
;	COMDAT ??_C@_0BL@LKLAICCP@AEGP?5Persistent?5Data?5Suite?$AA@
CONST	SEGMENT
??_C@_0BL@LKLAICCP@AEGP?5Persistent?5Data?5Suite?$AA@ DB 'AEGP Persistent'
	DB	' Data Suite', 00H				; `string'
CONST	ENDS
;	COMDAT ??_C@_0BE@KFNBHDEF@PF?5AE?5Adv?5App?5Suite?$AA@
CONST	SEGMENT
??_C@_0BE@KFNBHDEF@PF?5AE?5Adv?5App?5Suite?$AA@ DB 'PF AE Adv App Suite', 00H ; `string'
CONST	ENDS
;	COMDAT ??_C@_0BA@OEHNFJMG@PF?5AE?5App?5Suite?$AA@
CONST	SEGMENT
??_C@_0BA@OEHNFJMG@PF?5AE?5App?5Suite?$AA@ DB 'PF AE App Suite', 00H ; `string'
CONST	ENDS
;	COMDAT ??_C@_0BI@MJAMCLDB@PF?5Color?5Settings?5Suite?$AA@
CONST	SEGMENT
??_C@_0BI@MJAMCLDB@PF?5Color?5Settings?5Suite?$AA@ DB 'PF Color Settings '
	DB	'Suite', 00H					; `string'
CONST	ENDS
;	COMDAT ??_C@_0BA@GONLBGJF@AEGP?5Proj?5Suite?$AA@
CONST	SEGMENT
??_C@_0BA@GONLBGJF@AEGP?5Proj?5Suite?$AA@ DB 'AEGP Proj Suite', 00H ; `string'
CONST	ENDS
;	COMDAT ??_C@_0BA@CLDKMHPO@PF?5Handle?5Suite?$AA@
CONST	SEGMENT
??_C@_0BA@CLDKMHPO@PF?5Handle?5Suite?$AA@ DB 'PF Handle Suite', 00H ; `string'
CONST	ENDS
;	COMDAT ??_C@_0BC@BBNGCJFE@AEGP?5Memory?5Suite?$AA@
CONST	SEGMENT
??_C@_0BC@BBNGCJFE@AEGP?5Memory?5Suite?$AA@ DB 'AEGP Memory Suite', 00H ; `string'
CONST	ENDS
;	COMDAT ??_C@_0BJ@HNIFACM@AEGP?5Output?5Module?5Suite?$AA@
CONST	SEGMENT
??_C@_0BJ@HNIFACM@AEGP?5Output?5Module?5Suite?$AA@ DB 'AEGP Output Module'
	DB	' Suite', 00H				; `string'
CONST	ENDS
;	COMDAT ??_C@_0BD@LPACCDGH@AEGP?5Footage?5Suite?$AA@
CONST	SEGMENT
??_C@_0BD@LPACCDGH@AEGP?5Footage?5Suite?$AA@ DB 'AEGP Footage Suite', 00H ; `string'
CONST	ENDS
;	COMDAT ??_C@_0BA@CJJFBPBL@AEGP?5Item?5Suite?$AA@
CONST	SEGMENT
??_C@_0BA@CJJFBPBL@AEGP?5Item?5Suite?$AA@ DB 'AEGP Item Suite', 00H ; `string'
CONST	ENDS
;	COMDAT ??_C@_0BD@GPKPPDOH@PF?5ColorParamSuite?$AA@
CONST	SEGMENT
??_C@_0BD@GPKPPDOH@PF?5ColorParamSuite?$AA@ DB 'PF ColorParamSuite', 00H ; `string'
CONST	ENDS
;	COMDAT ??_C@_0BC@CIPGHMKH@AEGP?5Effect?5Suite?$AA@
CONST	SEGMENT
??_C@_0BC@CIPGHMKH@AEGP?5Effect?5Suite?$AA@ DB 'AEGP Effect Suite', 00H ; `string'
CONST	ENDS
;	COMDAT ??_C@_0BE@OHEGGHMO@AEGP?5Keyframe?5Suite?$AA@
CONST	SEGMENT
??_C@_0BE@OHEGGHMO@AEGP?5Keyframe?5Suite?$AA@ DB 'AEGP Keyframe Suite', 00H ; `string'
CONST	ENDS
;	COMDAT ??_C@_0BK@ELNHACLA@AEGP?5Dynamic?5Stream?5Suite?$AA@
CONST	SEGMENT
??_C@_0BK@ELNHACLA@AEGP?5Dynamic?5Stream?5Suite?$AA@ DB 'AEGP Dynamic Str'
	DB	'eam Suite', 00H				; `string'
CONST	ENDS
;	COMDAT ??_C@_0BC@IPBKMDAM@AEGP?5Stream?5Suite?$AA@
CONST	SEGMENT
??_C@_0BC@IPBKMDAM@AEGP?5Stream?5Suite?$AA@ DB 'AEGP Stream Suite', 00H ; `string'
CONST	ENDS
;	COMDAT ??_C@_0BG@CMDNGCIK@AEGP?5Collection?5Suite?$AA@
CONST	SEGMENT
??_C@_0BG@CMDNGCIK@AEGP?5Collection?5Suite?$AA@ DB 'AEGP Collection Suite'
	DB	00H						; `string'
CONST	ENDS
;	COMDAT ??_C@_0BC@FAEKKEMM@AEGP?5Camera?5Suite?$AA@
CONST	SEGMENT
??_C@_0BC@FAEKKEMM@AEGP?5Camera?5Suite?$AA@ DB 'AEGP Camera Suite', 00H ; `string'
CONST	ENDS
;	COMDAT ??_C@_0BF@PLAGCOPE@PF?5Param?5Utils?5Suite?$AA@
CONST	SEGMENT
??_C@_0BF@PLAGCOPE@PF?5Param?5Utils?5Suite?$AA@ DB 'PF Param Utils Suite', 00H ; `string'
CONST	ENDS
;	COMDAT ??_C@_0BB@FCHPPLFG@AEGP?5Layer?5Suite?$AA@
CONST	SEGMENT
??_C@_0BB@FCHPPLFG@AEGP?5Layer?5Suite?$AA@ DB 'AEGP Layer Suite', 00H ; `string'
CONST	ENDS
;	COMDAT ??_C@_0BA@EIBCLLGC@AEGP?5Comp?5Suite?$AA@
CONST	SEGMENT
??_C@_0BA@EIBCLLGC@AEGP?5Comp?5Suite?$AA@ DB 'AEGP Comp Suite', 00H ; `string'
CONST	ENDS
;	COMDAT ??_C@_0BC@HGGIPEKD@AEGP?5Render?5Suite?$AA@
CONST	SEGMENT
??_C@_0BC@HGGIPEKD@AEGP?5Render?5Suite?$AA@ DB 'AEGP Render Suite', 00H ; `string'
CONST	ENDS
;	COMDAT ??_C@_0BK@FIOOIKGA@AEGP?5Render?5Options?5Suite?$AA@
CONST	SEGMENT
??_C@_0BK@FIOOIKGA@AEGP?5Render?5Options?5Suite?$AA@ DB 'AEGP Render Opti'
	DB	'ons Suite', 00H				; `string'
CONST	ENDS
;	COMDAT ??_C@_0BN@JODPPADI@AEGP?5Render?5Queue?5Item?5Suite?$AA@
CONST	SEGMENT
??_C@_0BN@JODPPADI@AEGP?5Render?5Queue?5Item?5Suite?$AA@ DB 'AEGP Render '
	DB	'Queue Item Suite', 00H			; `string'
CONST	ENDS
;	COMDAT ??_C@_0BB@BEOGNAMG@AEGP?5IO?5In?5Suite?$AA@
CONST	SEGMENT
??_C@_0BB@BEOGNAMG@AEGP?5IO?5In?5Suite?$AA@ DB 'AEGP IO In Suite', 00H ; `string'
CONST	ENDS
;	COMDAT ??_C@_0BC@IOIMFPHL@AEGP?5IO?5Out?5Suite?$AA@
CONST	SEGMENT
??_C@_0BC@IOIMFPHL@AEGP?5IO?5Out?5Suite?$AA@ DB 'AEGP IO Out Suite', 00H ; `string'
CONST	ENDS
;	COMDAT ??_C@_0BD@CNJHNCHO@AEGP?5Iterate?5Suite?$AA@
CONST	SEGMENT
??_C@_0BD@CNJHNCHO@AEGP?5Iterate?5Suite?$AA@ DB 'AEGP Iterate Suite', 00H ; `string'
CONST	ENDS
;	COMDAT ??_C@_0BG@CAKABFOI@PF?5iterateFloat?5Suite?$AA@
CONST	SEGMENT
??_C@_0BG@CAKABFOI@PF?5iterateFloat?5Suite?$AA@ DB 'PF iterateFloat Suite'
	DB	00H						; `string'
CONST	ENDS
;	COMDAT ??_C@_0BD@JCMAIAGE@PF?5iterate16?5Suite?$AA@
CONST	SEGMENT
??_C@_0BD@JCMAIAGE@PF?5iterate16?5Suite?$AA@ DB 'PF iterate16 Suite', 00H ; `string'
CONST	ENDS
;	COMDAT ??_C@_0BC@CCINLIIF@PF?5Iterate8?5Suite?$AA@
CONST	SEGMENT
??_C@_0BC@CCINLIIF@PF?5Iterate8?5Suite?$AA@ DB 'PF Iterate8 Suite', 00H ; `string'
CONST	ENDS
;	COMDAT ??_C@_0BE@FBKOEDIO@PF?5AE?5Channel?5Suite?$AA@
CONST	SEGMENT
??_C@_0BE@FBKOEDIO@PF?5AE?5Channel?5Suite?$AA@ DB 'PF AE Channel Suite', 00H ; `string'
CONST	ENDS
;	COMDAT ??_C@_0BE@CIOKPFIG@PF?5Fill?5Matte?5Suite?$AA@
CONST	SEGMENT
??_C@_0BE@CIOKPFIG@PF?5Fill?5Matte?5Suite?$AA@ DB 'PF Fill Matte Suite', 00H ; `string'
CONST	ENDS
;	COMDAT ??_C@_0BJ@HEIFEBFB@PF?5World?5Transform?5Suite?$AA@
CONST	SEGMENT
??_C@_0BJ@HEIFEBFB@PF?5World?5Transform?5Suite?$AA@ DB 'PF World Transfor'
	DB	'm Suite', 00H				; `string'
CONST	ENDS
;	COMDAT ??_C@_0P@ECPMHMCM@PF?5World?5Suite?$AA@
CONST	SEGMENT
??_C@_0P@ECPMHMCM@PF?5World?5Suite?$AA@ DB 'PF World Suite', 00H ; `string'
CONST	ENDS
;	COMDAT ??_C@_0BB@JDBEOMKC@AEGP?5World?5Suite?$AA@
CONST	SEGMENT
??_C@_0BB@JDBEOMKC@AEGP?5World?5Suite?$AA@ DB 'AEGP World Suite', 00H ; `string'
CONST	ENDS
;	COMDAT ??_C@_0BP@EILMHMHP@AEGP?5File?5Import?5Manager?5Suite?$AA@
CONST	SEGMENT
??_C@_0BP@EILMHMHP@AEGP?5File?5Import?5Manager?5Suite?$AA@ DB 'AEGP File '
	DB	'Import Manager Suite', 00H			; `string'
CONST	ENDS
;	COMDAT ??_C@_0BD@GCCIJPBO@AEGP?5Command?5Suite?$AA@
CONST	SEGMENT
??_C@_0BD@GCCIJPBO@AEGP?5Command?5Suite?$AA@ DB 'AEGP Command Suite', 00H ; `string'
CONST	ENDS
;	COMDAT ??_C@_0BD@KAJJLJOD@AEGP?5Utility?5Suite?$AA@
CONST	SEGMENT
??_C@_0BD@KAJJLJOD@AEGP?5Utility?5Suite?$AA@ DB 'AEGP Utility Suite', 00H ; `string'
CONST	ENDS
;	COMDAT ??_C@_0BE@CEIMNFLD@AEGP?5Register?5Suite?$AA@
CONST	SEGMENT
??_C@_0BE@CEIMNFLD@AEGP?5Register?5Suite?$AA@ DB 'AEGP Register Suite', 00H ; `string'
; Function compile flags: /Odtp
CONST	ENDS
;	COMDAT ?ReleaseAllSuites@AEGP_SuiteHandler@@AEAAXXZ
_TEXT	SEGMENT
this$ = 48
?ReleaseAllSuites@AEGP_SuiteHandler@@AEAAXXZ PROC	; AEGP_SuiteHandler::ReleaseAllSuites, COMDAT

; 310  : 	{

$LN54:
	mov	QWORD PTR [rsp+8], rcx
	sub	rsp, 40					; 00000028H

; 311  : 		#define	AEGP_SUITE_RELEASE_BOILERPLATE(MEMBER_NAME, kSUITE_NAME, kVERSION_NAME)		\
; 312  : 			if (i_suites.MEMBER_NAME) {														\
; 313  : 				ReleaseSuite(kSUITE_NAME, kVERSION_NAME);									\
; 314  : 			}
; 315  : 		
; 316  : 		AEGP_SUITE_RELEASE_BOILERPLATE(register_suiteP, kAEGPRegisterSuite, kAEGPRegisterSuiteVersion);

	mov	rax, QWORD PTR this$[rsp]
	cmp	QWORD PTR [rax+8], 0
	je	SHORT $LN51@ReleaseAll
	mov	r8d, 6
	lea	rdx, OFFSET FLAT:??_C@_0BE@CEIMNFLD@AEGP?5Register?5Suite?$AA@
	mov	rcx, QWORD PTR this$[rsp]
	call	?ReleaseSuite@AEGP_SuiteHandler@@AEAAXPEADJ@Z ; AEGP_SuiteHandler::ReleaseSuite
$LN51@ReleaseAll:

; 317  : 		AEGP_SUITE_RELEASE_BOILERPLATE(utility_suiteP, kAEGPUtilitySuite, kAEGPUtilitySuiteVersion);

	mov	rax, QWORD PTR this$[rsp]
	cmp	QWORD PTR [rax+16], 0
	je	SHORT $LN50@ReleaseAll
	mov	r8d, 11
	lea	rdx, OFFSET FLAT:??_C@_0BD@KAJJLJOD@AEGP?5Utility?5Suite?$AA@
	mov	rcx, QWORD PTR this$[rsp]
	call	?ReleaseSuite@AEGP_SuiteHandler@@AEAAXPEADJ@Z ; AEGP_SuiteHandler::ReleaseSuite
$LN50@ReleaseAll:

; 318  : 		AEGP_SUITE_RELEASE_BOILERPLATE(command_suiteP, kAEGPCommandSuite, kAEGPCommandSuiteVersion);

	mov	rax, QWORD PTR this$[rsp]
	cmp	QWORD PTR [rax+24], 0
	je	SHORT $LN49@ReleaseAll
	mov	r8d, 1
	lea	rdx, OFFSET FLAT:??_C@_0BD@GCCIJPBO@AEGP?5Command?5Suite?$AA@
	mov	rcx, QWORD PTR this$[rsp]
	call	?ReleaseSuite@AEGP_SuiteHandler@@AEAAXPEADJ@Z ; AEGP_SuiteHandler::ReleaseSuite
$LN49@ReleaseAll:

; 319  : 		AEGP_SUITE_RELEASE_BOILERPLATE(fim_suiteP, kAEGPFIMSuite, kAEGPFIMSuiteVersion);

	mov	rax, QWORD PTR this$[rsp]
	cmp	QWORD PTR [rax+32], 0
	je	SHORT $LN48@ReleaseAll
	mov	r8d, 3
	lea	rdx, OFFSET FLAT:??_C@_0BP@EILMHMHP@AEGP?5File?5Import?5Manager?5Suite?$AA@
	mov	rcx, QWORD PTR this$[rsp]
	call	?ReleaseSuite@AEGP_SuiteHandler@@AEAAXPEADJ@Z ; AEGP_SuiteHandler::ReleaseSuite
$LN48@ReleaseAll:

; 320  : 		AEGP_SUITE_RELEASE_BOILERPLATE(aegp_world_suiteP, kAEGPWorldSuite, kAEGPWorldSuiteVersion);

	mov	rax, QWORD PTR this$[rsp]
	cmp	QWORD PTR [rax+40], 0
	je	SHORT $LN47@ReleaseAll
	mov	r8d, 3
	lea	rdx, OFFSET FLAT:??_C@_0BB@JDBEOMKC@AEGP?5World?5Suite?$AA@
	mov	rcx, QWORD PTR this$[rsp]
	call	?ReleaseSuite@AEGP_SuiteHandler@@AEAAXPEADJ@Z ; AEGP_SuiteHandler::ReleaseSuite
$LN47@ReleaseAll:

; 321  : 		AEGP_SUITE_RELEASE_BOILERPLATE(pf_world_suiteP, kPFWorldSuite, kPFWorldSuiteVersion);

	mov	rax, QWORD PTR this$[rsp]
	cmp	QWORD PTR [rax+48], 0
	je	SHORT $LN46@ReleaseAll
	mov	r8d, 2
	lea	rdx, OFFSET FLAT:??_C@_0P@ECPMHMCM@PF?5World?5Suite?$AA@
	mov	rcx, QWORD PTR this$[rsp]
	call	?ReleaseSuite@AEGP_SuiteHandler@@AEAAXPEADJ@Z ; AEGP_SuiteHandler::ReleaseSuite
$LN46@ReleaseAll:

; 322  : 		AEGP_SUITE_RELEASE_BOILERPLATE(pf_world_transform_suiteP, kPFWorldTransformSuite, kPFWorldTransformSuiteVersion);

	mov	rax, QWORD PTR this$[rsp]
	cmp	QWORD PTR [rax+56], 0
	je	SHORT $LN45@ReleaseAll
	mov	r8d, 1
	lea	rdx, OFFSET FLAT:??_C@_0BJ@HEIFEBFB@PF?5World?5Transform?5Suite?$AA@
	mov	rcx, QWORD PTR this$[rsp]
	call	?ReleaseSuite@AEGP_SuiteHandler@@AEAAXPEADJ@Z ; AEGP_SuiteHandler::ReleaseSuite
$LN45@ReleaseAll:

; 323  : 		AEGP_SUITE_RELEASE_BOILERPLATE(pf_fill_matte_suiteP, kPFFillMatteSuite, kPFFillMatteSuiteVersion);

	mov	rax, QWORD PTR this$[rsp]
	cmp	QWORD PTR [rax+64], 0
	je	SHORT $LN44@ReleaseAll
	mov	r8d, 2
	lea	rdx, OFFSET FLAT:??_C@_0BE@CIOKPFIG@PF?5Fill?5Matte?5Suite?$AA@
	mov	rcx, QWORD PTR this$[rsp]
	call	?ReleaseSuite@AEGP_SuiteHandler@@AEAAXPEADJ@Z ; AEGP_SuiteHandler::ReleaseSuite
$LN44@ReleaseAll:

; 324  : 		AEGP_SUITE_RELEASE_BOILERPLATE(pf_channel_suiteP, kPFChannelSuite1, kPFChannelSuiteVersion);

	mov	rax, QWORD PTR this$[rsp]
	cmp	QWORD PTR [rax+72], 0
	je	SHORT $LN43@ReleaseAll
	mov	r8d, 1
	lea	rdx, OFFSET FLAT:??_C@_0BE@FBKOEDIO@PF?5AE?5Channel?5Suite?$AA@
	mov	rcx, QWORD PTR this$[rsp]
	call	?ReleaseSuite@AEGP_SuiteHandler@@AEAAXPEADJ@Z ; AEGP_SuiteHandler::ReleaseSuite
$LN43@ReleaseAll:

; 325  : 		AEGP_SUITE_RELEASE_BOILERPLATE(pf_iterate8_suiteP, kPFIterate8Suite, kPFIterate8SuiteVersion);

	mov	rax, QWORD PTR this$[rsp]
	cmp	QWORD PTR [rax+80], 0
	je	SHORT $LN42@ReleaseAll
	mov	r8d, 1
	lea	rdx, OFFSET FLAT:??_C@_0BC@CCINLIIF@PF?5Iterate8?5Suite?$AA@
	mov	rcx, QWORD PTR this$[rsp]
	call	?ReleaseSuite@AEGP_SuiteHandler@@AEAAXPEADJ@Z ; AEGP_SuiteHandler::ReleaseSuite
$LN42@ReleaseAll:

; 326  : 		AEGP_SUITE_RELEASE_BOILERPLATE(pf_iterate16_suiteP, kPFIterate16Suite, kPFIterate16SuiteVersion);

	mov	rax, QWORD PTR this$[rsp]
	cmp	QWORD PTR [rax+88], 0
	je	SHORT $LN41@ReleaseAll
	mov	r8d, 1
	lea	rdx, OFFSET FLAT:??_C@_0BD@JCMAIAGE@PF?5iterate16?5Suite?$AA@
	mov	rcx, QWORD PTR this$[rsp]
	call	?ReleaseSuite@AEGP_SuiteHandler@@AEAAXPEADJ@Z ; AEGP_SuiteHandler::ReleaseSuite
$LN41@ReleaseAll:

; 327  : 		AEGP_SUITE_RELEASE_BOILERPLATE(pf_iterateFloat_suiteP, kPFIterateFloatSuite, kPFIterateFloatSuiteVersion);

	mov	rax, QWORD PTR this$[rsp]
	cmp	QWORD PTR [rax+96], 0
	je	SHORT $LN40@ReleaseAll
	mov	r8d, 1
	lea	rdx, OFFSET FLAT:??_C@_0BG@CAKABFOI@PF?5iterateFloat?5Suite?$AA@
	mov	rcx, QWORD PTR this$[rsp]
	call	?ReleaseSuite@AEGP_SuiteHandler@@AEAAXPEADJ@Z ; AEGP_SuiteHandler::ReleaseSuite
$LN40@ReleaseAll:

; 328  : 		AEGP_SUITE_RELEASE_BOILERPLATE(aegp_iterate_suiteP, kAEGPIterateSuite, kAEGPIterateSuiteVersion);

	mov	rax, QWORD PTR this$[rsp]
	cmp	QWORD PTR [rax+104], 0
	je	SHORT $LN39@ReleaseAll
	mov	r8d, 1
	lea	rdx, OFFSET FLAT:??_C@_0BD@CNJHNCHO@AEGP?5Iterate?5Suite?$AA@
	mov	rcx, QWORD PTR this$[rsp]
	call	?ReleaseSuite@AEGP_SuiteHandler@@AEAAXPEADJ@Z ; AEGP_SuiteHandler::ReleaseSuite
$LN39@ReleaseAll:

; 329  : 		AEGP_SUITE_RELEASE_BOILERPLATE(io_out_suiteP, kAEGPIOOutSuite, kAEGPIOOutSuiteVersion);

	mov	rax, QWORD PTR this$[rsp]
	cmp	QWORD PTR [rax+120], 0
	je	SHORT $LN38@ReleaseAll
	mov	r8d, 7
	lea	rdx, OFFSET FLAT:??_C@_0BC@IOIMFPHL@AEGP?5IO?5Out?5Suite?$AA@
	mov	rcx, QWORD PTR this$[rsp]
	call	?ReleaseSuite@AEGP_SuiteHandler@@AEAAXPEADJ@Z ; AEGP_SuiteHandler::ReleaseSuite
$LN38@ReleaseAll:

; 330  : 		AEGP_SUITE_RELEASE_BOILERPLATE(io_in_suiteP, kAEGPIOInSuite, kAEGPIOInSuiteVersion);

	mov	rax, QWORD PTR this$[rsp]
	cmp	QWORD PTR [rax+112], 0
	je	SHORT $LN37@ReleaseAll
	mov	r8d, 5
	lea	rdx, OFFSET FLAT:??_C@_0BB@BEOGNAMG@AEGP?5IO?5In?5Suite?$AA@
	mov	rcx, QWORD PTR this$[rsp]
	call	?ReleaseSuite@AEGP_SuiteHandler@@AEAAXPEADJ@Z ; AEGP_SuiteHandler::ReleaseSuite
$LN37@ReleaseAll:

; 331  : 		AEGP_SUITE_RELEASE_BOILERPLATE(rq_item_suiteP, kAEGPRQItemSuite, kAEGPRQItemSuiteVersion);

	mov	rax, QWORD PTR this$[rsp]
	cmp	QWORD PTR [rax+128], 0
	je	SHORT $LN36@ReleaseAll
	mov	r8d, 4
	lea	rdx, OFFSET FLAT:??_C@_0BN@JODPPADI@AEGP?5Render?5Queue?5Item?5Suite?$AA@
	mov	rcx, QWORD PTR this$[rsp]
	call	?ReleaseSuite@AEGP_SuiteHandler@@AEAAXPEADJ@Z ; AEGP_SuiteHandler::ReleaseSuite
$LN36@ReleaseAll:

; 332  : 		AEGP_SUITE_RELEASE_BOILERPLATE(render_options_suiteP, kAEGPRenderOptionsSuite, kAEGPRenderOptionsSuiteVersion);

	mov	rax, QWORD PTR this$[rsp]
	cmp	QWORD PTR [rax+136], 0
	je	SHORT $LN35@ReleaseAll
	mov	r8d, 3
	lea	rdx, OFFSET FLAT:??_C@_0BK@FIOOIKGA@AEGP?5Render?5Options?5Suite?$AA@
	mov	rcx, QWORD PTR this$[rsp]
	call	?ReleaseSuite@AEGP_SuiteHandler@@AEAAXPEADJ@Z ; AEGP_SuiteHandler::ReleaseSuite
$LN35@ReleaseAll:

; 333  : 		AEGP_SUITE_RELEASE_BOILERPLATE(render_suiteP, kAEGPRenderSuite, kAEGPRenderSuiteVersion);

	mov	rax, QWORD PTR this$[rsp]
	cmp	QWORD PTR [rax+144], 0
	je	SHORT $LN34@ReleaseAll
	mov	r8d, 2
	lea	rdx, OFFSET FLAT:??_C@_0BC@HGGIPEKD@AEGP?5Render?5Suite?$AA@
	mov	rcx, QWORD PTR this$[rsp]
	call	?ReleaseSuite@AEGP_SuiteHandler@@AEAAXPEADJ@Z ; AEGP_SuiteHandler::ReleaseSuite
$LN34@ReleaseAll:

; 334  : 		AEGP_SUITE_RELEASE_BOILERPLATE(comp_suiteP, kAEGPCompSuite, kAEGPCompSuiteVersion);

	mov	rax, QWORD PTR this$[rsp]
	cmp	QWORD PTR [rax+152], 0
	je	SHORT $LN33@ReleaseAll
	mov	r8d, 15
	lea	rdx, OFFSET FLAT:??_C@_0BA@EIBCLLGC@AEGP?5Comp?5Suite?$AA@
	mov	rcx, QWORD PTR this$[rsp]
	call	?ReleaseSuite@AEGP_SuiteHandler@@AEAAXPEADJ@Z ; AEGP_SuiteHandler::ReleaseSuite
$LN33@ReleaseAll:

; 335  : 		AEGP_SUITE_RELEASE_BOILERPLATE(layer_suiteP, kAEGPLayerSuite, kAEGPLayerSuiteVersion);

	mov	rax, QWORD PTR this$[rsp]
	cmp	QWORD PTR [rax+160], 0
	je	SHORT $LN32@ReleaseAll
	mov	r8d, 12
	lea	rdx, OFFSET FLAT:??_C@_0BB@FCHPPLFG@AEGP?5Layer?5Suite?$AA@
	mov	rcx, QWORD PTR this$[rsp]
	call	?ReleaseSuite@AEGP_SuiteHandler@@AEAAXPEADJ@Z ; AEGP_SuiteHandler::ReleaseSuite
$LN32@ReleaseAll:

; 336  : 		AEGP_SUITE_RELEASE_BOILERPLATE(pf_param_utils_suiteP, kPFParamUtilsSuite, kPFParamUtilsSuiteVersion);

	mov	rax, QWORD PTR this$[rsp]
	cmp	QWORD PTR [rax+168], 0
	je	SHORT $LN31@ReleaseAll
	mov	r8d, 3
	lea	rdx, OFFSET FLAT:??_C@_0BF@PLAGCOPE@PF?5Param?5Utils?5Suite?$AA@
	mov	rcx, QWORD PTR this$[rsp]
	call	?ReleaseSuite@AEGP_SuiteHandler@@AEAAXPEADJ@Z ; AEGP_SuiteHandler::ReleaseSuite
$LN31@ReleaseAll:

; 337  : 		AEGP_SUITE_RELEASE_BOILERPLATE(camera_suiteP, kAEGPCameraSuite, kAEGPCameraSuiteVersion);

	mov	rax, QWORD PTR this$[rsp]
	cmp	QWORD PTR [rax+176], 0
	je	SHORT $LN30@ReleaseAll
	mov	r8d, 2
	lea	rdx, OFFSET FLAT:??_C@_0BC@FAEKKEMM@AEGP?5Camera?5Suite?$AA@
	mov	rcx, QWORD PTR this$[rsp]
	call	?ReleaseSuite@AEGP_SuiteHandler@@AEAAXPEADJ@Z ; AEGP_SuiteHandler::ReleaseSuite
$LN30@ReleaseAll:

; 338  : 		AEGP_SUITE_RELEASE_BOILERPLATE(collection_suiteP, kAEGPCollectionSuite, kAEGPCollectionSuiteVersion);

	mov	rax, QWORD PTR this$[rsp]
	cmp	QWORD PTR [rax+184], 0
	je	SHORT $LN29@ReleaseAll
	mov	r8d, 2
	lea	rdx, OFFSET FLAT:??_C@_0BG@CMDNGCIK@AEGP?5Collection?5Suite?$AA@
	mov	rcx, QWORD PTR this$[rsp]
	call	?ReleaseSuite@AEGP_SuiteHandler@@AEAAXPEADJ@Z ; AEGP_SuiteHandler::ReleaseSuite
$LN29@ReleaseAll:

; 339  : 		AEGP_SUITE_RELEASE_BOILERPLATE(stream_suiteP, kAEGPStreamSuite, kAEGPStreamSuiteVersion);

	mov	rax, QWORD PTR this$[rsp]
	cmp	QWORD PTR [rax+192], 0
	je	SHORT $LN28@ReleaseAll
	mov	r8d, 8
	lea	rdx, OFFSET FLAT:??_C@_0BC@IPBKMDAM@AEGP?5Stream?5Suite?$AA@
	mov	rcx, QWORD PTR this$[rsp]
	call	?ReleaseSuite@AEGP_SuiteHandler@@AEAAXPEADJ@Z ; AEGP_SuiteHandler::ReleaseSuite
$LN28@ReleaseAll:

; 340  : 		AEGP_SUITE_RELEASE_BOILERPLATE(dyn_stream_suiteP, kAEGPDynamicStreamSuite, kAEGPDynamicStreamSuiteVersion);

	mov	rax, QWORD PTR this$[rsp]
	cmp	QWORD PTR [rax+200], 0
	je	SHORT $LN27@ReleaseAll
	mov	r8d, 3
	lea	rdx, OFFSET FLAT:??_C@_0BK@ELNHACLA@AEGP?5Dynamic?5Stream?5Suite?$AA@
	mov	rcx, QWORD PTR this$[rsp]
	call	?ReleaseSuite@AEGP_SuiteHandler@@AEAAXPEADJ@Z ; AEGP_SuiteHandler::ReleaseSuite
$LN27@ReleaseAll:

; 341  : 		AEGP_SUITE_RELEASE_BOILERPLATE(keyframe_suiteP, kAEGPKeyframeSuite, kAEGPKeyframeSuiteVersion);

	mov	rax, QWORD PTR this$[rsp]
	cmp	QWORD PTR [rax+208], 0
	je	SHORT $LN26@ReleaseAll
	mov	r8d, 4
	lea	rdx, OFFSET FLAT:??_C@_0BE@OHEGGHMO@AEGP?5Keyframe?5Suite?$AA@
	mov	rcx, QWORD PTR this$[rsp]
	call	?ReleaseSuite@AEGP_SuiteHandler@@AEAAXPEADJ@Z ; AEGP_SuiteHandler::ReleaseSuite
$LN26@ReleaseAll:

; 342  : 		AEGP_SUITE_RELEASE_BOILERPLATE(effect_suiteP, kAEGPEffectSuite, kAEGPEffectSuiteVersion);

	mov	rax, QWORD PTR this$[rsp]
	cmp	QWORD PTR [rax+216], 0
	je	SHORT $LN25@ReleaseAll
	mov	r8d, 3
	lea	rdx, OFFSET FLAT:??_C@_0BC@CIPGHMKH@AEGP?5Effect?5Suite?$AA@
	mov	rcx, QWORD PTR this$[rsp]
	call	?ReleaseSuite@AEGP_SuiteHandler@@AEAAXPEADJ@Z ; AEGP_SuiteHandler::ReleaseSuite
$LN25@ReleaseAll:

; 343  : 		AEGP_SUITE_RELEASE_BOILERPLATE(color_param_suiteP, kPFColorParamSuite, kPFColorParamSuiteVersion);

	mov	rax, QWORD PTR this$[rsp]
	cmp	QWORD PTR [rax+224], 0
	je	SHORT $LN24@ReleaseAll
	mov	r8d, 1
	lea	rdx, OFFSET FLAT:??_C@_0BD@GPKPPDOH@PF?5ColorParamSuite?$AA@
	mov	rcx, QWORD PTR this$[rsp]
	call	?ReleaseSuite@AEGP_SuiteHandler@@AEAAXPEADJ@Z ; AEGP_SuiteHandler::ReleaseSuite
$LN24@ReleaseAll:

; 344  : 		AEGP_SUITE_RELEASE_BOILERPLATE(item_suiteP, kAEGPItemSuite, kAEGPItemSuiteVersion);

	mov	rax, QWORD PTR this$[rsp]
	cmp	QWORD PTR [rax+232], 0
	je	SHORT $LN23@ReleaseAll
	mov	r8d, 13
	lea	rdx, OFFSET FLAT:??_C@_0BA@CJJFBPBL@AEGP?5Item?5Suite?$AA@
	mov	rcx, QWORD PTR this$[rsp]
	call	?ReleaseSuite@AEGP_SuiteHandler@@AEAAXPEADJ@Z ; AEGP_SuiteHandler::ReleaseSuite
$LN23@ReleaseAll:

; 345  : 		AEGP_SUITE_RELEASE_BOILERPLATE(footage_suiteP, kAEGPFootageSuite, kAEGPFootageSuiteVersion);

	mov	rax, QWORD PTR this$[rsp]
	cmp	QWORD PTR [rax+240], 0
	je	SHORT $LN22@ReleaseAll
	mov	r8d, 11
	lea	rdx, OFFSET FLAT:??_C@_0BD@LPACCDGH@AEGP?5Footage?5Suite?$AA@
	mov	rcx, QWORD PTR this$[rsp]
	call	?ReleaseSuite@AEGP_SuiteHandler@@AEAAXPEADJ@Z ; AEGP_SuiteHandler::ReleaseSuite
$LN22@ReleaseAll:

; 346  : 		AEGP_SUITE_RELEASE_BOILERPLATE(output_module_suiteP, kAEGPOutputModuleSuite, kAEGPOutputModuleSuiteVersion);

	mov	rax, QWORD PTR this$[rsp]
	cmp	QWORD PTR [rax+248], 0
	je	SHORT $LN21@ReleaseAll
	mov	r8d, 4
	lea	rdx, OFFSET FLAT:??_C@_0BJ@HNIFACM@AEGP?5Output?5Module?5Suite?$AA@
	mov	rcx, QWORD PTR this$[rsp]
	call	?ReleaseSuite@AEGP_SuiteHandler@@AEAAXPEADJ@Z ; AEGP_SuiteHandler::ReleaseSuite
$LN21@ReleaseAll:

; 347  : 		AEGP_SUITE_RELEASE_BOILERPLATE(memory_suiteP, kAEGPMemorySuite, kAEGPMemorySuiteVersion);

	mov	rax, QWORD PTR this$[rsp]
	cmp	QWORD PTR [rax+256], 0
	je	SHORT $LN20@ReleaseAll
	mov	r8d, 1
	lea	rdx, OFFSET FLAT:??_C@_0BC@BBNGCJFE@AEGP?5Memory?5Suite?$AA@
	mov	rcx, QWORD PTR this$[rsp]
	call	?ReleaseSuite@AEGP_SuiteHandler@@AEAAXPEADJ@Z ; AEGP_SuiteHandler::ReleaseSuite
$LN20@ReleaseAll:

; 348  : 		AEGP_SUITE_RELEASE_BOILERPLATE(handle_suiteP, kPFHandleSuite, kPFHandleSuiteVersion);

	mov	rax, QWORD PTR this$[rsp]
	cmp	QWORD PTR [rax+264], 0
	je	SHORT $LN19@ReleaseAll
	mov	r8d, 2
	lea	rdx, OFFSET FLAT:??_C@_0BA@CLDKMHPO@PF?5Handle?5Suite?$AA@
	mov	rcx, QWORD PTR this$[rsp]
	call	?ReleaseSuite@AEGP_SuiteHandler@@AEAAXPEADJ@Z ; AEGP_SuiteHandler::ReleaseSuite
$LN19@ReleaseAll:

; 349  : 		AEGP_SUITE_RELEASE_BOILERPLATE(proj_suiteP, kAEGPProjSuite, kAEGPProjSuiteVersion);

	mov	rax, QWORD PTR this$[rsp]
	cmp	QWORD PTR [rax+272], 0
	je	SHORT $LN18@ReleaseAll
	mov	r8d, 8
	lea	rdx, OFFSET FLAT:??_C@_0BA@GONLBGJF@AEGP?5Proj?5Suite?$AA@
	mov	rcx, QWORD PTR this$[rsp]
	call	?ReleaseSuite@AEGP_SuiteHandler@@AEAAXPEADJ@Z ; AEGP_SuiteHandler::ReleaseSuite
$LN18@ReleaseAll:

; 350  : 		AEGP_SUITE_RELEASE_BOILERPLATE(color_settings_suiteP, kAEGPColorSettingsSuite, kAEGPColorSettingsSuiteVersion);

	mov	rax, QWORD PTR this$[rsp]
	cmp	QWORD PTR [rax+280], 0
	je	SHORT $LN17@ReleaseAll
	mov	r8d, 3
	lea	rdx, OFFSET FLAT:??_C@_0BI@MJAMCLDB@PF?5Color?5Settings?5Suite?$AA@
	mov	rcx, QWORD PTR this$[rsp]
	call	?ReleaseSuite@AEGP_SuiteHandler@@AEAAXPEADJ@Z ; AEGP_SuiteHandler::ReleaseSuite
$LN17@ReleaseAll:

; 351  : 		AEGP_SUITE_RELEASE_BOILERPLATE(app_suiteP, kPFAppSuite, kPFAppSuiteVersion);

	mov	rax, QWORD PTR this$[rsp]
	cmp	QWORD PTR [rax+288], 0
	je	SHORT $LN16@ReleaseAll
	mov	r8d, 6
	lea	rdx, OFFSET FLAT:??_C@_0BA@OEHNFJMG@PF?5AE?5App?5Suite?$AA@
	mov	rcx, QWORD PTR this$[rsp]
	call	?ReleaseSuite@AEGP_SuiteHandler@@AEAAXPEADJ@Z ; AEGP_SuiteHandler::ReleaseSuite
$LN16@ReleaseAll:

; 352  : 		AEGP_SUITE_RELEASE_BOILERPLATE(adv_app_suiteP, kPFAdvAppSuite, kPFAdvAppSuiteVersion);

	mov	rax, QWORD PTR this$[rsp]
	cmp	QWORD PTR [rax+296], 0
	je	SHORT $LN15@ReleaseAll
	mov	r8d, 1
	lea	rdx, OFFSET FLAT:??_C@_0BE@KFNBHDEF@PF?5AE?5Adv?5App?5Suite?$AA@
	mov	rcx, QWORD PTR this$[rsp]
	call	?ReleaseSuite@AEGP_SuiteHandler@@AEAAXPEADJ@Z ; AEGP_SuiteHandler::ReleaseSuite
$LN15@ReleaseAll:

; 353  : 		AEGP_SUITE_RELEASE_BOILERPLATE(persistent_data_suiteP, kAEGPPersistentDataSuite, kAEGPPersistentDataSuiteVersion);

	mov	rax, QWORD PTR this$[rsp]
	cmp	QWORD PTR [rax+304], 0
	je	SHORT $LN14@ReleaseAll
	mov	r8d, 3
	lea	rdx, OFFSET FLAT:??_C@_0BL@LKLAICCP@AEGP?5Persistent?5Data?5Suite?$AA@
	mov	rcx, QWORD PTR this$[rsp]
	call	?ReleaseSuite@AEGP_SuiteHandler@@AEAAXPEADJ@Z ; AEGP_SuiteHandler::ReleaseSuite
$LN14@ReleaseAll:

; 354  : 		AEGP_SUITE_RELEASE_BOILERPLATE(text_document_suiteP, kAEGPTextDocumentSuite, kAEGPTextDocumentSuiteVersion);

	mov	rax, QWORD PTR this$[rsp]
	cmp	QWORD PTR [rax+312], 0
	je	SHORT $LN13@ReleaseAll
	mov	r8d, 1
	lea	rdx, OFFSET FLAT:??_C@_0BJ@KNOGBGJM@AEGP?5Text?5Document?5Suite?$AA@
	mov	rcx, QWORD PTR this$[rsp]
	call	?ReleaseSuite@AEGP_SuiteHandler@@AEAAXPEADJ@Z ; AEGP_SuiteHandler::ReleaseSuite
$LN13@ReleaseAll:

; 355  : 		AEGP_SUITE_RELEASE_BOILERPLATE(pfinterface_suiteP, kAEGPPFInterfaceSuite, kAEGPPFInterfaceSuiteVersion);

	mov	rax, QWORD PTR this$[rsp]
	cmp	QWORD PTR [rax+320], 0
	je	SHORT $LN12@ReleaseAll
	mov	r8d, 1
	lea	rdx, OFFSET FLAT:??_C@_0BI@NNBKMHEK@AEGP?5PF?5Interface?5Suite?$AA@
	mov	rcx, QWORD PTR this$[rsp]
	call	?ReleaseSuite@AEGP_SuiteHandler@@AEAAXPEADJ@Z ; AEGP_SuiteHandler::ReleaseSuite
$LN12@ReleaseAll:

; 356  : 
; 357  : 	#if PF_AE_PLUG_IN_VERSION >= PF_AE100_PLUG_IN_VERSION
; 358  : 		AEGP_SUITE_RELEASE_BOILERPLATE(db_drawbot_suiteP, kDRAWBOT_DrawSuite, kDRAWBOT_DrawbotSuite_Version);

	mov	rax, QWORD PTR this$[rsp]
	cmp	QWORD PTR [rax+328], 0
	je	SHORT $LN11@ReleaseAll
	mov	r8d, 1
	lea	rdx, OFFSET FLAT:??_C@_0BD@FLBGPIMI@DRAWBOT?5Draw?5Suite?$AA@
	mov	rcx, QWORD PTR this$[rsp]
	call	?ReleaseSuite@AEGP_SuiteHandler@@AEAAXPEADJ@Z ; AEGP_SuiteHandler::ReleaseSuite
$LN11@ReleaseAll:

; 359  : 		AEGP_SUITE_RELEASE_BOILERPLATE(db_supplier_suiteP, kDRAWBOT_SupplierSuite, kDB_SupplierSuite_Version);

	mov	rax, QWORD PTR this$[rsp]
	cmp	QWORD PTR [rax+336], 0
	je	SHORT $LN10@ReleaseAll
	mov	r8d, 1
	lea	rdx, OFFSET FLAT:??_C@_0BH@FIONCCPG@DRAWBOT?5Supplier?5Suite?$AA@
	mov	rcx, QWORD PTR this$[rsp]
	call	?ReleaseSuite@AEGP_SuiteHandler@@AEAAXPEADJ@Z ; AEGP_SuiteHandler::ReleaseSuite
$LN10@ReleaseAll:

; 360  : 		AEGP_SUITE_RELEASE_BOILERPLATE(db_surface_suiteP, kDRAWBOT_SurfaceSuite, kDB_SurfaceSuite_Version);

	mov	rax, QWORD PTR this$[rsp]
	cmp	QWORD PTR [rax+344], 0
	je	SHORT $LN9@ReleaseAll
	mov	r8d, 2
	lea	rdx, OFFSET FLAT:??_C@_0BG@FIILEFJC@DRAWBOT?5Surface?5Suite?$AA@
	mov	rcx, QWORD PTR this$[rsp]
	call	?ReleaseSuite@AEGP_SuiteHandler@@AEAAXPEADJ@Z ; AEGP_SuiteHandler::ReleaseSuite
$LN9@ReleaseAll:

; 361  : 		AEGP_SUITE_RELEASE_BOILERPLATE(db_path_suiteP, kDRAWBOT_PathSuite, kDB_PathSuite_Version);

	mov	rax, QWORD PTR this$[rsp]
	cmp	QWORD PTR [rax+352], 0
	je	SHORT $LN8@ReleaseAll
	mov	r8d, 1
	lea	rdx, OFFSET FLAT:??_C@_0BD@MKGMFBND@DRAWBOT?5Path?5Suite?$AA@
	mov	rcx, QWORD PTR this$[rsp]
	call	?ReleaseSuite@AEGP_SuiteHandler@@AEAAXPEADJ@Z ; AEGP_SuiteHandler::ReleaseSuite
$LN8@ReleaseAll:

; 362  : 		AEGP_SUITE_RELEASE_BOILERPLATE(pf_effect_customUI_suiteP, kPFEffectCustomUISuite, kPFEffectCustomUISuiteVersion);

	mov	rax, QWORD PTR this$[rsp]
	cmp	QWORD PTR [rax+360], 0
	je	SHORT $LN7@ReleaseAll
	mov	r8d, 1
	lea	rdx, OFFSET FLAT:??_C@_0BK@CMHGHGNL@PF?5Effect?5Custom?5UI?5Suite?$AA@
	mov	rcx, QWORD PTR this$[rsp]
	call	?ReleaseSuite@AEGP_SuiteHandler@@AEAAXPEADJ@Z ; AEGP_SuiteHandler::ReleaseSuite
$LN7@ReleaseAll:

; 363  : 		AEGP_SUITE_RELEASE_BOILERPLATE(pf_customUI_theme_suiteP, kCustomUIThemeSuite, kCustomUIThemeSuiteVersion);

	mov	rax, QWORD PTR this$[rsp]
	cmp	QWORD PTR [rax+368], 0
	je	SHORT $LN6@ReleaseAll
	mov	r8d, 1
	lea	rdx, OFFSET FLAT:??_C@_0CI@OCHIBGAE@PF?5Effect?5Custom?5UI?5Overlay?5Them@
	mov	rcx, QWORD PTR this$[rsp]
	call	?ReleaseSuite@AEGP_SuiteHandler@@AEAAXPEADJ@Z ; AEGP_SuiteHandler::ReleaseSuite
$LN6@ReleaseAll:

; 364  : 		
; 365  : 		#ifdef AE105_TIMECODE_SUITES
; 366  : 		AEGP_SUITE_RELEASE_BOILERPLATE(proj_suite6P, kAEGPProjSuite, kAEGPProjSuiteVersion6);

	mov	rax, QWORD PTR this$[rsp]
	cmp	QWORD PTR [rax+376], 0
	je	SHORT $LN5@ReleaseAll
	mov	r8d, 9
	lea	rdx, OFFSET FLAT:??_C@_0BA@GONLBGJF@AEGP?5Proj?5Suite?$AA@
	mov	rcx, QWORD PTR this$[rsp]
	call	?ReleaseSuite@AEGP_SuiteHandler@@AEAAXPEADJ@Z ; AEGP_SuiteHandler::ReleaseSuite
$LN5@ReleaseAll:

; 367  : 		AEGP_SUITE_RELEASE_BOILERPLATE(comp_suite8P, kAEGPCompSuite, kAEGPCompSuiteVersion8);

	mov	rax, QWORD PTR this$[rsp]
	cmp	QWORD PTR [rax+384], 0
	je	SHORT $LN4@ReleaseAll
	mov	r8d, 18
	lea	rdx, OFFSET FLAT:??_C@_0BA@EIBCLLGC@AEGP?5Comp?5Suite?$AA@
	mov	rcx, QWORD PTR this$[rsp]
	call	?ReleaseSuite@AEGP_SuiteHandler@@AEAAXPEADJ@Z ; AEGP_SuiteHandler::ReleaseSuite
$LN4@ReleaseAll:

; 368  : 		#endif
; 369  : 	#endif
; 370  : 
; 371  : 	#if AE135_RENDER_THREAD_MADNESS
; 372  : 		AEGP_SUITE_RELEASE_BOILERPLATE(render_async_manager_suiteP, kAEGPRenderAsyncManagerSuite, kAEGPRenderAsyncManagerSuiteVersion);

	mov	rax, QWORD PTR this$[rsp]
	cmp	QWORD PTR [rax+392], 0
	je	SHORT $LN3@ReleaseAll
	mov	r8d, 1
	lea	rdx, OFFSET FLAT:??_C@_0BP@KDAALKPG@AEGP?5Render?5Asyc?5Manager?5Suite?$AA@
	mov	rcx, QWORD PTR this$[rsp]
	call	?ReleaseSuite@AEGP_SuiteHandler@@AEAAXPEADJ@Z ; AEGP_SuiteHandler::ReleaseSuite
$LN3@ReleaseAll:

; 373  : 		AEGP_SUITE_RELEASE_BOILERPLATE(layer_render_options_suiteP, kAEGPLayerRenderOptionsSuite, kAEGPLayerRenderOptionsSuiteVersion);

	mov	rax, QWORD PTR this$[rsp]
	cmp	QWORD PTR [rax+400], 0
	je	SHORT $LN2@ReleaseAll
	mov	r8d, 2
	lea	rdx, OFFSET FLAT:??_C@_0CA@ECFGBIDE@AEGP?5Layer?5Render?5Options?5Suite?$AA@
	mov	rcx, QWORD PTR this$[rsp]
	call	?ReleaseSuite@AEGP_SuiteHandler@@AEAAXPEADJ@Z ; AEGP_SuiteHandler::ReleaseSuite
$LN2@ReleaseAll:

; 374  : 		AEGP_SUITE_RELEASE_BOILERPLATE(render_suite5P, kAEGPRenderSuite, kAEGPRenderSuiteVersion5);

	mov	rax, QWORD PTR this$[rsp]
	cmp	QWORD PTR [rax+408], 0
	je	SHORT $LN1@ReleaseAll
	mov	r8d, 8
	lea	rdx, OFFSET FLAT:??_C@_0BC@HGGIPEKD@AEGP?5Render?5Suite?$AA@
	mov	rcx, QWORD PTR this$[rsp]
	call	?ReleaseSuite@AEGP_SuiteHandler@@AEAAXPEADJ@Z ; AEGP_SuiteHandler::ReleaseSuite
$LN1@ReleaseAll:

; 375  : 	#endif
; 376  : 	}

	add	rsp, 40					; 00000028H
	ret	0
?ReleaseAllSuites@AEGP_SuiteHandler@@AEAAXXZ ENDP	; AEGP_SuiteHandler::ReleaseAllSuites
_TEXT	ENDS
pdata	SEGMENT
$pdata$?ReleaseSuite@AEGP_SuiteHandler@@AEAAXPEADJ@Z DD imagerel $LN3
	DD	imagerel $LN3+44
	DD	imagerel $unwind$?ReleaseSuite@AEGP_SuiteHandler@@AEAAXPEADJ@Z
pdata	ENDS
xdata	SEGMENT
$unwind$?ReleaseSuite@AEGP_SuiteHandler@@AEAAXPEADJ@Z DD 011301H
	DD	04213H
; Function compile flags: /Odtp
; File c:\users\brendan bolles\documents\development\proexr\src\aftereffects\fnord_suitehandler.cpp
xdata	ENDS
_TEXT	SEGMENT
this$ = 48
nameZ$ = 56
versionL$ = 64
?ReleaseSuite@AEGP_SuiteHandler@@AEAAXPEADJ@Z PROC	; AEGP_SuiteHandler::ReleaseSuite

; 67   : {

$LN3:
	mov	DWORD PTR [rsp+24], r8d
	mov	QWORD PTR [rsp+16], rdx
	mov	QWORD PTR [rsp+8], rcx
	sub	rsp, 40					; 00000028H

; 68   : 	i_pica_basicP->ReleaseSuite(nameZ, versionL);

	mov	rax, QWORD PTR this$[rsp]
	mov	rax, QWORD PTR [rax]
	mov	edx, DWORD PTR versionL$[rsp]
	mov	rcx, QWORD PTR nameZ$[rsp]
	call	QWORD PTR [rax+8]

; 69   : }

	add	rsp, 40					; 00000028H
	ret	0
?ReleaseSuite@AEGP_SuiteHandler@@AEAAXPEADJ@Z ENDP	; AEGP_SuiteHandler::ReleaseSuite
_TEXT	ENDS
END
